

Microchip MPLAB XC8 Assembler V2.50 build 20240725155939 
                                                                                               Mon Nov 04 08:46:33 2024

Microchip MPLAB XC8 C Compiler v2.50 (Free license) build 20240725155939 Og1 
     1                           	processor	16F877A
     2                           	pagewidth 120
     3                           	opt	flic
     4                           	psect	idataBANK0,global,class=CODE,space=0,delta=2,noexec
     5                           	psect	idataBANK1,global,class=CODE,space=0,delta=2,noexec
     6                           	psect	idataBANK3,global,class=CODE,space=0,delta=2,noexec
     7                           	psect	strings,global,class=STRING,space=0,delta=2,noexec
     8                           	psect	stringtext,global,reloc=256,class=STRCODE,space=0,delta=2,noexec
     9                           	psect	cinit,global,class=CODE,space=0,merge=1,delta=2
    10                           	psect	bssCOMMON,global,class=COMMON,space=1,delta=1,noexec
    11                           	psect	bssBANK0,global,class=BANK0,space=1,delta=1,noexec
    12                           	psect	dataBANK0,global,class=BANK0,space=1,delta=1,noexec
    13                           	psect	bssBANK1,global,class=BANK1,space=1,delta=1,noexec
    14                           	psect	dataBANK1,global,class=BANK1,space=1,delta=1,noexec
    15                           	psect	dataBANK3,global,class=BANK3,space=1,delta=1,noexec
    16                           	psect	inittext,global,class=CODE,space=0,delta=2
    17                           	psect	clrtext,global,class=CODE,space=0,delta=2
    18                           	psect	cstackBANK3,global,class=BANK3,space=1,delta=1,noexec
    19                           	psect	cstackCOMMON,global,class=COMMON,space=1,delta=1,noexec
    20                           	psect	cstackBANK0,global,class=BANK0,space=1,delta=1,noexec
    21                           	psect	maintext,global,class=CODE,space=0,split=1,delta=2
    22                           	psect	text1,local,class=CODE,space=0,merge=1,delta=2
    23                           	psect	text2,local,class=CODE,space=0,merge=1,delta=2,group=2
    24                           	psect	text3,local,class=CODE,space=0,merge=1,delta=2
    25                           	psect	text4,local,class=CODE,space=0,merge=1,delta=2
    26                           	psect	text5,local,class=CODE,space=0,merge=1,delta=2
    27                           	psect	text6,local,class=CODE,space=0,merge=1,delta=2
    28                           	psect	text7,local,class=CODE,space=0,merge=1,delta=2
    29                           	psect	text8,local,class=CODE,space=0,merge=1,delta=2
    30                           	psect	text9,local,class=CODE,space=0,merge=1,delta=2,group=2
    31                           	psect	text10,local,class=CODE,space=0,merge=1,delta=2
    32                           	psect	text11,local,class=CODE,space=0,merge=1,delta=2
    33                           	psect	text12,local,class=CODE,space=0,merge=1,delta=2
    34                           	psect	text13,local,class=CODE,space=0,merge=1,delta=2
    35                           	psect	text14,local,class=CODE,space=0,merge=1,delta=2
    36                           	psect	text15,local,class=CODE,space=0,merge=1,delta=2,group=1
    37                           	psect	text16,local,class=CODE,space=0,merge=1,delta=2
    38                           	psect	text17,local,class=CODE,space=0,merge=1,delta=2
    39                           	psect	text18,local,class=CODE,space=0,merge=1,delta=2
    40                           	psect	text19,local,class=CODE,space=0,merge=1,delta=2
    41                           	psect	text20,local,class=CODE,space=0,merge=1,delta=2
    42                           	psect	text21,local,class=CODE,space=0,merge=1,delta=2
    43                           	psect	text22,local,class=CODE,space=0,merge=1,delta=2
    44                           	psect	text23,local,class=CODE,space=0,merge=1,delta=2
    45                           	psect	text24,local,class=CODE,space=0,merge=1,delta=2
    46                           	psect	text25,local,class=CODE,space=0,merge=1,delta=2
    47                           	psect	text26,local,class=CODE,space=0,merge=1,delta=2,group=1
    48                           	psect	text27,local,class=CODE,space=0,merge=1,delta=2,group=1
    49                           	psect	text28,local,class=CODE,space=0,merge=1,delta=2
    50                           	psect	text29,local,class=CODE,space=0,merge=1,delta=2
    51                           	psect	text30,local,class=CODE,space=0,merge=1,delta=2
    52                           	psect	text31,local,class=CODE,space=0,merge=1,delta=2
    53                           	psect	text32,local,class=CODE,space=0,merge=1,delta=2
    54                           	psect	text33,local,class=CODE,space=0,merge=1,delta=2
    55                           	psect	text34,local,class=CODE,space=0,merge=1,delta=2,group=1
    56                           	psect	text35,local,class=CODE,space=0,merge=1,delta=2,group=1
    57                           	psect	text36,local,class=CODE,space=0,merge=1,delta=2
    58                           	psect	text37,local,class=CODE,space=0,merge=1,delta=2
    59                           	psect	text38,local,class=CODE,space=0,merge=1,delta=2,group=2
    60                           	psect	text39,local,class=CODE,space=0,merge=1,delta=2
    61                           	psect	text40,local,class=CODE,space=0,merge=1,delta=2
    62                           	psect	text41,local,class=CODE,space=0,merge=1,delta=2
    63                           	psect	text42,local,class=CODE,space=0,merge=1,delta=2
    64                           	psect	text43,local,class=CODE,space=0,merge=1,delta=2
    65                           	psect	text44,local,class=CODE,space=0,merge=1,delta=2
    66                           	psect	text45,local,class=CODE,space=0,merge=1,delta=2
    67                           	psect	text46,local,class=CODE,space=0,merge=1,delta=2
    68                           	psect	text47,local,class=CODE,space=0,merge=1,delta=2
    69                           	psect	text48,local,class=CODE,space=0,merge=1,delta=2
    70                           	psect	text49,local,class=CODE,space=0,merge=1,delta=2,group=1
    71                           	psect	text50,local,class=CODE,space=0,merge=1,delta=2,group=1
    72                           	psect	text51,local,class=CODE,space=0,merge=1,delta=2,group=1
    73                           	psect	text52,local,class=CODE,space=0,merge=1,delta=2
    74                           	psect	intentry,global,class=CODE,space=0,delta=2
    75                           	psect	config,global,abs,ovrld,class=CONFIG,space=4,delta=2,noexec
    76                           	dabs	1,0x7E,2
    77     0000                     
    78                           ; Generated 12/10/2023 GMT
    79                           ; 
    80                           ; Copyright © 2023, Microchip Technology Inc. and its subsidiaries ("Microchip")
    81                           ; All rights reserved.
    82                           ; 
    83                           ; This software is developed by Microchip Technology Inc. and its subsidiaries ("Microch
      +                          ip").
    84                           ; 
    85                           ; Redistribution and use in source and binary forms, with or without modification, are
    86                           ; permitted provided that the following conditions are met:
    87                           ; 
    88                           ;     1. Redistributions of source code must retain the above copyright notice, this lis
      +                          t of
    89                           ;        conditions and the following disclaimer.
    90                           ; 
    91                           ;     2. Redistributions in binary form must reproduce the above copyright notice, this 
      +                          list
    92                           ;        of conditions and the following disclaimer in the documentation and/or other
    93                           ;        materials provided with the distribution. Publication is not required when
    94                           ;        this file is used in an embedded application.
    95                           ; 
    96                           ;     3. Microchip's name may not be used to endorse or promote products derived from th
      +                          is
    97                           ;        software without specific prior written permission.
    98                           ; 
    99                           ; THIS SOFTWARE IS PROVIDED BY MICROCHIP "AS IS" AND ANY EXPRESS OR IMPLIED WARRANTIES,
   100                           ; INCLUDING, BUT NOT LIMITED TO, THE IMPLIED WARRANTIES OF MERCHANTABILITY AND FITNESS F
      +                          OR
   101                           ; PURPOSE ARE DISCLAIMED.  IN NO EVENT SHALL MICROCHIP BE LIABLE FOR ANY DIRECT, INDIREC
      +                          T,
   102                           ; INCIDENTAL, SPECIAL, EXEMPLARY, OR CONSEQUENTIAL DAMAGES (INCLUDING BUT NOT LIMITED TO
   103                           ; PROCUREMENT OF SUBSTITUTE GOODS OR SERVICES; LOSS OF USE, DATA OR PROFITS; OR BUSINESS
   104                           ; INTERRUPTION) HOWSOEVER CAUSED AND ON ANY THEORY OF LIABILITY, WHETHER IN CONTRACT, ST
      +                          RICT
   105                           ; LIABILITY, OR TORT (INCLUDING NEGLIGENCE OR OTHERWISE) ARISING IN ANY WAY OUT OF THE U
      +                          SE OF
   106                           ; THIS SOFTWARE, EVEN IF ADVISED OF THE POSSIBILITY OF SUCH DAMAGE.
   107                           ; 
   108                           ; 
   109                           ; Code-generator required, PIC16F877A Definitions
   110                           ; 
   111                           ; SFR Addresses
   112     0004                     fsr             equ	4
   113     0004                     fsr0            equ	4
   114     0000                     indf            equ	0
   115     0000                     indf0           equ	0
   116     0002                     pc              equ	2
   117     0002                     pcl             equ	2
   118     000A                     pclath          equ	10
   119     0003                     status          equ	3
   120     0000                     INDF            equ	0	;# 
   121     0001                     TMR0            equ	1	;# 
   122     0002                     PCL             equ	2	;# 
   123     0003                     STATUS          equ	3	;# 
   124     0004                     FSR             equ	4	;# 
   125     0005                     PORTA           equ	5	;# 
   126     0006                     PORTB           equ	6	;# 
   127     0007                     PORTC           equ	7	;# 
   128     0008                     PORTD           equ	8	;# 
   129     0009                     PORTE           equ	9	;# 
   130     000A                     PCLATH          equ	10	;# 
   131     000B                     INTCON          equ	11	;# 
   132     000C                     PIR1            equ	12	;# 
   133     000D                     PIR2            equ	13	;# 
   134     000E                     TMR1            equ	14	;# 
   135     000E                     TMR1L           equ	14	;# 
   136     000F                     TMR1H           equ	15	;# 
   137     0010                     T1CON           equ	16	;# 
   138     0011                     TMR2            equ	17	;# 
   139     0012                     T2CON           equ	18	;# 
   140     0013                     SSPBUF          equ	19	;# 
   141     0014                     SSPCON          equ	20	;# 
   142     0015                     CCPR1           equ	21	;# 
   143     0015                     CCPR1L          equ	21	;# 
   144     0016                     CCPR1H          equ	22	;# 
   145     0017                     CCP1CON         equ	23	;# 
   146     0018                     RCSTA           equ	24	;# 
   147     0019                     TXREG           equ	25	;# 
   148     001A                     RCREG           equ	26	;# 
   149     001B                     CCPR2           equ	27	;# 
   150     001B                     CCPR2L          equ	27	;# 
   151     001C                     CCPR2H          equ	28	;# 
   152     001D                     CCP2CON         equ	29	;# 
   153     001E                     ADRESH          equ	30	;# 
   154     001F                     ADCON0          equ	31	;# 
   155     0081                     OPTION_REG      equ	129	;# 
   156     0085                     TRISA           equ	133	;# 
   157     0086                     TRISB           equ	134	;# 
   158     0087                     TRISC           equ	135	;# 
   159     0088                     TRISD           equ	136	;# 
   160     0089                     TRISE           equ	137	;# 
   161     008C                     PIE1            equ	140	;# 
   162     008D                     PIE2            equ	141	;# 
   163     008E                     PCON            equ	142	;# 
   164     0091                     SSPCON2         equ	145	;# 
   165     0092                     PR2             equ	146	;# 
   166     0093                     SSPADD          equ	147	;# 
   167     0094                     SSPSTAT         equ	148	;# 
   168     0098                     TXSTA           equ	152	;# 
   169     0099                     SPBRG           equ	153	;# 
   170     009C                     CMCON           equ	156	;# 
   171     009D                     CVRCON          equ	157	;# 
   172     009E                     ADRESL          equ	158	;# 
   173     009F                     ADCON1          equ	159	;# 
   174     010C                     EEDATA          equ	268	;# 
   175     010D                     EEADR           equ	269	;# 
   176     010E                     EEDATH          equ	270	;# 
   177     010F                     EEADRH          equ	271	;# 
   178     018C                     EECON1          equ	396	;# 
   179     018D                     EECON2          equ	397	;# 
   180     0000                     INDF            equ	0	;# 
   181     0001                     TMR0            equ	1	;# 
   182     0002                     PCL             equ	2	;# 
   183     0003                     STATUS          equ	3	;# 
   184     0004                     FSR             equ	4	;# 
   185     0005                     PORTA           equ	5	;# 
   186     0006                     PORTB           equ	6	;# 
   187     0007                     PORTC           equ	7	;# 
   188     0008                     PORTD           equ	8	;# 
   189     0009                     PORTE           equ	9	;# 
   190     000A                     PCLATH          equ	10	;# 
   191     000B                     INTCON          equ	11	;# 
   192     000C                     PIR1            equ	12	;# 
   193     000D                     PIR2            equ	13	;# 
   194     000E                     TMR1            equ	14	;# 
   195     000E                     TMR1L           equ	14	;# 
   196     000F                     TMR1H           equ	15	;# 
   197     0010                     T1CON           equ	16	;# 
   198     0011                     TMR2            equ	17	;# 
   199     0012                     T2CON           equ	18	;# 
   200     0013                     SSPBUF          equ	19	;# 
   201     0014                     SSPCON          equ	20	;# 
   202     0015                     CCPR1           equ	21	;# 
   203     0015                     CCPR1L          equ	21	;# 
   204     0016                     CCPR1H          equ	22	;# 
   205     0017                     CCP1CON         equ	23	;# 
   206     0018                     RCSTA           equ	24	;# 
   207     0019                     TXREG           equ	25	;# 
   208     001A                     RCREG           equ	26	;# 
   209     001B                     CCPR2           equ	27	;# 
   210     001B                     CCPR2L          equ	27	;# 
   211     001C                     CCPR2H          equ	28	;# 
   212     001D                     CCP2CON         equ	29	;# 
   213     001E                     ADRESH          equ	30	;# 
   214     001F                     ADCON0          equ	31	;# 
   215     0081                     OPTION_REG      equ	129	;# 
   216     0085                     TRISA           equ	133	;# 
   217     0086                     TRISB           equ	134	;# 
   218     0087                     TRISC           equ	135	;# 
   219     0088                     TRISD           equ	136	;# 
   220     0089                     TRISE           equ	137	;# 
   221     008C                     PIE1            equ	140	;# 
   222     008D                     PIE2            equ	141	;# 
   223     008E                     PCON            equ	142	;# 
   224     0091                     SSPCON2         equ	145	;# 
   225     0092                     PR2             equ	146	;# 
   226     0093                     SSPADD          equ	147	;# 
   227     0094                     SSPSTAT         equ	148	;# 
   228     0098                     TXSTA           equ	152	;# 
   229     0099                     SPBRG           equ	153	;# 
   230     009C                     CMCON           equ	156	;# 
   231     009D                     CVRCON          equ	157	;# 
   232     009E                     ADRESL          equ	158	;# 
   233     009F                     ADCON1          equ	159	;# 
   234     010C                     EEDATA          equ	268	;# 
   235     010D                     EEADR           equ	269	;# 
   236     010E                     EEDATH          equ	270	;# 
   237     010F                     EEADRH          equ	271	;# 
   238     018C                     EECON1          equ	396	;# 
   239     018D                     EECON2          equ	397	;# 
   240     0000                     INDF            equ	0	;# 
   241     0001                     TMR0            equ	1	;# 
   242     0002                     PCL             equ	2	;# 
   243     0003                     STATUS          equ	3	;# 
   244     0004                     FSR             equ	4	;# 
   245     0005                     PORTA           equ	5	;# 
   246     0006                     PORTB           equ	6	;# 
   247     0007                     PORTC           equ	7	;# 
   248     0008                     PORTD           equ	8	;# 
   249     0009                     PORTE           equ	9	;# 
   250     000A                     PCLATH          equ	10	;# 
   251     000B                     INTCON          equ	11	;# 
   252     000C                     PIR1            equ	12	;# 
   253     000D                     PIR2            equ	13	;# 
   254     000E                     TMR1            equ	14	;# 
   255     000E                     TMR1L           equ	14	;# 
   256     000F                     TMR1H           equ	15	;# 
   257     0010                     T1CON           equ	16	;# 
   258     0011                     TMR2            equ	17	;# 
   259     0012                     T2CON           equ	18	;# 
   260     0013                     SSPBUF          equ	19	;# 
   261     0014                     SSPCON          equ	20	;# 
   262     0015                     CCPR1           equ	21	;# 
   263     0015                     CCPR1L          equ	21	;# 
   264     0016                     CCPR1H          equ	22	;# 
   265     0017                     CCP1CON         equ	23	;# 
   266     0018                     RCSTA           equ	24	;# 
   267     0019                     TXREG           equ	25	;# 
   268     001A                     RCREG           equ	26	;# 
   269     001B                     CCPR2           equ	27	;# 
   270     001B                     CCPR2L          equ	27	;# 
   271     001C                     CCPR2H          equ	28	;# 
   272     001D                     CCP2CON         equ	29	;# 
   273     001E                     ADRESH          equ	30	;# 
   274     001F                     ADCON0          equ	31	;# 
   275     0081                     OPTION_REG      equ	129	;# 
   276     0085                     TRISA           equ	133	;# 
   277     0086                     TRISB           equ	134	;# 
   278     0087                     TRISC           equ	135	;# 
   279     0088                     TRISD           equ	136	;# 
   280     0089                     TRISE           equ	137	;# 
   281     008C                     PIE1            equ	140	;# 
   282     008D                     PIE2            equ	141	;# 
   283     008E                     PCON            equ	142	;# 
   284     0091                     SSPCON2         equ	145	;# 
   285     0092                     PR2             equ	146	;# 
   286     0093                     SSPADD          equ	147	;# 
   287     0094                     SSPSTAT         equ	148	;# 
   288     0098                     TXSTA           equ	152	;# 
   289     0099                     SPBRG           equ	153	;# 
   290     009C                     CMCON           equ	156	;# 
   291     009D                     CVRCON          equ	157	;# 
   292     009E                     ADRESL          equ	158	;# 
   293     009F                     ADCON1          equ	159	;# 
   294     010C                     EEDATA          equ	268	;# 
   295     010D                     EEADR           equ	269	;# 
   296     010E                     EEDATH          equ	270	;# 
   297     010F                     EEADRH          equ	271	;# 
   298     018C                     EECON1          equ	396	;# 
   299     018D                     EECON2          equ	397	;# 
   300     0000                     INDF            equ	0	;# 
   301     0001                     TMR0            equ	1	;# 
   302     0002                     PCL             equ	2	;# 
   303     0003                     STATUS          equ	3	;# 
   304     0004                     FSR             equ	4	;# 
   305     0005                     PORTA           equ	5	;# 
   306     0006                     PORTB           equ	6	;# 
   307     0007                     PORTC           equ	7	;# 
   308     0008                     PORTD           equ	8	;# 
   309     0009                     PORTE           equ	9	;# 
   310     000A                     PCLATH          equ	10	;# 
   311     000B                     INTCON          equ	11	;# 
   312     000C                     PIR1            equ	12	;# 
   313     000D                     PIR2            equ	13	;# 
   314     000E                     TMR1            equ	14	;# 
   315     000E                     TMR1L           equ	14	;# 
   316     000F                     TMR1H           equ	15	;# 
   317     0010                     T1CON           equ	16	;# 
   318     0011                     TMR2            equ	17	;# 
   319     0012                     T2CON           equ	18	;# 
   320     0013                     SSPBUF          equ	19	;# 
   321     0014                     SSPCON          equ	20	;# 
   322     0015                     CCPR1           equ	21	;# 
   323     0015                     CCPR1L          equ	21	;# 
   324     0016                     CCPR1H          equ	22	;# 
   325     0017                     CCP1CON         equ	23	;# 
   326     0018                     RCSTA           equ	24	;# 
   327     0019                     TXREG           equ	25	;# 
   328     001A                     RCREG           equ	26	;# 
   329     001B                     CCPR2           equ	27	;# 
   330     001B                     CCPR2L          equ	27	;# 
   331     001C                     CCPR2H          equ	28	;# 
   332     001D                     CCP2CON         equ	29	;# 
   333     001E                     ADRESH          equ	30	;# 
   334     001F                     ADCON0          equ	31	;# 
   335     0081                     OPTION_REG      equ	129	;# 
   336     0085                     TRISA           equ	133	;# 
   337     0086                     TRISB           equ	134	;# 
   338     0087                     TRISC           equ	135	;# 
   339     0088                     TRISD           equ	136	;# 
   340     0089                     TRISE           equ	137	;# 
   341     008C                     PIE1            equ	140	;# 
   342     008D                     PIE2            equ	141	;# 
   343     008E                     PCON            equ	142	;# 
   344     0091                     SSPCON2         equ	145	;# 
   345     0092                     PR2             equ	146	;# 
   346     0093                     SSPADD          equ	147	;# 
   347     0094                     SSPSTAT         equ	148	;# 
   348     0098                     TXSTA           equ	152	;# 
   349     0099                     SPBRG           equ	153	;# 
   350     009C                     CMCON           equ	156	;# 
   351     009D                     CVRCON          equ	157	;# 
   352     009E                     ADRESL          equ	158	;# 
   353     009F                     ADCON1          equ	159	;# 
   354     010C                     EEDATA          equ	268	;# 
   355     010D                     EEADR           equ	269	;# 
   356     010E                     EEDATH          equ	270	;# 
   357     010F                     EEADRH          equ	271	;# 
   358     018C                     EECON1          equ	396	;# 
   359     018D                     EECON2          equ	397	;# 
   360     0000                     INDF            equ	0	;# 
   361     0001                     TMR0            equ	1	;# 
   362     0002                     PCL             equ	2	;# 
   363     0003                     STATUS          equ	3	;# 
   364     0004                     FSR             equ	4	;# 
   365     0005                     PORTA           equ	5	;# 
   366     0006                     PORTB           equ	6	;# 
   367     0007                     PORTC           equ	7	;# 
   368     0008                     PORTD           equ	8	;# 
   369     0009                     PORTE           equ	9	;# 
   370     000A                     PCLATH          equ	10	;# 
   371     000B                     INTCON          equ	11	;# 
   372     000C                     PIR1            equ	12	;# 
   373     000D                     PIR2            equ	13	;# 
   374     000E                     TMR1            equ	14	;# 
   375     000E                     TMR1L           equ	14	;# 
   376     000F                     TMR1H           equ	15	;# 
   377     0010                     T1CON           equ	16	;# 
   378     0011                     TMR2            equ	17	;# 
   379     0012                     T2CON           equ	18	;# 
   380     0013                     SSPBUF          equ	19	;# 
   381     0014                     SSPCON          equ	20	;# 
   382     0015                     CCPR1           equ	21	;# 
   383     0015                     CCPR1L          equ	21	;# 
   384     0016                     CCPR1H          equ	22	;# 
   385     0017                     CCP1CON         equ	23	;# 
   386     0018                     RCSTA           equ	24	;# 
   387     0019                     TXREG           equ	25	;# 
   388     001A                     RCREG           equ	26	;# 
   389     001B                     CCPR2           equ	27	;# 
   390     001B                     CCPR2L          equ	27	;# 
   391     001C                     CCPR2H          equ	28	;# 
   392     001D                     CCP2CON         equ	29	;# 
   393     001E                     ADRESH          equ	30	;# 
   394     001F                     ADCON0          equ	31	;# 
   395     0081                     OPTION_REG      equ	129	;# 
   396     0085                     TRISA           equ	133	;# 
   397     0086                     TRISB           equ	134	;# 
   398     0087                     TRISC           equ	135	;# 
   399     0088                     TRISD           equ	136	;# 
   400     0089                     TRISE           equ	137	;# 
   401     008C                     PIE1            equ	140	;# 
   402     008D                     PIE2            equ	141	;# 
   403     008E                     PCON            equ	142	;# 
   404     0091                     SSPCON2         equ	145	;# 
   405     0092                     PR2             equ	146	;# 
   406     0093                     SSPADD          equ	147	;# 
   407     0094                     SSPSTAT         equ	148	;# 
   408     0098                     TXSTA           equ	152	;# 
   409     0099                     SPBRG           equ	153	;# 
   410     009C                     CMCON           equ	156	;# 
   411     009D                     CVRCON          equ	157	;# 
   412     009E                     ADRESL          equ	158	;# 
   413     009F                     ADCON1          equ	159	;# 
   414     010C                     EEDATA          equ	268	;# 
   415     010D                     EEADR           equ	269	;# 
   416     010E                     EEDATH          equ	270	;# 
   417     010F                     EEADRH          equ	271	;# 
   418     018C                     EECON1          equ	396	;# 
   419     018D                     EECON2          equ	397	;# 
   420     0000                     INDF            equ	0	;# 
   421     0001                     TMR0            equ	1	;# 
   422     0002                     PCL             equ	2	;# 
   423     0003                     STATUS          equ	3	;# 
   424     0004                     FSR             equ	4	;# 
   425     0005                     PORTA           equ	5	;# 
   426     0006                     PORTB           equ	6	;# 
   427     0007                     PORTC           equ	7	;# 
   428     0008                     PORTD           equ	8	;# 
   429     0009                     PORTE           equ	9	;# 
   430     000A                     PCLATH          equ	10	;# 
   431     000B                     INTCON          equ	11	;# 
   432     000C                     PIR1            equ	12	;# 
   433     000D                     PIR2            equ	13	;# 
   434     000E                     TMR1            equ	14	;# 
   435     000E                     TMR1L           equ	14	;# 
   436     000F                     TMR1H           equ	15	;# 
   437     0010                     T1CON           equ	16	;# 
   438     0011                     TMR2            equ	17	;# 
   439     0012                     T2CON           equ	18	;# 
   440     0013                     SSPBUF          equ	19	;# 
   441     0014                     SSPCON          equ	20	;# 
   442     0015                     CCPR1           equ	21	;# 
   443     0015                     CCPR1L          equ	21	;# 
   444     0016                     CCPR1H          equ	22	;# 
   445     0017                     CCP1CON         equ	23	;# 
   446     0018                     RCSTA           equ	24	;# 
   447     0019                     TXREG           equ	25	;# 
   448     001A                     RCREG           equ	26	;# 
   449     001B                     CCPR2           equ	27	;# 
   450     001B                     CCPR2L          equ	27	;# 
   451     001C                     CCPR2H          equ	28	;# 
   452     001D                     CCP2CON         equ	29	;# 
   453     001E                     ADRESH          equ	30	;# 
   454     001F                     ADCON0          equ	31	;# 
   455     0081                     OPTION_REG      equ	129	;# 
   456     0085                     TRISA           equ	133	;# 
   457     0086                     TRISB           equ	134	;# 
   458     0087                     TRISC           equ	135	;# 
   459     0088                     TRISD           equ	136	;# 
   460     0089                     TRISE           equ	137	;# 
   461     008C                     PIE1            equ	140	;# 
   462     008D                     PIE2            equ	141	;# 
   463     008E                     PCON            equ	142	;# 
   464     0091                     SSPCON2         equ	145	;# 
   465     0092                     PR2             equ	146	;# 
   466     0093                     SSPADD          equ	147	;# 
   467     0094                     SSPSTAT         equ	148	;# 
   468     0098                     TXSTA           equ	152	;# 
   469     0099                     SPBRG           equ	153	;# 
   470     009C                     CMCON           equ	156	;# 
   471     009D                     CVRCON          equ	157	;# 
   472     009E                     ADRESL          equ	158	;# 
   473     009F                     ADCON1          equ	159	;# 
   474     010C                     EEDATA          equ	268	;# 
   475     010D                     EEADR           equ	269	;# 
   476     010E                     EEDATH          equ	270	;# 
   477     010F                     EEADRH          equ	271	;# 
   478     018C                     EECON1          equ	396	;# 
   479     018D                     EECON2          equ	397	;# 
   480     0000                     INDF            equ	0	;# 
   481     0001                     TMR0            equ	1	;# 
   482     0002                     PCL             equ	2	;# 
   483     0003                     STATUS          equ	3	;# 
   484     0004                     FSR             equ	4	;# 
   485     0005                     PORTA           equ	5	;# 
   486     0006                     PORTB           equ	6	;# 
   487     0007                     PORTC           equ	7	;# 
   488     0008                     PORTD           equ	8	;# 
   489     0009                     PORTE           equ	9	;# 
   490     000A                     PCLATH          equ	10	;# 
   491     000B                     INTCON          equ	11	;# 
   492     000C                     PIR1            equ	12	;# 
   493     000D                     PIR2            equ	13	;# 
   494     000E                     TMR1            equ	14	;# 
   495     000E                     TMR1L           equ	14	;# 
   496     000F                     TMR1H           equ	15	;# 
   497     0010                     T1CON           equ	16	;# 
   498     0011                     TMR2            equ	17	;# 
   499     0012                     T2CON           equ	18	;# 
   500     0013                     SSPBUF          equ	19	;# 
   501     0014                     SSPCON          equ	20	;# 
   502     0015                     CCPR1           equ	21	;# 
   503     0015                     CCPR1L          equ	21	;# 
   504     0016                     CCPR1H          equ	22	;# 
   505     0017                     CCP1CON         equ	23	;# 
   506     0018                     RCSTA           equ	24	;# 
   507     0019                     TXREG           equ	25	;# 
   508     001A                     RCREG           equ	26	;# 
   509     001B                     CCPR2           equ	27	;# 
   510     001B                     CCPR2L          equ	27	;# 
   511     001C                     CCPR2H          equ	28	;# 
   512     001D                     CCP2CON         equ	29	;# 
   513     001E                     ADRESH          equ	30	;# 
   514     001F                     ADCON0          equ	31	;# 
   515     0081                     OPTION_REG      equ	129	;# 
   516     0085                     TRISA           equ	133	;# 
   517     0086                     TRISB           equ	134	;# 
   518     0087                     TRISC           equ	135	;# 
   519     0088                     TRISD           equ	136	;# 
   520     0089                     TRISE           equ	137	;# 
   521     008C                     PIE1            equ	140	;# 
   522     008D                     PIE2            equ	141	;# 
   523     008E                     PCON            equ	142	;# 
   524     0091                     SSPCON2         equ	145	;# 
   525     0092                     PR2             equ	146	;# 
   526     0093                     SSPADD          equ	147	;# 
   527     0094                     SSPSTAT         equ	148	;# 
   528     0098                     TXSTA           equ	152	;# 
   529     0099                     SPBRG           equ	153	;# 
   530     009C                     CMCON           equ	156	;# 
   531     009D                     CVRCON          equ	157	;# 
   532     009E                     ADRESL          equ	158	;# 
   533     009F                     ADCON1          equ	159	;# 
   534     010C                     EEDATA          equ	268	;# 
   535     010D                     EEADR           equ	269	;# 
   536     010E                     EEDATH          equ	270	;# 
   537     010F                     EEADRH          equ	271	;# 
   538     018C                     EECON1          equ	396	;# 
   539     018D                     EECON2          equ	397	;# 
   540     0000                     INDF            equ	0	;# 
   541     0001                     TMR0            equ	1	;# 
   542     0002                     PCL             equ	2	;# 
   543     0003                     STATUS          equ	3	;# 
   544     0004                     FSR             equ	4	;# 
   545     0005                     PORTA           equ	5	;# 
   546     0006                     PORTB           equ	6	;# 
   547     0007                     PORTC           equ	7	;# 
   548     0008                     PORTD           equ	8	;# 
   549     0009                     PORTE           equ	9	;# 
   550     000A                     PCLATH          equ	10	;# 
   551     000B                     INTCON          equ	11	;# 
   552     000C                     PIR1            equ	12	;# 
   553     000D                     PIR2            equ	13	;# 
   554     000E                     TMR1            equ	14	;# 
   555     000E                     TMR1L           equ	14	;# 
   556     000F                     TMR1H           equ	15	;# 
   557     0010                     T1CON           equ	16	;# 
   558     0011                     TMR2            equ	17	;# 
   559     0012                     T2CON           equ	18	;# 
   560     0013                     SSPBUF          equ	19	;# 
   561     0014                     SSPCON          equ	20	;# 
   562     0015                     CCPR1           equ	21	;# 
   563     0015                     CCPR1L          equ	21	;# 
   564     0016                     CCPR1H          equ	22	;# 
   565     0017                     CCP1CON         equ	23	;# 
   566     0018                     RCSTA           equ	24	;# 
   567     0019                     TXREG           equ	25	;# 
   568     001A                     RCREG           equ	26	;# 
   569     001B                     CCPR2           equ	27	;# 
   570     001B                     CCPR2L          equ	27	;# 
   571     001C                     CCPR2H          equ	28	;# 
   572     001D                     CCP2CON         equ	29	;# 
   573     001E                     ADRESH          equ	30	;# 
   574     001F                     ADCON0          equ	31	;# 
   575     0081                     OPTION_REG      equ	129	;# 
   576     0085                     TRISA           equ	133	;# 
   577     0086                     TRISB           equ	134	;# 
   578     0087                     TRISC           equ	135	;# 
   579     0088                     TRISD           equ	136	;# 
   580     0089                     TRISE           equ	137	;# 
   581     008C                     PIE1            equ	140	;# 
   582     008D                     PIE2            equ	141	;# 
   583     008E                     PCON            equ	142	;# 
   584     0091                     SSPCON2         equ	145	;# 
   585     0092                     PR2             equ	146	;# 
   586     0093                     SSPADD          equ	147	;# 
   587     0094                     SSPSTAT         equ	148	;# 
   588     0098                     TXSTA           equ	152	;# 
   589     0099                     SPBRG           equ	153	;# 
   590     009C                     CMCON           equ	156	;# 
   591     009D                     CVRCON          equ	157	;# 
   592     009E                     ADRESL          equ	158	;# 
   593     009F                     ADCON1          equ	159	;# 
   594     010C                     EEDATA          equ	268	;# 
   595     010D                     EEADR           equ	269	;# 
   596     010E                     EEDATH          equ	270	;# 
   597     010F                     EEADRH          equ	271	;# 
   598     018C                     EECON1          equ	396	;# 
   599     018D                     EECON2          equ	397	;# 
   600     0000                     INDF            equ	0	;# 
   601     0001                     TMR0            equ	1	;# 
   602     0002                     PCL             equ	2	;# 
   603     0003                     STATUS          equ	3	;# 
   604     0004                     FSR             equ	4	;# 
   605     0005                     PORTA           equ	5	;# 
   606     0006                     PORTB           equ	6	;# 
   607     0007                     PORTC           equ	7	;# 
   608     0008                     PORTD           equ	8	;# 
   609     0009                     PORTE           equ	9	;# 
   610     000A                     PCLATH          equ	10	;# 
   611     000B                     INTCON          equ	11	;# 
   612     000C                     PIR1            equ	12	;# 
   613     000D                     PIR2            equ	13	;# 
   614     000E                     TMR1            equ	14	;# 
   615     000E                     TMR1L           equ	14	;# 
   616     000F                     TMR1H           equ	15	;# 
   617     0010                     T1CON           equ	16	;# 
   618     0011                     TMR2            equ	17	;# 
   619     0012                     T2CON           equ	18	;# 
   620     0013                     SSPBUF          equ	19	;# 
   621     0014                     SSPCON          equ	20	;# 
   622     0015                     CCPR1           equ	21	;# 
   623     0015                     CCPR1L          equ	21	;# 
   624     0016                     CCPR1H          equ	22	;# 
   625     0017                     CCP1CON         equ	23	;# 
   626     0018                     RCSTA           equ	24	;# 
   627     0019                     TXREG           equ	25	;# 
   628     001A                     RCREG           equ	26	;# 
   629     001B                     CCPR2           equ	27	;# 
   630     001B                     CCPR2L          equ	27	;# 
   631     001C                     CCPR2H          equ	28	;# 
   632     001D                     CCP2CON         equ	29	;# 
   633     001E                     ADRESH          equ	30	;# 
   634     001F                     ADCON0          equ	31	;# 
   635     0081                     OPTION_REG      equ	129	;# 
   636     0085                     TRISA           equ	133	;# 
   637     0086                     TRISB           equ	134	;# 
   638     0087                     TRISC           equ	135	;# 
   639     0088                     TRISD           equ	136	;# 
   640     0089                     TRISE           equ	137	;# 
   641     008C                     PIE1            equ	140	;# 
   642     008D                     PIE2            equ	141	;# 
   643     008E                     PCON            equ	142	;# 
   644     0091                     SSPCON2         equ	145	;# 
   645     0092                     PR2             equ	146	;# 
   646     0093                     SSPADD          equ	147	;# 
   647     0094                     SSPSTAT         equ	148	;# 
   648     0098                     TXSTA           equ	152	;# 
   649     0099                     SPBRG           equ	153	;# 
   650     009C                     CMCON           equ	156	;# 
   651     009D                     CVRCON          equ	157	;# 
   652     009E                     ADRESL          equ	158	;# 
   653     009F                     ADCON1          equ	159	;# 
   654     010C                     EEDATA          equ	268	;# 
   655     010D                     EEADR           equ	269	;# 
   656     010E                     EEDATH          equ	270	;# 
   657     010F                     EEADRH          equ	271	;# 
   658     018C                     EECON1          equ	396	;# 
   659     018D                     EECON2          equ	397	;# 
   660     0000                     INDF            equ	0	;# 
   661     0001                     TMR0            equ	1	;# 
   662     0002                     PCL             equ	2	;# 
   663     0003                     STATUS          equ	3	;# 
   664     0004                     FSR             equ	4	;# 
   665     0005                     PORTA           equ	5	;# 
   666     0006                     PORTB           equ	6	;# 
   667     0007                     PORTC           equ	7	;# 
   668     0008                     PORTD           equ	8	;# 
   669     0009                     PORTE           equ	9	;# 
   670     000A                     PCLATH          equ	10	;# 
   671     000B                     INTCON          equ	11	;# 
   672     000C                     PIR1            equ	12	;# 
   673     000D                     PIR2            equ	13	;# 
   674     000E                     TMR1            equ	14	;# 
   675     000E                     TMR1L           equ	14	;# 
   676     000F                     TMR1H           equ	15	;# 
   677     0010                     T1CON           equ	16	;# 
   678     0011                     TMR2            equ	17	;# 
   679     0012                     T2CON           equ	18	;# 
   680     0013                     SSPBUF          equ	19	;# 
   681     0014                     SSPCON          equ	20	;# 
   682     0015                     CCPR1           equ	21	;# 
   683     0015                     CCPR1L          equ	21	;# 
   684     0016                     CCPR1H          equ	22	;# 
   685     0017                     CCP1CON         equ	23	;# 
   686     0018                     RCSTA           equ	24	;# 
   687     0019                     TXREG           equ	25	;# 
   688     001A                     RCREG           equ	26	;# 
   689     001B                     CCPR2           equ	27	;# 
   690     001B                     CCPR2L          equ	27	;# 
   691     001C                     CCPR2H          equ	28	;# 
   692     001D                     CCP2CON         equ	29	;# 
   693     001E                     ADRESH          equ	30	;# 
   694     001F                     ADCON0          equ	31	;# 
   695     0081                     OPTION_REG      equ	129	;# 
   696     0085                     TRISA           equ	133	;# 
   697     0086                     TRISB           equ	134	;# 
   698     0087                     TRISC           equ	135	;# 
   699     0088                     TRISD           equ	136	;# 
   700     0089                     TRISE           equ	137	;# 
   701     008C                     PIE1            equ	140	;# 
   702     008D                     PIE2            equ	141	;# 
   703     008E                     PCON            equ	142	;# 
   704     0091                     SSPCON2         equ	145	;# 
   705     0092                     PR2             equ	146	;# 
   706     0093                     SSPADD          equ	147	;# 
   707     0094                     SSPSTAT         equ	148	;# 
   708     0098                     TXSTA           equ	152	;# 
   709     0099                     SPBRG           equ	153	;# 
   710     009C                     CMCON           equ	156	;# 
   711     009D                     CVRCON          equ	157	;# 
   712     009E                     ADRESL          equ	158	;# 
   713     009F                     ADCON1          equ	159	;# 
   714     010C                     EEDATA          equ	268	;# 
   715     010D                     EEADR           equ	269	;# 
   716     010E                     EEDATH          equ	270	;# 
   717     010F                     EEADRH          equ	271	;# 
   718     018C                     EECON1          equ	396	;# 
   719     018D                     EECON2          equ	397	;# 
   720     0000                     INDF            equ	0	;# 
   721     0001                     TMR0            equ	1	;# 
   722     0002                     PCL             equ	2	;# 
   723     0003                     STATUS          equ	3	;# 
   724     0004                     FSR             equ	4	;# 
   725     0005                     PORTA           equ	5	;# 
   726     0006                     PORTB           equ	6	;# 
   727     0007                     PORTC           equ	7	;# 
   728     0008                     PORTD           equ	8	;# 
   729     0009                     PORTE           equ	9	;# 
   730     000A                     PCLATH          equ	10	;# 
   731     000B                     INTCON          equ	11	;# 
   732     000C                     PIR1            equ	12	;# 
   733     000D                     PIR2            equ	13	;# 
   734     000E                     TMR1            equ	14	;# 
   735     000E                     TMR1L           equ	14	;# 
   736     000F                     TMR1H           equ	15	;# 
   737     0010                     T1CON           equ	16	;# 
   738     0011                     TMR2            equ	17	;# 
   739     0012                     T2CON           equ	18	;# 
   740     0013                     SSPBUF          equ	19	;# 
   741     0014                     SSPCON          equ	20	;# 
   742     0015                     CCPR1           equ	21	;# 
   743     0015                     CCPR1L          equ	21	;# 
   744     0016                     CCPR1H          equ	22	;# 
   745     0017                     CCP1CON         equ	23	;# 
   746     0018                     RCSTA           equ	24	;# 
   747     0019                     TXREG           equ	25	;# 
   748     001A                     RCREG           equ	26	;# 
   749     001B                     CCPR2           equ	27	;# 
   750     001B                     CCPR2L          equ	27	;# 
   751     001C                     CCPR2H          equ	28	;# 
   752     001D                     CCP2CON         equ	29	;# 
   753     001E                     ADRESH          equ	30	;# 
   754     001F                     ADCON0          equ	31	;# 
   755     0081                     OPTION_REG      equ	129	;# 
   756     0085                     TRISA           equ	133	;# 
   757     0086                     TRISB           equ	134	;# 
   758     0087                     TRISC           equ	135	;# 
   759     0088                     TRISD           equ	136	;# 
   760     0089                     TRISE           equ	137	;# 
   761     008C                     PIE1            equ	140	;# 
   762     008D                     PIE2            equ	141	;# 
   763     008E                     PCON            equ	142	;# 
   764     0091                     SSPCON2         equ	145	;# 
   765     0092                     PR2             equ	146	;# 
   766     0093                     SSPADD          equ	147	;# 
   767     0094                     SSPSTAT         equ	148	;# 
   768     0098                     TXSTA           equ	152	;# 
   769     0099                     SPBRG           equ	153	;# 
   770     009C                     CMCON           equ	156	;# 
   771     009D                     CVRCON          equ	157	;# 
   772     009E                     ADRESL          equ	158	;# 
   773     009F                     ADCON1          equ	159	;# 
   774     010C                     EEDATA          equ	268	;# 
   775     010D                     EEADR           equ	269	;# 
   776     010E                     EEDATH          equ	270	;# 
   777     010F                     EEADRH          equ	271	;# 
   778     018C                     EECON1          equ	396	;# 
   779     018D                     EECON2          equ	397	;# 
   780     0000                     INDF            equ	0	;# 
   781     0001                     TMR0            equ	1	;# 
   782     0002                     PCL             equ	2	;# 
   783     0003                     STATUS          equ	3	;# 
   784     0004                     FSR             equ	4	;# 
   785     0005                     PORTA           equ	5	;# 
   786     0006                     PORTB           equ	6	;# 
   787     0007                     PORTC           equ	7	;# 
   788     0008                     PORTD           equ	8	;# 
   789     0009                     PORTE           equ	9	;# 
   790     000A                     PCLATH          equ	10	;# 
   791     000B                     INTCON          equ	11	;# 
   792     000C                     PIR1            equ	12	;# 
   793     000D                     PIR2            equ	13	;# 
   794     000E                     TMR1            equ	14	;# 
   795     000E                     TMR1L           equ	14	;# 
   796     000F                     TMR1H           equ	15	;# 
   797     0010                     T1CON           equ	16	;# 
   798     0011                     TMR2            equ	17	;# 
   799     0012                     T2CON           equ	18	;# 
   800     0013                     SSPBUF          equ	19	;# 
   801     0014                     SSPCON          equ	20	;# 
   802     0015                     CCPR1           equ	21	;# 
   803     0015                     CCPR1L          equ	21	;# 
   804     0016                     CCPR1H          equ	22	;# 
   805     0017                     CCP1CON         equ	23	;# 
   806     0018                     RCSTA           equ	24	;# 
   807     0019                     TXREG           equ	25	;# 
   808     001A                     RCREG           equ	26	;# 
   809     001B                     CCPR2           equ	27	;# 
   810     001B                     CCPR2L          equ	27	;# 
   811     001C                     CCPR2H          equ	28	;# 
   812     001D                     CCP2CON         equ	29	;# 
   813     001E                     ADRESH          equ	30	;# 
   814     001F                     ADCON0          equ	31	;# 
   815     0081                     OPTION_REG      equ	129	;# 
   816     0085                     TRISA           equ	133	;# 
   817     0086                     TRISB           equ	134	;# 
   818     0087                     TRISC           equ	135	;# 
   819     0088                     TRISD           equ	136	;# 
   820     0089                     TRISE           equ	137	;# 
   821     008C                     PIE1            equ	140	;# 
   822     008D                     PIE2            equ	141	;# 
   823     008E                     PCON            equ	142	;# 
   824     0091                     SSPCON2         equ	145	;# 
   825     0092                     PR2             equ	146	;# 
   826     0093                     SSPADD          equ	147	;# 
   827     0094                     SSPSTAT         equ	148	;# 
   828     0098                     TXSTA           equ	152	;# 
   829     0099                     SPBRG           equ	153	;# 
   830     009C                     CMCON           equ	156	;# 
   831     009D                     CVRCON          equ	157	;# 
   832     009E                     ADRESL          equ	158	;# 
   833     009F                     ADCON1          equ	159	;# 
   834     010C                     EEDATA          equ	268	;# 
   835     010D                     EEADR           equ	269	;# 
   836     010E                     EEDATH          equ	270	;# 
   837     010F                     EEADRH          equ	271	;# 
   838     018C                     EECON1          equ	396	;# 
   839     018D                     EECON2          equ	397	;# 
   840                           
   841                           	psect	idataBANK0
   842     0801                     __pidataBANK0:
   843                           
   844                           ;initializer for _pos
   845     0801  34FF               	retlw	255
   846     0802  34FF               	retlw	255
   847                           
   848                           	psect	idataBANK1
   849     1D67                     __pidataBANK1:
   850                           
   851                           ;initializer for _menu
   852     1D67  3431               	retlw	low (STR_15| (0+32768))
   853     1D68  3491               	retlw	high (STR_15| (0+32768))
   854     1D69  340C               	retlw	low (STR_16| (0+32768))
   855     1D6A  3491               	retlw	high (STR_16| (0+32768))
   856     1D6B  34E8               	retlw	low (STR_17| (0+32768))
   857     1D6C  3490               	retlw	high (STR_17| (0+32768))
   858     1D6D  3428               	retlw	low (STR_18| (0+32768))
   859     1D6E  3491               	retlw	high (STR_18| (0+32768))
   860     1D6F  34A4               	retlw	low (STR_19| (0+32768))
   861     1D70  3490               	retlw	high (STR_19| (0+32768))
   862                           
   863                           ;initializer for main@F1254
   864     1D71  344F               	retlw	79
   865     1D72  344E               	retlw	78
   866     1D73  3400               	retlw	0
   867                           
   868                           ;initializer for read_digital_keypad@once
   869     1D74  3401               	retlw	1
   870                           
   871                           	psect	idataBANK3
   872     1D41                     __pidataBANK3:
   873                           
   874                           ;initializer for main@F1256
   875     1D41  3462               	retlw	low (STR_1| (0+32768))
   876     1D42  3491               	retlw	high (STR_1| (0+32768))
   877     1D43  345C               	retlw	low (STR_2| (0+32768))
   878     1D44  3491               	retlw	high (STR_2| (0+32768))
   879     1D45  3447               	retlw	low (STR_3| (0+32768))
   880     1D46  3491               	retlw	high (STR_3| (0+32768))
   881     1D47  344A               	retlw	low (STR_4| (0+32768))
   882     1D48  3491               	retlw	high (STR_4| (0+32768))
   883     1D49  344D               	retlw	low (STR_5| (0+32768))
   884     1D4A  3491               	retlw	high (STR_5| (0+32768))
   885     1D4B  3450               	retlw	low (STR_6| (0+32768))
   886     1D4C  3491               	retlw	high (STR_6| (0+32768))
   887     0019                     _TXREG          set	25
   888     001A                     _RCREG          set	26
   889     001E                     _ADRESH         set	30
   890     0006                     _PORTB          set	6
   891     0013                     _SSPBUF         set	19
   892     0008                     _PORTD          set	8
   893     0064                     _TXIF           set	100
   894     0065                     _RCIF           set	101
   895     00C4                     _CREN           set	196
   896     00C7                     _SPEN           set	199
   897     0091                     _T2CKPS1        set	145
   898     0090                     _T2CKPS0        set	144
   899     0061                     _TMR2IF         set	97
   900     00FA                     _nDONE          set	250
   901     00FA                     _GO             set	250
   902     00F8                     _ADON           set	248
   903     0092                     _TMR2ON         set	146
   904     005F                     _GIE            set	95
   905     005E                     _PEIE           set	94
   906     00A5                     _SSPEN          set	165
   907     00A3                     _SSPM3          set	163
   908     0049                     _RE1            set	73
   909     004A                     _RE2            set	74
   910     0099                     _SPBRG          set	153
   911     0092                     _PR2            set	146
   912     009E                     _ADRESL         set	158
   913     0086                     _TRISB          set	134
   914     0091                     _SSPCON2        set	145
   915     0093                     _SSPADD         set	147
   916     0088                     _TRISD          set	136
   917     0461                     _TMR2IE         set	1121
   918     04FF                     _ADFM           set	1279
   919     048E                     _ACKSTAT        set	1166
   920     048C                     _ACKEN          set	1164
   921     048D                     _ACKDT          set	1165
   922     048B                     _RCEN           set	1163
   923     048A                     _PEN            set	1162
   924     0488                     _SEN            set	1160
   925     04A2                     _R_nW           set	1186
   926     0449                     _TRISE1         set	1097
   927     044A                     _TRISE2         set	1098
   928                           
   929                           	psect	strings
   930     1800                     __pstrings:
   931     1800                     stringtab:
   932     1800                     __stringtab:
   933                           
   934                           ;	String table - string pointers are 2 bytes each
   935     1800  1BFF               	btfsc	btemp+1,7
   936     1801  280A               	ljmp	stringcode
   937     1802  1383               	bcf	3,7
   938     1803  187F               	btfsc	btemp+1,0
   939     1804  1783               	bsf	3,7
   940     1805  0800               	movf	0,w
   941     1806  0A84               	incf	4,f
   942     1807  1903               	skipnz
   943     1808  0AFF               	incf	btemp+1,f
   944     1809  0008               	return
   945     180A                     stringcode:
   946     180A  087F               	movf	btemp+1,w
   947     180B  397F               	andlw	127
   948     180C  008A               	movwf	10
   949     180D  0804               	movf	4,w
   950     180E  0A84               	incf	4,f
   951     180F  1903               	skipnz
   952     1810  0AFF               	incf	btemp+1,f
   953     1811  0082               	movwf	2
   954     1812                     __stringbase:
   955     1812                     __end_of__stringtab:
   956                           
   957                           	psect	stringtext
   958     1000                     __pstringtext:
   959     1000                     STR_36:
   960     1000  3450               	retlw	80	;'P'
   961     1001  3461               	retlw	97	;'a'
   962     1002  3473               	retlw	115	;'s'
   963     1003  3473               	retlw	115	;'s'
   964     1004  3477               	retlw	119	;'w'
   965     1005  346F               	retlw	111	;'o'
   966     1006  3472               	retlw	114	;'r'
   967     1007  3464               	retlw	100	;'d'
   968     1008  3420               	retlw	32	;' '
   969     1009  344D               	retlw	77	;'M'
   970     100A  3469               	retlw	105	;'i'
   971     100B  3473               	retlw	115	;'s'
   972     100C  346D               	retlw	109	;'m'
   973     100D  3461               	retlw	97	;'a'
   974     100E  3474               	retlw	116	;'t'
   975     100F  3463               	retlw	99	;'c'
   976     1010  3468               	retlw	104	;'h'
   977     1011  3400               	retlw	0
   978     1012                     STR_31:
   979     1012  3423               	retlw	35	;'#'
   980     1013  3420               	retlw	32	;' '
   981     1014  3454               	retlw	84	;'T'
   982     1015  3449               	retlw	73	;'I'
   983     1016  344D               	retlw	77	;'M'
   984     1017  3445               	retlw	69	;'E'
   985     1018  3420               	retlw	32	;' '
   986     1019  3420               	retlw	32	;' '
   987     101A  3420               	retlw	32	;' '
   988     101B  3420               	retlw	32	;' '
   989     101C  3420               	retlw	32	;' '
   990     101D  3445               	retlw	69	;'E'
   991     101E  3420               	retlw	32	;' '
   992     101F  3420               	retlw	32	;' '
   993     1020  3453               	retlw	83	;'S'
   994     1021  3450               	retlw	80	;'P'
   995     1022  3400               	retlw	0
   996     1023                     STR_34:
   997     1023  3450               	retlw	80	;'P'
   998     1024  3461               	retlw	97	;'a'
   999     1025  3473               	retlw	115	;'s'
  1000     1026  3473               	retlw	115	;'s'
  1001     1027  3477               	retlw	119	;'w'
  1002     1028  346F               	retlw	111	;'o'
  1003     1029  3472               	retlw	114	;'r'
  1004     102A  3464               	retlw	100	;'d'
  1005     102B  3420               	retlw	32	;' '
  1006     102C  3443               	retlw	67	;'C'
  1007     102D  3468               	retlw	104	;'h'
  1008     102E  3461               	retlw	97	;'a'
  1009     102F  346E               	retlw	110	;'n'
  1010     1030  3467               	retlw	103	;'g'
  1011     1031  3465               	retlw	101	;'e'
  1012     1032  3464               	retlw	100	;'d'
  1013     1033  3400               	retlw	0
  1014     1034                     STR_32:
  1015     1034  3445               	retlw	69	;'E'
  1016     1035  346E               	retlw	110	;'n'
  1017     1036  3474               	retlw	116	;'t'
  1018     1037  3465               	retlw	101	;'e'
  1019     1038  3472               	retlw	114	;'r'
  1020     1039  3420               	retlw	32	;' '
  1021     103A  346E               	retlw	110	;'n'
  1022     103B  3465               	retlw	101	;'e'
  1023     103C  3477               	retlw	119	;'w'
  1024     103D  3420               	retlw	32	;' '
  1025     103E  3450               	retlw	80	;'P'
  1026     103F  3461               	retlw	97	;'a'
  1027     1040  3473               	retlw	115	;'s'
  1028     1041  3473               	retlw	115	;'s'
  1029     1042  3477               	retlw	119	;'w'
  1030     1043  3464               	retlw	100	;'d'
  1031     1044  3400               	retlw	0
  1032     1045                     STR_33:
  1033     1045  3452               	retlw	82	;'R'
  1034     1046  3465               	retlw	101	;'e'
  1035     1047  3420               	retlw	32	;' '
  1036     1048  3445               	retlw	69	;'E'
  1037     1049  346E               	retlw	110	;'n'
  1038     104A  3474               	retlw	116	;'t'
  1039     104B  3465               	retlw	101	;'e'
  1040     104C  3472               	retlw	114	;'r'
  1041     104D  3420               	retlw	32	;' '
  1042     104E  346E               	retlw	110	;'n'
  1043     104F  3465               	retlw	101	;'e'
  1044     1050  3477               	retlw	119	;'w'
  1045     1051  3420               	retlw	32	;' '
  1046     1052  3450               	retlw	80	;'P'
  1047     1053  3461               	retlw	97	;'a'
  1048     1054  3473               	retlw	115	;'s'
  1049     1055  3400               	retlw	0
  1050     1056                     STR_29:
  1051     1056  3454               	retlw	84	;'T'
  1052     1057  3469               	retlw	105	;'i'
  1053     1058  346D               	retlw	109	;'m'
  1054     1059  3465               	retlw	101	;'e'
  1055     105A  3420               	retlw	32	;' '
  1056     105B  3428               	retlw	40	;'('
  1057     105C  3448               	retlw	72	;'H'
  1058     105D  3448               	retlw	72	;'H'
  1059     105E  343A               	retlw	58	;':'
  1060     105F  344D               	retlw	77	;'M'
  1061     1060  344D               	retlw	77	;'M'
  1062     1061  343A               	retlw	58	;':'
  1063     1062  3453               	retlw	83	;'S'
  1064     1063  3453               	retlw	83	;'S'
  1065     1064  3429               	retlw	41	;')'
  1066     1065  3400               	retlw	0
  1067     1066                     STR_38:
  1068     1066  3459               	retlw	89	;'Y'
  1069     1067  346F               	retlw	111	;'o'
  1070     1068  3475               	retlw	117	;'u'
  1071     1069  3420               	retlw	32	;' '
  1072     106A  3461               	retlw	97	;'a'
  1073     106B  3472               	retlw	114	;'r'
  1074     106C  3465               	retlw	101	;'e'
  1075     106D  3420               	retlw	32	;' '
  1076     106E  3462               	retlw	98	;'b'
  1077     106F  346C               	retlw	108	;'l'
  1078     1070  346F               	retlw	111	;'o'
  1079     1071  3463               	retlw	99	;'c'
  1080     1072  346B               	retlw	107	;'k'
  1081     1073  3465               	retlw	101	;'e'
  1082     1074  3464               	retlw	100	;'d'
  1083     1075  3400               	retlw	0
  1084     1076                     STR_30:
  1085     1076  344E               	retlw	78	;'N'
  1086     1077  346F               	retlw	111	;'o'
  1087     1078  3420               	retlw	32	;' '
  1088     1079  344C               	retlw	76	;'L'
  1089     107A  346F               	retlw	111	;'o'
  1090     107B  3467               	retlw	103	;'g'
  1091     107C  3473               	retlw	115	;'s'
  1092     107D  3420               	retlw	32	;' '
  1093     107E  3470               	retlw	112	;'p'
  1094     107F  3472               	retlw	114	;'r'
  1095     1080  3465               	retlw	101	;'e'
  1096     1081  3473               	retlw	115	;'s'
  1097     1082  3465               	retlw	101	;'e'
  1098     1083  346E               	retlw	110	;'n'
  1099     1084  3474               	retlw	116	;'t'
  1100     1085  3400               	retlw	0
  1101     1086                     STR_41:
  1102     1086  3457               	retlw	87	;'W'
  1103     1087  3472               	retlw	114	;'r'
  1104     1088  346F               	retlw	111	;'o'
  1105     1089  346E               	retlw	110	;'n'
  1106     108A  3467               	retlw	103	;'g'
  1107     108B  3420               	retlw	32	;' '
  1108     108C  3450               	retlw	80	;'P'
  1109     108D  3461               	retlw	97	;'a'
  1110     108E  3473               	retlw	115	;'s'
  1111     108F  3473               	retlw	115	;'s'
  1112     1090  3477               	retlw	119	;'w'
  1113     1091  346F               	retlw	111	;'o'
  1114     1092  3472               	retlw	114	;'r'
  1115     1093  3464               	retlw	100	;'d'
  1116     1094  3400               	retlw	0
  1117     1095                     STR_9:
  1118     1095  3445               	retlw	69	;'E'
  1119     1096  346E               	retlw	110	;'n'
  1120     1097  3474               	retlw	116	;'t'
  1121     1098  3465               	retlw	101	;'e'
  1122     1099  3472               	retlw	114	;'r'
  1123     109A  3420               	retlw	32	;' '
  1124     109B  3450               	retlw	80	;'P'
  1125     109C  3461               	retlw	97	;'a'
  1126     109D  3473               	retlw	115	;'s'
  1127     109E  3473               	retlw	115	;'s'
  1128     109F  3477               	retlw	119	;'w'
  1129     10A0  346F               	retlw	111	;'o'
  1130     10A1  3472               	retlw	114	;'r'
  1131     10A2  3464               	retlw	100	;'d'
  1132     10A3  3400               	retlw	0
  1133     10A4                     STR_19:
  1134     10A4  3443               	retlw	67	;'C'
  1135     10A5  3468               	retlw	104	;'h'
  1136     10A6  3461               	retlw	97	;'a'
  1137     10A7  346E               	retlw	110	;'n'
  1138     10A8  3467               	retlw	103	;'g'
  1139     10A9  3465               	retlw	101	;'e'
  1140     10AA  3420               	retlw	32	;' '
  1141     10AB  3470               	retlw	112	;'p'
  1142     10AC  3461               	retlw	97	;'a'
  1143     10AD  3473               	retlw	115	;'s'
  1144     10AE  3473               	retlw	115	;'s'
  1145     10AF  3477               	retlw	119	;'w'
  1146     10B0  3464               	retlw	100	;'d'
  1147     10B1  3400               	retlw	0
  1148     10B2                     STR_37:
  1149     10B2  344C               	retlw	76	;'L'
  1150     10B3  346F               	retlw	111	;'o'
  1151     10B4  3467               	retlw	103	;'g'
  1152     10B5  3469               	retlw	105	;'i'
  1153     10B6  346E               	retlw	110	;'n'
  1154     10B7  3420               	retlw	32	;' '
  1155     10B8  3453               	retlw	83	;'S'
  1156     10B9  3475               	retlw	117	;'u'
  1157     10BA  3463               	retlw	99	;'c'
  1158     10BB  3463               	retlw	99	;'c'
  1159     10BC  3465               	retlw	101	;'e'
  1160     10BD  3473               	retlw	115	;'s'
  1161     10BE  3473               	retlw	115	;'s'
  1162     10BF  3400               	retlw	0
  1163     10C0                     STR_42:
  1164     10C0  3441               	retlw	65	;'A'
  1165     10C1  3474               	retlw	116	;'t'
  1166     10C2  3474               	retlw	116	;'t'
  1167     10C3  3465               	retlw	101	;'e'
  1168     10C4  346D               	retlw	109	;'m'
  1169     10C5  3470               	retlw	112	;'p'
  1170     10C6  3474               	retlw	116	;'t'
  1171     10C7  3473               	retlw	115	;'s'
  1172     10C8  3420               	retlw	32	;' '
  1173     10C9  346C               	retlw	108	;'l'
  1174     10CA  3465               	retlw	101	;'e'
  1175     10CB  3466               	retlw	102	;'f'
  1176     10CC  3474               	retlw	116	;'t'
  1177     10CD  3400               	retlw	0
  1178     10CE                     STR_25:
  1179     10CE  3454               	retlw	84	;'T'
  1180     10CF  3469               	retlw	105	;'i'
  1181     10D0  346D               	retlw	109	;'m'
  1182     10D1  3465               	retlw	101	;'e'
  1183     10D2  3420               	retlw	32	;' '
  1184     10D3  3443               	retlw	67	;'C'
  1185     10D4  3468               	retlw	104	;'h'
  1186     10D5  3461               	retlw	97	;'a'
  1187     10D6  346E               	retlw	110	;'n'
  1188     10D7  3467               	retlw	103	;'g'
  1189     10D8  3465               	retlw	101	;'e'
  1190     10D9  3464               	retlw	100	;'d'
  1191     10DA  3400               	retlw	0
  1192     10DB                     STR_23:
  1193     10DB  344C               	retlw	76	;'L'
  1194     10DC  346F               	retlw	111	;'o'
  1195     10DD  3467               	retlw	103	;'g'
  1196     10DE  3473               	retlw	115	;'s'
  1197     10DF  3420               	retlw	32	;' '
  1198     10E0  3443               	retlw	67	;'C'
  1199     10E1  346C               	retlw	108	;'l'
  1200     10E2  3465               	retlw	101	;'e'
  1201     10E3  3461               	retlw	97	;'a'
  1202     10E4  3472               	retlw	114	;'r'
  1203     10E5  3465               	retlw	101	;'e'
  1204     10E6  3464               	retlw	100	;'d'
  1205     10E7  3400               	retlw	0
  1206     10E8                     STR_17:
  1207     10E8  3444               	retlw	68	;'D'
  1208     10E9  346F               	retlw	111	;'o'
  1209     10EA  3477               	retlw	119	;'w'
  1210     10EB  346E               	retlw	110	;'n'
  1211     10EC  346C               	retlw	108	;'l'
  1212     10ED  346F               	retlw	111	;'o'
  1213     10EE  3461               	retlw	97	;'a'
  1214     10EF  3464               	retlw	100	;'d'
  1215     10F0  3420               	retlw	32	;' '
  1216     10F1  344C               	retlw	76	;'L'
  1217     10F2  346F               	retlw	111	;'o'
  1218     10F3  3467               	retlw	103	;'g'
  1219     10F4  3400               	retlw	0
  1220     10F5                     STR_24:
  1221     10F5  3453               	retlw	83	;'S'
  1222     10F6  3475               	retlw	117	;'u'
  1223     10F7  3463               	retlw	99	;'c'
  1224     10F8  3463               	retlw	99	;'c'
  1225     10F9  3465               	retlw	101	;'e'
  1226     10FA  3473               	retlw	115	;'s'
  1227     10FB  3473               	retlw	115	;'s'
  1228     10FC  3466               	retlw	102	;'f'
  1229     10FD  3475               	retlw	117	;'u'
  1230     10FE  346C               	retlw	108	;'l'
  1231     10FF  346C               	retlw	108	;'l'
  1232     1100  3479               	retlw	121	;'y'
  1233     1101  3400               	retlw	0
  1234     1102                     STR_39:
  1235     1102  3477               	retlw	119	;'w'
  1236     1103  3461               	retlw	97	;'a'
  1237     1104  3469               	retlw	105	;'i'
  1238     1105  3474               	retlw	116	;'t'
  1239     1106  3420               	retlw	32	;' '
  1240     1107  3466               	retlw	102	;'f'
  1241     1108  346F               	retlw	111	;'o'
  1242     1109  3472               	retlw	114	;'r'
  1243     110A  3420               	retlw	32	;' '
  1244     110B  3400               	retlw	0
  1245     110C                     STR_16:
  1246     110C  3443               	retlw	67	;'C'
  1247     110D  346C               	retlw	108	;'l'
  1248     110E  3465               	retlw	101	;'e'
  1249     110F  3461               	retlw	97	;'a'
  1250     1110  3472               	retlw	114	;'r'
  1251     1111  3420               	retlw	32	;' '
  1252     1112  344C               	retlw	76	;'L'
  1253     1113  346F               	retlw	111	;'o'
  1254     1114  3467               	retlw	103	;'g'
  1255     1115  3400               	retlw	0
  1256     1116                     STR_21:
  1257     1116  344C               	retlw	76	;'L'
  1258     1117  346F               	retlw	111	;'o'
  1259     1118  3467               	retlw	103	;'g'
  1260     1119  3473               	retlw	115	;'s'
  1261     111A  3420               	retlw	32	;' '
  1262     111B  343A               	retlw	58	;':'
  1263     111C  3420               	retlw	32	;' '
  1264     111D  340A               	retlw	10
  1265     111E  3400               	retlw	0
  1266     111F                     STR_22:
  1267     111F  344E               	retlw	78	;'N'
  1268     1120  346F               	retlw	111	;'o'
  1269     1121  3420               	retlw	32	;' '
  1270     1122  344C               	retlw	76	;'L'
  1271     1123  346F               	retlw	111	;'o'
  1272     1124  3467               	retlw	103	;'g'
  1273     1125  3473               	retlw	115	;'s'
  1274     1126  342E               	retlw	46	;'.'
  1275     1127  3400               	retlw	0
  1276     1128                     STR_18:
  1277     1128  3453               	retlw	83	;'S'
  1278     1129  3465               	retlw	101	;'e'
  1279     112A  3474               	retlw	116	;'t'
  1280     112B  3420               	retlw	32	;' '
  1281     112C  3454               	retlw	84	;'T'
  1282     112D  3469               	retlw	105	;'i'
  1283     112E  346D               	retlw	109	;'m'
  1284     112F  3465               	retlw	101	;'e'
  1285     1130  3400               	retlw	0
  1286     1131                     STR_15:
  1287     1131  3456               	retlw	86	;'V'
  1288     1132  3469               	retlw	105	;'i'
  1289     1133  3465               	retlw	101	;'e'
  1290     1134  3477               	retlw	119	;'w'
  1291     1135  3420               	retlw	32	;' '
  1292     1136  344C               	retlw	76	;'L'
  1293     1137  346F               	retlw	111	;'o'
  1294     1138  3467               	retlw	103	;'g'
  1295     1139  3400               	retlw	0
  1296     113A                     STR_40:
  1297     113A  3473               	retlw	115	;'s'
  1298     113B  3465               	retlw	101	;'e'
  1299     113C  3463               	retlw	99	;'c'
  1300     113D  3473               	retlw	115	;'s'
  1301     113E  3400               	retlw	0
  1302     113F                     STR_7:
  1303     113F  3431               	retlw	49	;'1'
  1304     1140  3430               	retlw	48	;'0'
  1305     1141  3431               	retlw	49	;'1'
  1306     1142  3430               	retlw	48	;'0'
  1307     1143  3400               	retlw	0
  1308     1144                     STR_8:
  1309     1144  3443               	retlw	67	;'C'
  1310     1145  3420               	retlw	32	;' '
  1311     1146  3400               	retlw	0
  1312     1147                     STR_3:
  1313     1147  3447               	retlw	71	;'G'
  1314     1148  3431               	retlw	49	;'1'
  1315     1149  3400               	retlw	0
  1316     114A                     STR_4:
  1317     114A  3447               	retlw	71	;'G'
  1318     114B  3432               	retlw	50	;'2'
  1319     114C  3400               	retlw	0
  1320     114D                     STR_5:
  1321     114D  3447               	retlw	71	;'G'
  1322     114E  3433               	retlw	51	;'3'
  1323     114F  3400               	retlw	0
  1324     1150                     STR_6:
  1325     1150  3447               	retlw	71	;'G'
  1326     1151  3434               	retlw	52	;'4'
  1327     1152  3400               	retlw	0
  1328     1153                     STR_11:
  1329     1153  3443               	retlw	67	;'C'
  1330     1154  344C               	retlw	76	;'L'
  1331     1155  3400               	retlw	0
  1332     1156                     STR_12:
  1333     1156  3444               	retlw	68	;'D'
  1334     1157  344C               	retlw	76	;'L'
  1335     1158  3400               	retlw	0
  1336     1159                     STR_10:
  1337     1159  3456               	retlw	86	;'V'
  1338     115A  344C               	retlw	76	;'L'
  1339     115B  3400               	retlw	0
  1340     115C                     STR_2:
  1341     115C  3447               	retlw	71	;'G'
  1342     115D  344E               	retlw	78	;'N'
  1343     115E  3400               	retlw	0
  1344     115F                     STR_14:
  1345     115F  3443               	retlw	67	;'C'
  1346     1160  3450               	retlw	80	;'P'
  1347     1161  3400               	retlw	0
  1348     1162                     STR_1:
  1349     1162  3447               	retlw	71	;'G'
  1350     1163  3452               	retlw	82	;'R'
  1351     1164  3400               	retlw	0
  1352     1165                     STR_13:
  1353     1165  3453               	retlw	83	;'S'
  1354     1166  3454               	retlw	84	;'T'
  1355     1167  3400               	retlw	0
  1356     10F5                     STR_26          equ	STR_24
  1357     10F5                     STR_28          equ	STR_24
  1358     10F5                     STR_35          equ	STR_24
  1359     1095                     STR_43          equ	STR_9
  1360     10CE                     STR_27          equ	STR_25
  1361     1014                     STR_20          equ	STR_31+2
  1362                           
  1363                           	psect	cinit
  1364     000F                     start_initialization:	
  1365                           ; #config settings
  1366                           
  1367     000F                     __initialization:
  1368                           
  1369                           ; Initialize objects allocated to BANK3
  1370     000F  1783               	bsf	3,7	;select IRP bank2
  1371     0010  30B4               	movlw	low (__pdataBANK3+12)
  1372     0011  00FD               	movwf	btemp+-1
  1373     0012  301D               	movlw	high __pidataBANK3
  1374     0013  00FE               	movwf	btemp
  1375     0014  3041               	movlw	low __pidataBANK3
  1376     0015  00FF               	movwf	btemp+1
  1377     0016  30A8               	movlw	low __pdataBANK3
  1378     0017  0084               	movwf	4
  1379     0018  160A  118A  2171  120A  118A  	fcall	init_ram0
  1380                           
  1381                           ; Initialize objects allocated to BANK1
  1382     001D  1383               	bcf	3,7	;select IRP bank0
  1383     001E  30E7               	movlw	low (__pdataBANK1+14)
  1384     001F  00FD               	movwf	btemp+-1
  1385     0020  301D               	movlw	high __pidataBANK1
  1386     0021  00FE               	movwf	btemp
  1387     0022  3067               	movlw	low __pidataBANK1
  1388     0023  00FF               	movwf	btemp+1
  1389     0024  30D9               	movlw	low __pdataBANK1
  1390     0025  0084               	movwf	4
  1391     0026  160A  118A  2171  120A  118A  	fcall	init_ram0
  1392                           
  1393                           ; Initialize objects allocated to BANK0
  1394     002B  120A  158A  2001  120A  118A  	fcall	__pidataBANK0	;fetch initializer
  1395     0030  00D8               	movwf	__pdataBANK0& (0+127)
  1396     0031  120A  158A  2002  120A  118A  	fcall	__pidataBANK0+1	;fetch initializer
  1397     0036  00D9               	movwf	(__pdataBANK0+1)& (0+127)
  1398                           
  1399                           ; Clear objects allocated to BANK1
  1400     0037  30A0               	movlw	low __pbssBANK1
  1401     0038  0084               	movwf	4
  1402     0039  30D9               	movlw	low (__pbssBANK1+57)
  1403     003A  160A  158A  2504  120A  118A  	fcall	clear_ram0
  1404                           
  1405                           ; Clear objects allocated to BANK0
  1406     003F  01D4               	clrf	__pbssBANK0& (0+127)
  1407     0040  01D5               	clrf	(__pbssBANK0+1)& (0+127)
  1408     0041  01D6               	clrf	(__pbssBANK0+2)& (0+127)
  1409     0042  01D7               	clrf	(__pbssBANK0+3)& (0+127)
  1410                           
  1411                           ; Clear objects allocated to COMMON
  1412     0043  01F9               	clrf	__pbssCOMMON& (0+127)
  1413     0044  01FA               	clrf	(__pbssCOMMON+1)& (0+127)
  1414     0045  01FB               	clrf	(__pbssCOMMON+2)& (0+127)
  1415     0046                     end_of_initialization:	
  1416                           ;End of C runtime variable initialization code
  1417                           
  1418     0046                     __end_of__initialization:
  1419     0046  0183               	clrf	3
  1420     0047  120A  118A  284A   	ljmp	_main	;jump to C main() function
  1421                           
  1422                           	psect	bssCOMMON
  1423     0079                     __pbssCOMMON:
  1424     0079                     view_log@index:
  1425     0079                     	ds	2
  1426     007B                     set_time@time_pos:
  1427     007B                     	ds	1
  1428                           
  1429                           	psect	bssBANK0
  1430     0054                     __pbssBANK0:
  1431     0054                     login_screen@i:
  1432     0054                     	ds	1
  1433     0055                     download_log@index1:
  1434     0055                     	ds	1
  1435     0056                     _sec:
  1436     0056                     	ds	1
  1437     0057                     _menu_pos:
  1438     0057                     	ds	1
  1439                           
  1440                           	psect	dataBANK0
  1441     0058                     __pdataBANK0:
  1442     0058                     _pos:
  1443     0058                     	ds	2
  1444                           
  1445                           	psect	bssBANK1
  1446     00A0                     __pbssBANK1:
  1447     00A0                     _clock_reg:
  1448     00A0                     	ds	3
  1449     00A3                     isr@count:
  1450     00A3                     	ds	2
  1451     00A5                     change_password@q:
  1452     00A5                     	ds	2
  1453     00A7                     change_password@p:
  1454     00A7                     	ds	2
  1455     00A9                     change_password@once:
  1456     00A9                     	ds	2
  1457     00AB                     login_screen@attempt_rem:
  1458     00AB                     	ds	1
  1459     00AC                     set_time@flag6:
  1460     00AC                     	ds	1
  1461     00AD                     set_time@flag5:
  1462     00AD                     	ds	1
  1463     00AE                     set_time@delay1:
  1464     00AE                     	ds	1
  1465     00AF                     set_time@sw_flag:
  1466     00AF                     	ds	1
  1467     00B0                     set_time@display:
  1468     00B0                     	ds	1
  1469     00B1                     set_time@delay:
  1470     00B1                     	ds	1
  1471     00B2                     set_time@hour_flag:
  1472     00B2                     	ds	1
  1473     00B3                     set_time@min_flag:
  1474     00B3                     	ds	1
  1475     00B4                     set_time@sec_flag:
  1476     00B4                     	ds	1
  1477     00B5                     download_log@once:
  1478     00B5                     	ds	1
  1479     00B6                     menu_screen@flag2:
  1480     00B6                     	ds	1
  1481     00B7                     menu_screen@flag1:
  1482     00B7                     	ds	1
  1483     00B8                     menu_screen@delay:
  1484     00B8                     	ds	1
  1485     00B9                     _long_press_delay:
  1486     00B9                     	ds	1
  1487     00BA                     _return_time:
  1488     00BA                     	ds	1
  1489     00BB                     _log:
  1490     00BB                     	ds	11
  1491     00C6                     _time:
  1492     00C6                     	ds	7
  1493     00CD                     login_screen@user_passwd:
  1494     00CD                     	ds	4
  1495     00D1                     change_password@re_passwd:
  1496     00D1                     	ds	4
  1497     00D5                     change_password@new_passwd:
  1498     00D5                     	ds	4
  1499                           
  1500                           	psect	dataBANK1
  1501     00D9                     __pdataBANK1:
  1502     00D9                     _menu:
  1503     00D9                     	ds	10
  1504     00E3                     main@F1254:
  1505     00E3                     	ds	3
  1506     00E6                     read_digital_keypad@once:
  1507     00E6                     	ds	1
  1508                           
  1509                           	psect	dataBANK3
  1510     01A8                     __pdataBANK3:
  1511     01A8                     main@F1256:
  1512     01A8                     	ds	12
  1513                           
  1514                           	psect	inittext
  1515     116D                     init_fetch0:	
  1516                           ;	Called with low address in FSR and high address in W
  1517                           
  1518     116D  087E               	movf	btemp,w
  1519     116E  008A               	movwf	10
  1520     116F  087F               	movf	btemp+1,w
  1521     1170  0082               	movwf	2
  1522     1171                     init_ram0:	
  1523                           ;Called with:
  1524                           ;	high address of idata address in btemp 
  1525                           ;	low address of idata address in btemp+1 
  1526                           ;	low address of data in FSR
  1527                           ;	high address + 1 of data in btemp-1
  1528                           
  1529     1171  160A  118A  216D  160A  118A  	fcall	init_fetch0
  1530     1176  0080               	movwf	0
  1531     1177  0A84               	incf	4,f
  1532     1178  0804               	movf	4,w
  1533     1179  067D               	xorwf	btemp+-1,w
  1534     117A  1903               	btfsc	3,2
  1535     117B  3400               	retlw	0
  1536     117C  0AFF               	incf	btemp+1,f
  1537     117D  1903               	btfsc	3,2
  1538     117E  0AFE               	incf	btemp,f
  1539     117F  2971               	goto	init_ram0
  1540                           
  1541                           	psect	clrtext
  1542     1D04                     clear_ram0:	
  1543                           ;	Called with FSR containing the base address, and
  1544                           ;	W with the last address+1
  1545                           
  1546     1D04  0064               	clrwdt	;clear the watchdog before getting into this loop
  1547     1D05                     clrloop0:
  1548     1D05  0180               	clrf	0	;clear RAM location pointed to by FSR
  1549     1D06  0A84               	incf	4,f	;increment pointer
  1550     1D07  0604               	xorwf	4,w	;XOR with final address
  1551     1D08  1903               	btfsc	3,2	;have we reached the end yet?
  1552     1D09  3400               	retlw	0	;all done for this memory range, return
  1553     1D0A  0604               	xorwf	4,w	;XOR again to restore value
  1554     1D0B  2D05               	goto	clrloop0	;do the next byte
  1555                           
  1556                           	psect	cstackBANK3
  1557     0190                     __pcstackBANK3:
  1558     0190                     main@delay:
  1559                           
  1560                           ; 1 bytes @ 0x0
  1561     0190                     	ds	1
  1562     0191                     main@gear:
  1563                           
  1564                           ; 12 bytes @ 0x1
  1565     0191                     	ds	12
  1566     019D                     main@delay_243:
  1567                           
  1568                           ; 2 bytes @ 0xD
  1569     019D                     	ds	2
  1570     019F                     main@reset_flag:
  1571                           
  1572                           ; 1 bytes @ 0xF
  1573     019F                     	ds	1
  1574     01A0                     main@key2:
  1575                           
  1576                           ; 1 bytes @ 0x10
  1577     01A0                     	ds	1
  1578     01A1                     main@event:
  1579                           
  1580                           ; 3 bytes @ 0x11
  1581     01A1                     	ds	3
  1582     01A4                     main@key:
  1583                           
  1584                           ; 1 bytes @ 0x14
  1585     01A4                     	ds	1
  1586     01A5                     main@gr:
  1587                           
  1588                           ; 1 bytes @ 0x15
  1589     01A5                     	ds	1
  1590     01A6                     main@speed:
  1591                           
  1592                           ; 1 bytes @ 0x16
  1593     01A6                     	ds	1
  1594     01A7                     main@control_flag:
  1595                           
  1596                           ; 1 bytes @ 0x17
  1597     01A7                     	ds	1
  1598                           
  1599                           	psect	cstackCOMMON
  1600     0070                     __pcstackCOMMON:
  1601     0070                     ?_read_ds1307:
  1602     0070                     ?_i2c_start:	
  1603                           ; 1 bytes @ 0x0
  1604                           
  1605     0070                     ?_i2c_rep_start:	
  1606                           ; 1 bytes @ 0x0
  1607                           
  1608     0070                     ?_i2c_read:	
  1609                           ; 1 bytes @ 0x0
  1610                           
  1611     0070                     ?_i2c_stop:	
  1612                           ; 1 bytes @ 0x0
  1613                           
  1614     0070                     ?_init_adc:	
  1615                           ; 1 bytes @ 0x0
  1616                           
  1617     0070                     ?_init_digital_keypad:	
  1618                           ; 1 bytes @ 0x0
  1619                           
  1620     0070                     ?_init_timer2:	
  1621                           ; 1 bytes @ 0x0
  1622                           
  1623     0070                     ?_read_digital_keypad:	
  1624                           ; 1 bytes @ 0x0
  1625                           
  1626     0070                     ?_clear_screen:	
  1627                           ; 1 bytes @ 0x0
  1628                           
  1629     0070                     ?_menu_screen:	
  1630                           ; 1 bytes @ 0x0
  1631                           
  1632     0070                     ?_view_log:	
  1633                           ; 1 bytes @ 0x0
  1634                           
  1635     0070                     ?_clear_log:	
  1636                           ; 1 bytes @ 0x0
  1637                           
  1638     0070                     ?_download_log:	
  1639                           ; 1 bytes @ 0x0
  1640                           
  1641     0070                     ?_set_time:	
  1642                           ; 1 bytes @ 0x0
  1643                           
  1644     0070                     ?_read_externaleeprom:	
  1645                           ; 1 bytes @ 0x0
  1646                           
  1647     0070                     ?_uart_putchar:	
  1648                           ; 1 bytes @ 0x0
  1649                           
  1650     0070                     ?_init_display_controller:	
  1651                           ; 1 bytes @ 0x0
  1652                           
  1653     0070                     ?_init_clcd:	
  1654                           ; 1 bytes @ 0x0
  1655                           
  1656     0070                     ?_init_ds1307:	
  1657                           ; 1 bytes @ 0x0
  1658                           
  1659     0070                     ?_i2c_wait_for_idle:	
  1660                           ; 1 bytes @ 0x0
  1661                           
  1662     0070                     ?_init_config:	
  1663                           ; 1 bytes @ 0x0
  1664                           
  1665     0070                     ?_main:	
  1666                           ; 1 bytes @ 0x0
  1667                           
  1668     0070                     ?_get_time:	
  1669                           ; 1 bytes @ 0x0
  1670                           
  1671     0070                     ?_display_time:	
  1672                           ; 1 bytes @ 0x0
  1673                           
  1674     0070                     ?_log_event_eeprom:	
  1675                           ; 1 bytes @ 0x0
  1676                           
  1677     0070                     ?_isr:	
  1678                           ; 1 bytes @ 0x0
  1679                           
  1680     0070                     ?_i2c_write:	
  1681                           ; 1 bytes @ 0x0
  1682                           
  1683     0070                     ??_isr:	
  1684                           ; 2 bytes @ 0x0
  1685                           
  1686                           
  1687                           ; 1 bytes @ 0x0
  1688     0070                     	ds	2
  1689     0072                     ?_strcpy:
  1690     0072                     ?_strncpy:	
  1691                           ; 1 bytes @ 0x2
  1692                           
  1693     0072                     ?_clcd_write:	
  1694                           ; 1 bytes @ 0x2
  1695                           
  1696     0072                     ?___bmul:	
  1697                           ; 1 bytes @ 0x2
  1698                           
  1699     0072                     ?_read_adc:	
  1700                           ; 1 bytes @ 0x2
  1701                           
  1702     0072                     ?_strncmp:	
  1703                           ; 2 bytes @ 0x2
  1704                           
  1705     0072                     ?___wmul:	
  1706                           ; 2 bytes @ 0x2
  1707                           
  1708     0072                     ?___awdiv:	
  1709                           ; 2 bytes @ 0x2
  1710                           
  1711     0072                     ?___awmod:	
  1712                           ; 2 bytes @ 0x2
  1713                           
  1714     0072                     clcd_write@mode:	
  1715                           ; 2 bytes @ 0x2
  1716                           
  1717     0072                     i2c_read@ack:	
  1718                           ; 1 bytes @ 0x2
  1719                           
  1720     0072                     i2c_write@data:	
  1721                           ; 1 bytes @ 0x2
  1722                           
  1723     0072                     uart_putchar@data:	
  1724                           ; 1 bytes @ 0x2
  1725                           
  1726     0072                     ___bmul@multiplicand:	
  1727                           ; 1 bytes @ 0x2
  1728                           
  1729     0072                     strcpy@dest:	
  1730                           ; 1 bytes @ 0x2
  1731                           
  1732     0072                     strncmp@l:	
  1733                           ; 1 bytes @ 0x2
  1734                           
  1735     0072                     strncpy@d:	
  1736                           ; 1 bytes @ 0x2
  1737                           
  1738     0072                     ___wmul@multiplier:	
  1739                           ; 1 bytes @ 0x2
  1740                           
  1741     0072                     ___awdiv@divisor:	
  1742                           ; 2 bytes @ 0x2
  1743                           
  1744     0072                     ___awmod@divisor:	
  1745                           ; 2 bytes @ 0x2
  1746                           
  1747     0072                     ??_i2c_start:	
  1748                           ; 2 bytes @ 0x2
  1749                           
  1750     0072                     ??_i2c_write:	
  1751                           ; 1 bytes @ 0x2
  1752                           
  1753     0072                     ??_i2c_rep_start:	
  1754                           ; 1 bytes @ 0x2
  1755                           
  1756     0072                     ??_i2c_read:	
  1757                           ; 1 bytes @ 0x2
  1758                           
  1759     0072                     ??_i2c_stop:	
  1760                           ; 1 bytes @ 0x2
  1761                           
  1762     0072                     ??_init_adc:	
  1763                           ; 1 bytes @ 0x2
  1764                           
  1765     0072                     ??_init_digital_keypad:	
  1766                           ; 1 bytes @ 0x2
  1767                           
  1768     0072                     ??_init_timer2:	
  1769                           ; 1 bytes @ 0x2
  1770                           
  1771     0072                     ??_read_digital_keypad:	
  1772                           ; 1 bytes @ 0x2
  1773                           
  1774     0072                     ??_uart_putchar:	
  1775                           ; 1 bytes @ 0x2
  1776                           
  1777     0072                     ??_i2c_wait_for_idle:	
  1778                           ; 1 bytes @ 0x2
  1779                           
  1780     0072                     ??___lldiv:	
  1781                           ; 1 bytes @ 0x2
  1782                           
  1783                           
  1784                           ; 1 bytes @ 0x2
  1785     0072                     	ds	1
  1786     0073                     ?_write_ds1307:
  1787     0073                     ?_uart_puts:	
  1788                           ; 1 bytes @ 0x3
  1789                           
  1790     0073                     ?_write_externaleeprom:	
  1791                           ; 1 bytes @ 0x3
  1792                           
  1793     0073                     write_ds1307@data:	
  1794                           ; 1 bytes @ 0x3
  1795                           
  1796     0073                     i2c_read@data:	
  1797                           ; 1 bytes @ 0x3
  1798                           
  1799     0073                     read_digital_keypad@mode:	
  1800                           ; 1 bytes @ 0x3
  1801                           
  1802     0073                     write_externaleeprom@data:	
  1803                           ; 1 bytes @ 0x3
  1804                           
  1805     0073                     ___bmul@product:	
  1806                           ; 1 bytes @ 0x3
  1807                           
  1808     0073                     strncmp@r:	
  1809                           ; 1 bytes @ 0x3
  1810                           
  1811     0073                     uart_puts@s:	
  1812                           ; 1 bytes @ 0x3
  1813                           
  1814     0073                     strcpy@src:	
  1815                           ; 2 bytes @ 0x3
  1816                           
  1817     0073                     strncpy@s:	
  1818                           ; 2 bytes @ 0x3
  1819                           
  1820     0073                     ___lldiv@quotient:	
  1821                           ; 2 bytes @ 0x3
  1822                           
  1823     0073                     ??_clcd_write:	
  1824                           ; 4 bytes @ 0x3
  1825                           
  1826     0073                     ??___bmul:	
  1827                           ; 1 bytes @ 0x3
  1828                           
  1829                           
  1830                           ; 1 bytes @ 0x3
  1831     0073                     	ds	1
  1832     0074                     read_ds1307@addr:
  1833     0074                     write_ds1307@addr:	
  1834                           ; 1 bytes @ 0x4
  1835                           
  1836     0074                     read_externaleeprom@addr:	
  1837                           ; 1 bytes @ 0x4
  1838                           
  1839     0074                     write_externaleeprom@addr:	
  1840                           ; 1 bytes @ 0x4
  1841                           
  1842     0074                     ___bmul@multiplier:	
  1843                           ; 1 bytes @ 0x4
  1844                           
  1845     0074                     read_adc@adc_reg_val:	
  1846                           ; 1 bytes @ 0x4
  1847                           
  1848     0074                     ___wmul@multiplicand:	
  1849                           ; 2 bytes @ 0x4
  1850                           
  1851     0074                     ___awdiv@dividend:	
  1852                           ; 2 bytes @ 0x4
  1853                           
  1854     0074                     ___awmod@dividend:	
  1855                           ; 2 bytes @ 0x4
  1856                           
  1857     0074                     strncmp@n:	
  1858                           ; 2 bytes @ 0x4
  1859                           
  1860     0074                     ??_read_ds1307:	
  1861                           ; 2 bytes @ 0x4
  1862                           
  1863     0074                     ??_write_ds1307:	
  1864                           ; 1 bytes @ 0x4
  1865                           
  1866     0074                     ??_read_adc:	
  1867                           ; 1 bytes @ 0x4
  1868                           
  1869     0074                     ??_read_externaleeprom:	
  1870                           ; 1 bytes @ 0x4
  1871                           
  1872     0074                     ??_write_externaleeprom:	
  1873                           ; 1 bytes @ 0x4
  1874                           
  1875                           
  1876                           ; 1 bytes @ 0x4
  1877     0074                     	ds	1
  1878     0075                     ?_str_write_externaleeprom:
  1879     0075                     clcd_write@byte:	
  1880                           ; 1 bytes @ 0x5
  1881                           
  1882     0075                     read_ds1307@data:	
  1883                           ; 1 bytes @ 0x5
  1884                           
  1885     0075                     read_externaleeprom@data:	
  1886                           ; 1 bytes @ 0x5
  1887                           
  1888     0075                     str_write_externaleeprom@data:	
  1889                           ; 1 bytes @ 0x5
  1890                           
  1891     0075                     strncpy@n:	
  1892                           ; 2 bytes @ 0x5
  1893                           
  1894     0075                     ??_strcpy:	
  1895                           ; 2 bytes @ 0x5
  1896                           
  1897     0075                     ??_uart_puts:	
  1898                           ; 1 bytes @ 0x5
  1899                           
  1900                           
  1901                           ; 1 bytes @ 0x5
  1902     0075                     	ds	1
  1903     0076                     ?_clcd_print:
  1904     0076                     init_ds1307@dummy:	
  1905                           ; 1 bytes @ 0x6
  1906                           
  1907     0076                     ___awmod@counter:	
  1908                           ; 1 bytes @ 0x6
  1909                           
  1910     0076                     ___fltol@sign1:	
  1911                           ; 1 bytes @ 0x6
  1912                           
  1913     0076                     clcd_print@str:	
  1914                           ; 1 bytes @ 0x6
  1915                           
  1916     0076                     ___wmul@product:	
  1917                           ; 2 bytes @ 0x6
  1918                           
  1919     0076                     ??_clear_screen:	
  1920                           ; 2 bytes @ 0x6
  1921                           
  1922     0076                     ??_strncmp:	
  1923                           ; 1 bytes @ 0x6
  1924                           
  1925     0076                     ??_init_display_controller:	
  1926                           ; 1 bytes @ 0x6
  1927                           
  1928     0076                     ??_init_ds1307:	
  1929                           ; 1 bytes @ 0x6
  1930                           
  1931     0076                     ??_get_time:	
  1932                           ; 1 bytes @ 0x6
  1933                           
  1934     0076                     ??___wmul:	
  1935                           ; 1 bytes @ 0x6
  1936                           
  1937     0076                     ??___awdiv:	
  1938                           ; 1 bytes @ 0x6
  1939                           
  1940     0076                     ??___awmod:	
  1941                           ; 1 bytes @ 0x6
  1942                           
  1943                           
  1944                           ; 1 bytes @ 0x6
  1945     0076                     	ds	1
  1946     0077                     str_write_externaleeprom@addr:
  1947     0077                     ___lldiv@counter:	
  1948                           ; 1 bytes @ 0x7
  1949                           
  1950     0077                     ___awmod@sign:	
  1951                           ; 1 bytes @ 0x7
  1952                           
  1953     0077                     ___fltol@exp1:	
  1954                           ; 1 bytes @ 0x7
  1955                           
  1956     0077                     strcpy@d:	
  1957                           ; 1 bytes @ 0x7
  1958                           
  1959     0077                     ??_str_write_externaleeprom:	
  1960                           ; 1 bytes @ 0x7
  1961                           
  1962     0077                     ??_strncpy:	
  1963                           ; 1 bytes @ 0x7
  1964                           
  1965                           
  1966                           ; 1 bytes @ 0x7
  1967     0077                     	ds	1
  1968     0078                     clcd_putch@data:
  1969     0078                     clcd_print@addr:	
  1970                           ; 1 bytes @ 0x8
  1971                           
  1972     0078                     log_event_eeprom@addr:	
  1973                           ; 1 bytes @ 0x8
  1974                           
  1975     0078                     ??_init_clcd:	
  1976                           ; 1 bytes @ 0x8
  1977                           
  1978     0078                     ??_clcd_putch:	
  1979                           ; 1 bytes @ 0x8
  1980                           
  1981     0078                     ??_init_config:	
  1982                           ; 1 bytes @ 0x8
  1983                           
  1984     0078                     ??_log_event_eeprom:	
  1985                           ; 1 bytes @ 0x8
  1986                           
  1987                           
  1988                           ; 1 bytes @ 0x8
  1989     0078                     	ds	1
  1990     0079                     ??_clear_log:
  1991     0079                     ??_clcd_print:	
  1992                           ; 1 bytes @ 0x9
  1993                           
  1994     0079                     ??_display_time:	
  1995                           ; 1 bytes @ 0x9
  1996                           
  1997                           
  1998                           	psect	cstackBANK0
  1999     0020                     __pcstackBANK0:	
  2000                           ; 1 bytes @ 0x9
  2001                           
  2002     0020                     ?___lldiv:
  2003     0020                     ?___xxtofl:	
  2004                           ; 4 bytes @ 0x0
  2005                           
  2006     0020                     ___awdiv@counter:	
  2007                           ; 4 bytes @ 0x0
  2008                           
  2009     0020                     strncpy@cp:	
  2010                           ; 1 bytes @ 0x0
  2011                           
  2012     0020                     ___lldiv@divisor:	
  2013                           ; 1 bytes @ 0x0
  2014                           
  2015     0020                     ___xxtofl@val:	
  2016                           ; 4 bytes @ 0x0
  2017                           
  2018     0020                     ??_download_log:	
  2019                           ; 4 bytes @ 0x0
  2020                           
  2021                           
  2022                           ; 1 bytes @ 0x0
  2023     0020                     	ds	1
  2024     0021                     ___awdiv@sign:
  2025                           
  2026                           ; 1 bytes @ 0x1
  2027     0021                     	ds	1
  2028     0022                     ___awdiv@quotient:
  2029                           
  2030                           ; 2 bytes @ 0x2
  2031     0022                     	ds	2
  2032     0024                     ?_log_event:
  2033     0024                     ?_clcd_putch:	
  2034                           ; 1 bytes @ 0x4
  2035                           
  2036     0024                     clcd_putch@addr:	
  2037                           ; 1 bytes @ 0x4
  2038                           
  2039     0024                     log_event@event:	
  2040                           ; 1 bytes @ 0x4
  2041                           
  2042     0024                     ___lldiv@dividend:	
  2043                           ; 1 bytes @ 0x4
  2044                           
  2045     0024                     download_log@download_data:	
  2046                           ; 4 bytes @ 0x4
  2047                           
  2048     0024                     ??___xxtofl:	
  2049                           ; 11 bytes @ 0x4
  2050                           
  2051                           
  2052                           ; 1 bytes @ 0x4
  2053     0024                     	ds	1
  2054     0025                     ?_display_dashboard:
  2055     0025                     ?_login_screen:	
  2056                           ; 1 bytes @ 0x5
  2057                           
  2058     0025                     ?_change_password:	
  2059                           ; 1 bytes @ 0x5
  2060                           
  2061     0025                     display_dashboard@event:	
  2062                           ; 1 bytes @ 0x5
  2063                           
  2064     0025                     change_password@reset_flag:	
  2065                           ; 1 bytes @ 0x5
  2066                           
  2067     0025                     login_screen@reset_flag:	
  2068                           ; 1 bytes @ 0x5
  2069                           
  2070     0025                     log_event@speed:	
  2071                           ; 1 bytes @ 0x5
  2072                           
  2073     0025                     ??_menu_screen:	
  2074                           ; 1 bytes @ 0x5
  2075                           
  2076     0025                     ??_view_log:	
  2077                           ; 1 bytes @ 0x5
  2078                           
  2079     0025                     ??_set_time:	
  2080                           ; 1 bytes @ 0x5
  2081                           
  2082                           
  2083                           ; 1 bytes @ 0x5
  2084     0025                     	ds	1
  2085     0026                     display_dashboard@speed:
  2086     0026                     ??_log_event:	
  2087                           ; 1 bytes @ 0x6
  2088                           
  2089     0026                     ??_login_screen:	
  2090                           ; 1 bytes @ 0x6
  2091                           
  2092     0026                     ??_change_password:	
  2093                           ; 1 bytes @ 0x6
  2094                           
  2095                           
  2096                           ; 1 bytes @ 0x6
  2097     0026                     	ds	1
  2098     0027                     menu_screen@key:
  2099     0027                     view_log@log_data:	
  2100                           ; 1 bytes @ 0x7
  2101                           
  2102     0027                     ??_display_dashboard:	
  2103                           ; 11 bytes @ 0x7
  2104                           
  2105                           
  2106                           ; 1 bytes @ 0x7
  2107     0027                     	ds	1
  2108     0028                     ?_init_uart:
  2109     0028                     ?_init_i2c:	
  2110                           ; 1 bytes @ 0x8
  2111                           
  2112     0028                     set_time@key:	
  2113                           ; 1 bytes @ 0x8
  2114                           
  2115     0028                     ___xxtofl@sign:	
  2116                           ; 1 bytes @ 0x8
  2117                           
  2118     0028                     init_i2c@baud:	
  2119                           ; 1 bytes @ 0x8
  2120                           
  2121     0028                     init_uart@baud:	
  2122                           ; 4 bytes @ 0x8
  2123                           
  2124                           
  2125                           ; 4 bytes @ 0x8
  2126     0028                     	ds	1
  2127     0029                     change_password@key:
  2128     0029                     ___xxtofl@exp:	
  2129                           ; 1 bytes @ 0x9
  2130                           
  2131     0029                     login_screen@spasswd:	
  2132                           ; 1 bytes @ 0x9
  2133                           
  2134                           
  2135                           ; 4 bytes @ 0x9
  2136     0029                     	ds	1
  2137     002A                     ___xxtofl@arg:
  2138                           
  2139                           ; 4 bytes @ 0xA
  2140     002A                     	ds	2
  2141     002C                     ??_init_uart:
  2142     002C                     ??_init_i2c:	
  2143                           ; 1 bytes @ 0xC
  2144                           
  2145                           
  2146                           ; 1 bytes @ 0xC
  2147     002C                     	ds	1
  2148     002D                     login_screen@key:
  2149                           
  2150                           ; 1 bytes @ 0xD
  2151     002D                     	ds	1
  2152     002E                     ?___fldiv:
  2153     002E                     login_screen@j:	
  2154                           ; 4 bytes @ 0xE
  2155                           
  2156     002E                     ___fldiv@a:	
  2157                           ; 1 bytes @ 0xE
  2158                           
  2159                           
  2160                           ; 4 bytes @ 0xE
  2161     002E                     	ds	1
  2162     002F                     download_log@z:
  2163                           
  2164                           ; 1 bytes @ 0xF
  2165     002F                     	ds	3
  2166     0032                     view_log@key:
  2167     0032                     ___fldiv@b:	
  2168                           ; 1 bytes @ 0x12
  2169                           
  2170                           
  2171                           ; 4 bytes @ 0x12
  2172     0032                     	ds	1
  2173     0033                     view_log@k:
  2174                           
  2175                           ; 1 bytes @ 0x13
  2176     0033                     	ds	3
  2177     0036                     ??___fldiv:
  2178                           
  2179                           ; 1 bytes @ 0x16
  2180     0036                     	ds	5
  2181     003B                     ___fldiv@rem:
  2182                           
  2183                           ; 4 bytes @ 0x1B
  2184     003B                     	ds	4
  2185     003F                     ___fldiv@sign:
  2186                           
  2187                           ; 1 bytes @ 0x1F
  2188     003F                     	ds	1
  2189     0040                     ___fldiv@new_exp:
  2190                           
  2191                           ; 2 bytes @ 0x20
  2192     0040                     	ds	2
  2193     0042                     ___fldiv@grs:
  2194                           
  2195                           ; 4 bytes @ 0x22
  2196     0042                     	ds	4
  2197     0046                     ___fldiv@bexp:
  2198                           
  2199                           ; 1 bytes @ 0x26
  2200     0046                     	ds	1
  2201     0047                     ___fldiv@aexp:
  2202                           
  2203                           ; 1 bytes @ 0x27
  2204     0047                     	ds	1
  2205     0048                     ?___fltol:
  2206     0048                     ___fltol@f1:	
  2207                           ; 4 bytes @ 0x28
  2208                           
  2209                           
  2210                           ; 4 bytes @ 0x28
  2211     0048                     	ds	4
  2212     004C                     ??___fltol:
  2213                           
  2214                           ; 1 bytes @ 0x2C
  2215     004C                     	ds	4
  2216     0050                     ??_main:
  2217                           
  2218                           ; 1 bytes @ 0x30
  2219     0050                     	ds	4
  2220                           
  2221                           	psect	maintext
  2222     004A                     __pmaintext:	
  2223 ;;
  2224 ;;Main: autosize = 0, tempsize = 4, incstack = 0, save=0
  2225 ;;
  2226 ;; *************** function _main *****************
  2227 ;; Defined at:
  2228 ;;		line 42 in file "main.c"
  2229 ;; Parameters:    Size  Location     Type
  2230 ;;		None
  2231 ;; Auto vars:     Size  Location     Type
  2232 ;;  delay           2   13[BANK3 ] int 
  2233 ;;  gear           12    1[BANK3 ] PTR unsigned char [6]
  2234 ;;		 -> STR_6(3), STR_5(3), STR_4(3), STR_3(3), 
  2235 ;;		 -> STR_2(3), STR_1(3), 
  2236 ;;  event           3   17[BANK3 ] unsigned char [3]
  2237 ;;  control_flag    1   23[BANK3 ] unsigned char 
  2238 ;;  speed           1   22[BANK3 ] unsigned char 
  2239 ;;  gr              1   21[BANK3 ] unsigned char 
  2240 ;;  key             1   20[BANK3 ] unsigned char 
  2241 ;;  key2            1   16[BANK3 ] unsigned char 
  2242 ;;  reset_flag      1   15[BANK3 ] unsigned char 
  2243 ;;  delay           1    0[BANK3 ] unsigned char 
  2244 ;; Return value:  Size  Location     Type
  2245 ;;                  1    wreg      void 
  2246 ;; Registers used:
  2247 ;;		wreg, fsr0l, fsr0h, status,2, status,0, btemp+1, pclath, cstack
  2248 ;; Tracked objects:
  2249 ;;		On entry : B00/0
  2250 ;;		On exit  : 0/0
  2251 ;;		Unchanged: 0/0
  2252 ;; Data sizes:     COMMON   BANK0   BANK1   BANK3   BANK2
  2253 ;;      Params:         0       0       0       0       0
  2254 ;;      Locals:         0       0       0      24       0
  2255 ;;      Temps:          0       4       0       0       0
  2256 ;;      Totals:         0       4       0      24       0
  2257 ;;Total ram usage:       28 bytes
  2258 ;; Hardware stack levels required when called: 8
  2259 ;; This function calls:
  2260 ;;		___fldiv
  2261 ;;		___fltol
  2262 ;;		___xxtofl
  2263 ;;		_change_password
  2264 ;;		_clcd_print
  2265 ;;		_clcd_write
  2266 ;;		_clear_log
  2267 ;;		_clear_screen
  2268 ;;		_display_dashboard
  2269 ;;		_download_log
  2270 ;;		_init_config
  2271 ;;		_log_event
  2272 ;;		_login_screen
  2273 ;;		_menu_screen
  2274 ;;		_read_adc
  2275 ;;		_read_digital_keypad
  2276 ;;		_set_time
  2277 ;;		_str_write_externaleeprom
  2278 ;;		_strcpy
  2279 ;;		_view_log
  2280 ;; This function is called by:
  2281 ;;		Startup code after reset
  2282 ;; This function uses a non-reentrant model
  2283 ;;
  2284                           
  2285     004A                     _main:	
  2286                           ;psect for function _main
  2287                           
  2288     004A                     l5852:	
  2289                           ;incstack = 0
  2290                           ; Regs used in _main: [wreg-fsr0h+status,2+status,0+btemp+1+pclath+cstack]
  2291                           
  2292                           
  2293                           ;main.c: 44:         if(key == 0x3E)
  2294     004A  1683               	bsf	3,5	;RP0=1, select bank3
  2295     004B  1703               	bsf	3,6	;RP1=1, select bank3
  2296     004C  01A7               	clrf	main@control_flag^(0+384)
  2297     004D  01A5               	clrf	main@gr^(0+384)
  2298     004E  0190               	clrf	main@delay^(0+384)
  2299     004F                     l5854:
  2300                           
  2301                           ;main.c: 45:         {
  2302     004F  1683               	bsf	3,5	;RP0=1, select bank1
  2303     0050  1303               	bcf	3,6	;RP1=0, select bank1
  2304     0051  0863               	movf	main@F1254^(0+128),w
  2305     0052  1683               	bsf	3,5	;RP0=1, select bank3
  2306     0053  1703               	bsf	3,6	;RP1=1, select bank3
  2307     0054  00A1               	movwf	main@event^(0+384)
  2308     0055  1683               	bsf	3,5	;RP0=1, select bank1
  2309     0056  1303               	bcf	3,6	;RP1=0, select bank1
  2310     0057  0864               	movf	(main@F1254+1)^(0+128),w
  2311     0058  1683               	bsf	3,5	;RP0=1, select bank3
  2312     0059  1703               	bsf	3,6	;RP1=1, select bank3
  2313     005A  00A2               	movwf	(main@event+1)^(0+384)
  2314     005B  1683               	bsf	3,5	;RP0=1, select bank1
  2315     005C  1303               	bcf	3,6	;RP1=0, select bank1
  2316     005D  0865               	movf	(main@F1254+2)^(0+128),w
  2317     005E  1683               	bsf	3,5	;RP0=1, select bank3
  2318     005F  1703               	bsf	3,6	;RP1=1, select bank3
  2319     0060  00A3               	movwf	(main@event+2)^(0+384)
  2320     0061                     l5856:
  2321                           
  2322                           ;main.c: 46:             strcpy(event,"C ");
  2323     0061  30A8               	movlw	main@F1256& (0+255)
  2324     0062  0084               	movwf	4
  2325     0063  3091               	movlw	low main@gear
  2326     0064  1283               	bcf	3,5	;RP0=0, select bank0
  2327     0065  1303               	bcf	3,6	;RP1=0, select bank0
  2328     0066  00D0               	movwf	??_main
  2329     0067  300C               	movlw	12
  2330     0068  00D1               	movwf	??_main+1
  2331     0069                     u7390:
  2332     0069  1783               	bsf	3,7	;select IRP bank3
  2333     006A  0800               	movf	0,w
  2334     006B  00D2               	movwf	??_main+2
  2335     006C  0A04               	incf	4,w
  2336     006D  00D3               	movwf	??_main+3
  2337     006E  0850               	movf	??_main,w
  2338     006F  0084               	movwf	4
  2339     0070  0852               	movf	??_main+2,w
  2340     0071  0080               	movwf	0
  2341     0072  0A04               	incf	4,w
  2342     0073  00D0               	movwf	??_main
  2343     0074  0853               	movf	??_main+3,w
  2344     0075  0084               	movwf	4
  2345     0076  0BD1               	decfsz	??_main+1,f
  2346     0077  2869               	goto	u7390
  2347     0078                     l5858:
  2348                           
  2349                           ;main.c: 47:             log_event(event,speed);
  2350     0078  160A  118A  21EB  120A  118A  	fcall	_init_config
  2351     007D                     l5860:
  2352                           
  2353                           ;main.c: 48:         }
  2354     007D  30A1               	movlw	(low (main@event| (0+256)))& (0+255)
  2355     007E  1283               	bcf	3,5	;RP0=0, select bank0
  2356     007F  1303               	bcf	3,6	;RP1=0, select bank0
  2357     0080  00A4               	movwf	log_event@event
  2358     0081  01A5               	clrf	log_event@speed
  2359     0082  160A  118A  23A9  120A  118A  	fcall	_log_event
  2360     0087                     l5862:
  2361                           
  2362                           ;main.c: 49:         else if(key == 0x3D && gr < 6)
  2363     0087  303F               	movlw	low (STR_7| (0+32768))
  2364     0088  00F5               	movwf	str_write_externaleeprom@data
  2365     0089  3091               	movlw	high (STR_7| (0+32768))
  2366     008A  00F6               	movwf	str_write_externaleeprom@data+1
  2367     008B  3000               	movlw	0
  2368     008C  160A  158A  26BB  120A  118A  	fcall	_str_write_externaleeprom
  2369     0091                     l5864:
  2370                           
  2371                           ;main.c: 51: ;main.c: 52:             strcpy(event,gear[gr]);
  2372     0091  160A  158A  2598  120A  118A  	fcall	_read_adc
  2373     0096  0872               	movf	?_read_adc,w
  2374     0097  1283               	bcf	3,5	;RP0=0, select bank0
  2375     0098  1303               	bcf	3,6	;RP1=0, select bank0
  2376     0099  00D0               	movwf	??_main
  2377     009A  0873               	movf	?_read_adc+1,w
  2378     009B  00D1               	movwf	??_main+1
  2379     009C  01D2               	clrf	??_main+2
  2380     009D  01D3               	clrf	??_main+3
  2381     009E  0853               	movf	??_main+3,w
  2382     009F  00A3               	movwf	___xxtofl@val+3
  2383     00A0  0852               	movf	??_main+2,w
  2384     00A1  00A2               	movwf	___xxtofl@val+2
  2385     00A2  0851               	movf	??_main+1,w
  2386     00A3  00A1               	movwf	___xxtofl@val+1
  2387     00A4  0850               	movf	??_main,w
  2388     00A5  00A0               	movwf	___xxtofl@val
  2389     00A6  3000               	movlw	0
  2390     00A7  160A  118A  252D  120A  118A  	fcall	___xxtofl
  2391     00AC  1283               	bcf	3,5	;RP0=0, select bank0
  2392     00AD  1303               	bcf	3,6	;RP1=0, select bank0
  2393     00AE  0823               	movf	?___xxtofl+3,w
  2394     00AF  00B5               	movwf	___fldiv@b+3
  2395     00B0  0822               	movf	?___xxtofl+2,w
  2396     00B1  00B4               	movwf	___fldiv@b+2
  2397     00B2  0821               	movf	?___xxtofl+1,w
  2398     00B3  00B3               	movwf	___fldiv@b+1
  2399     00B4  0820               	movf	?___xxtofl,w
  2400     00B5  00B2               	movwf	___fldiv@b
  2401     00B6  3041               	movlw	65
  2402     00B7  00B1               	movwf	___fldiv@a+3
  2403     00B8  3025               	movlw	37
  2404     00B9  00B0               	movwf	___fldiv@a+2
  2405     00BA  3047               	movlw	71
  2406     00BB  00AF               	movwf	___fldiv@a+1
  2407     00BC  30AE               	movlw	174
  2408     00BD  00AE               	movwf	___fldiv@a
  2409     00BE  120A  158A  2245  120A  118A  	fcall	___fldiv
  2410     00C3  1283               	bcf	3,5	;RP0=0, select bank0
  2411     00C4  1303               	bcf	3,6	;RP1=0, select bank0
  2412     00C5  0831               	movf	?___fldiv+3,w
  2413     00C6  00CB               	movwf	___fltol@f1+3
  2414     00C7  0830               	movf	?___fldiv+2,w
  2415     00C8  00CA               	movwf	___fltol@f1+2
  2416     00C9  082F               	movf	?___fldiv+1,w
  2417     00CA  00C9               	movwf	___fltol@f1+1
  2418     00CB  082E               	movf	?___fldiv,w
  2419     00CC  00C8               	movwf	___fltol@f1
  2420     00CD  120A  118A  2781  120A  118A  	fcall	___fltol
  2421     00D2  1283               	bcf	3,5	;RP0=0, select bank0
  2422     00D3  1303               	bcf	3,6	;RP1=0, select bank0
  2423     00D4  0848               	movf	?___fltol,w
  2424     00D5  1683               	bsf	3,5	;RP0=1, select bank3
  2425     00D6  1703               	bsf	3,6	;RP1=1, select bank3
  2426     00D7  00A6               	movwf	main@speed^(0+384)
  2427     00D8                     l5866:
  2428                           
  2429                           ;main.c: 53:             log_event(event,speed);
  2430     00D8  3001               	movlw	1
  2431     00D9  160A  158A  276B  120A  118A  	fcall	_read_digital_keypad
  2432     00DE  1683               	bsf	3,5	;RP0=1, select bank3
  2433     00DF  1703               	bsf	3,6	;RP1=1, select bank3
  2434     00E0  00A4               	movwf	main@key^(0+384)
  2435     00E1                     l5868:
  2436                           
  2437                           ;main.c: 54:             gr++;
  2438     00E1  3000               	movlw	0
  2439     00E2  160A  158A  276B  120A  118A  	fcall	_read_digital_keypad
  2440     00E7  1683               	bsf	3,5	;RP0=1, select bank3
  2441     00E8  1703               	bsf	3,6	;RP1=1, select bank3
  2442     00E9  00A0               	movwf	main@key2^(0+384)
  2443     00EA                     l5870:
  2444                           
  2445                           ;main.c: 55:         }
  2446     00EA  302C               	movlw	44
  2447     00EB  009D               	movwf	main@delay_243^(0+384)
  2448     00EC  3001               	movlw	1
  2449     00ED  009E               	movwf	(main@delay_243^(0+384)+1)
  2450     00EE                     l5872:
  2451     00EE  30FF               	movlw	255
  2452     00EF  079D               	addwf	main@delay_243^(0+384),f
  2453     00F0  1803               	skipnc
  2454     00F1  0A9E               	incf	(main@delay_243+1)^(0+384),f
  2455     00F2  30FF               	movlw	255
  2456     00F3  079E               	addwf	(main@delay_243+1)^(0+384),f
  2457     00F4  0A1D               	incf	main@delay_243^(0+384),w
  2458     00F5  1D03               	skipz
  2459     00F6  28FB               	goto	u7401
  2460     00F7  0A1E               	incf	(main@delay_243+1)^(0+384),w
  2461     00F8  1D03               	btfss	3,2
  2462     00F9  28FB               	goto	u7401
  2463     00FA  28FC               	goto	u7400
  2464     00FB                     u7401:
  2465     00FB  28EE               	goto	l5872
  2466     00FC                     u7400:
  2467     00FC                     l5874:
  2468                           
  2469                           ;main.c: 57:         {
  2470     00FC  303E               	movlw	62
  2471     00FD  0624               	xorwf	main@key^(0+384),w
  2472     00FE  1D03               	btfss	3,2
  2473     00FF  2901               	goto	u7411
  2474     0100  2902               	goto	u7410
  2475     0101                     u7411:
  2476     0101  291D               	goto	l5878
  2477     0102                     u7410:
  2478     0102                     l5876:
  2479                           
  2480                           ;main.c: 58:            gr--;;main.c: 59:            strcpy(event,gear[gr]);
  2481     0102  30A1               	movlw	(low (main@event| (0+256)))& (0+255)
  2482     0103  00F2               	movwf	strcpy@dest
  2483     0104  3044               	movlw	low (STR_8| (0+32768))
  2484     0105  00F3               	movwf	strcpy@src
  2485     0106  3091               	movlw	high (STR_8| (0+32768))
  2486     0107  00F4               	movwf	strcpy@src+1
  2487     0108  120A  158A  2003  120A  118A  	fcall	_strcpy
  2488                           
  2489                           ;main.c: 60:            log_event(event,speed);
  2490     010D  30A1               	movlw	(low (main@event| (0+256)))& (0+255)
  2491     010E  1283               	bcf	3,5	;RP0=0, select bank0
  2492     010F  1303               	bcf	3,6	;RP1=0, select bank0
  2493     0110  00A4               	movwf	log_event@event
  2494     0111  1683               	bsf	3,5	;RP0=1, select bank3
  2495     0112  1703               	bsf	3,6	;RP1=1, select bank3
  2496     0113  0826               	movf	main@speed^(0+384),w
  2497     0114  1283               	bcf	3,5	;RP0=0, select bank0
  2498     0115  1303               	bcf	3,6	;RP1=0, select bank0
  2499     0116  00A5               	movwf	log_event@speed
  2500     0117  160A  118A  23A9  120A  118A  	fcall	_log_event
  2501                           
  2502                           ;main.c: 61:         }
  2503     011C  2C37               	goto	l6102
  2504     011D                     l5878:
  2505     011D  303D               	movlw	61
  2506     011E  0624               	xorwf	main@key^(0+384),w
  2507     011F  1D03               	btfss	3,2
  2508     0120  2922               	goto	u7421
  2509     0121  2923               	goto	u7420
  2510     0122                     u7421:
  2511     0122  2952               	goto	l5886
  2512     0123                     u7420:
  2513     0123                     l5880:
  2514     0123  3006               	movlw	6
  2515     0124  0225               	subwf	main@gr^(0+384),w
  2516     0125  1803               	skipnc
  2517     0126  2928               	goto	u7431
  2518     0127  2929               	goto	u7430
  2519     0128                     u7431:
  2520     0128  2952               	goto	l5886
  2521     0129                     u7430:
  2522     0129                     l5882:
  2523                           
  2524                           ;main.c: 63:         {;main.c: 65:             clear_screen();
  2525     0129  30A1               	movlw	(low (main@event| (0+256)))& (0+255)
  2526     012A  00F2               	movwf	strcpy@dest
  2527     012B  0825               	movf	main@gr^(0+384),w
  2528     012C  1283               	bcf	3,5	;RP0=0, select bank0
  2529     012D  1303               	bcf	3,6	;RP1=0, select bank0
  2530     012E  00D0               	movwf	??_main
  2531     012F  0750               	addwf	??_main,w
  2532     0130  3E91               	addlw	(low (main@gear| (0+256)))& (0+255)
  2533     0131  0084               	movwf	4
  2534     0132  1783               	bsf	3,7	;select IRP bank3
  2535     0133  0800               	movf	0,w
  2536     0134  00F3               	movwf	strcpy@src
  2537     0135  0A84               	incf	4,f
  2538     0136  0800               	movf	0,w
  2539     0137  0384               	decf	4,f
  2540     0138  00F4               	movwf	strcpy@src+1
  2541     0139  120A  158A  2003  120A  118A  	fcall	_strcpy
  2542                           
  2543                           ;main.c: 66:             clcd_print("Enter Password",(0x80 + 1));
  2544     013E  30A1               	movlw	(low (main@event| (0+256)))& (0+255)
  2545     013F  1283               	bcf	3,5	;RP0=0, select bank0
  2546     0140  1303               	bcf	3,6	;RP1=0, select bank0
  2547     0141  00A4               	movwf	log_event@event
  2548     0142  1683               	bsf	3,5	;RP0=1, select bank3
  2549     0143  1703               	bsf	3,6	;RP1=1, select bank3
  2550     0144  0826               	movf	main@speed^(0+384),w
  2551     0145  1283               	bcf	3,5	;RP0=0, select bank0
  2552     0146  1303               	bcf	3,6	;RP1=0, select bank0
  2553     0147  00A5               	movwf	log_event@speed
  2554     0148  160A  118A  23A9  120A  118A  	fcall	_log_event
  2555     014D                     l5884:
  2556                           
  2557                           ;main.c: 67:             clcd_write((0xC0 + 4), 0);
  2558     014D  3001               	movlw	1
  2559     014E  1683               	bsf	3,5	;RP0=1, select bank3
  2560     014F  1703               	bsf	3,6	;RP1=1, select bank3
  2561     0150  07A5               	addwf	main@gr^(0+384),f
  2562                           
  2563                           ;main.c: 68:             clcd_write(0x0F, 0);
  2564     0151  2C37               	goto	l6102
  2565     0152                     l5886:
  2566     0152  303B               	movlw	59
  2567     0153  0624               	xorwf	main@key^(0+384),w
  2568     0154  1D03               	btfss	3,2
  2569     0155  2957               	goto	u7441
  2570     0156  2958               	goto	u7440
  2571     0157                     u7441:
  2572     0157  2984               	goto	l5896
  2573     0158                     u7440:
  2574     0158                     l5888:
  2575     0158  0825               	movf	main@gr^(0+384),w
  2576     0159  1903               	btfsc	3,2
  2577     015A  295C               	goto	u7451
  2578     015B  295D               	goto	u7450
  2579     015C                     u7451:
  2580     015C  2984               	goto	l5896
  2581     015D                     u7450:
  2582     015D                     l5890:
  2583                           
  2584                           ;main.c: 70:              reset_flag=0x10;;main.c: 71:              TMR2ON=1;
  2585     015D  3001               	movlw	1
  2586     015E  02A5               	subwf	main@gr^(0+384),f
  2587     015F                     l5892:
  2588                           
  2589                           ;main.c: 72:         }
  2590     015F  30A1               	movlw	(low (main@event| (0+256)))& (0+255)
  2591     0160  00F2               	movwf	strcpy@dest
  2592     0161  0825               	movf	main@gr^(0+384),w
  2593     0162  1283               	bcf	3,5	;RP0=0, select bank0
  2594     0163  1303               	bcf	3,6	;RP1=0, select bank0
  2595     0164  00D0               	movwf	??_main
  2596     0165  0750               	addwf	??_main,w
  2597     0166  3E91               	addlw	(low (main@gear| (0+256)))& (0+255)
  2598     0167  0084               	movwf	4
  2599     0168  1783               	bsf	3,7	;select IRP bank3
  2600     0169  0800               	movf	0,w
  2601     016A  00F3               	movwf	strcpy@src
  2602     016B  0A84               	incf	4,f
  2603     016C  0800               	movf	0,w
  2604     016D  0384               	decf	4,f
  2605     016E  00F4               	movwf	strcpy@src+1
  2606     016F  120A  158A  2003  120A  118A  	fcall	_strcpy
  2607     0174                     l5894:
  2608                           
  2609                           ;main.c: 73:         else if(control_flag == 0x02 && key2==0x37 && long_press_delay ++ >
      +                           20 )
  2610     0174  30A1               	movlw	(low (main@event| (0+256)))& (0+255)
  2611     0175  1283               	bcf	3,5	;RP0=0, select bank0
  2612     0176  1303               	bcf	3,6	;RP1=0, select bank0
  2613     0177  00A4               	movwf	log_event@event
  2614     0178  1683               	bsf	3,5	;RP0=1, select bank3
  2615     0179  1703               	bsf	3,6	;RP1=1, select bank3
  2616     017A  0826               	movf	main@speed^(0+384),w
  2617     017B  1283               	bcf	3,5	;RP0=0, select bank0
  2618     017C  1303               	bcf	3,6	;RP1=0, select bank0
  2619     017D  00A5               	movwf	log_event@speed
  2620     017E  160A  118A  23A9  120A  118A  	fcall	_log_event
  2621                           
  2622                           ;main.c: 74:         {
  2623     0183  2C37               	goto	l6102
  2624     0184                     l5896:
  2625     0184  3037               	movlw	55
  2626     0185  0624               	xorwf	main@key^(0+384),w
  2627     0186  1903               	btfsc	3,2
  2628     0187  2989               	goto	u7461
  2629     0188  298A               	goto	u7460
  2630     0189                     u7461:
  2631     0189  2990               	goto	l5900
  2632     018A                     u7460:
  2633     018A                     l5898:
  2634     018A  302F               	movlw	47
  2635     018B  0624               	xorwf	main@key^(0+384),w
  2636     018C  1D03               	btfss	3,2
  2637     018D  298F               	goto	u7471
  2638     018E  2990               	goto	u7470
  2639     018F                     u7471:
  2640     018F  29C4               	goto	l5918
  2641     0190                     u7470:
  2642     0190                     l5900:
  2643     0190  0827               	movf	main@control_flag^(0+384),w
  2644     0191  1D03               	btfss	3,2
  2645     0192  2994               	goto	u7481
  2646     0193  2995               	goto	u7480
  2647     0194                     u7481:
  2648     0194  29C4               	goto	l5918
  2649     0195                     u7480:
  2650     0195                     l5902:
  2651                           
  2652                           ;main.c: 76:             switch(menu_pos);main.c: 77:             {
  2653     0195  3001               	movlw	1
  2654     0196  00A7               	movwf	main@control_flag^(0+384)
  2655     0197                     l5904:
  2656                           
  2657                           ;main.c: 78:                 case 0: clear_screen();
  2658     0197  160A  158A  2575  120A  118A  	fcall	_clear_screen
  2659     019C                     l5906:
  2660                           
  2661                           ;main.c: 79:                         control_flag=0x15;
  2662     019C  3095               	movlw	low (STR_9| (0+32768))
  2663     019D  00F6               	movwf	clcd_print@str
  2664     019E  3090               	movlw	high (STR_9| (0+32768))
  2665     019F  00F7               	movwf	clcd_print@str+1
  2666     01A0  3081               	movlw	129
  2667     01A1  00F8               	movwf	clcd_print@addr
  2668     01A2  160A  158A  273C  120A  118A  	fcall	_clcd_print
  2669     01A7                     l5908:
  2670                           
  2671                           ;main.c: 80:                         long_press_delay=0;
  2672     01A7  01F2               	clrf	clcd_write@mode
  2673     01A8  30C4               	movlw	196
  2674     01A9  160A  118A  21B5  120A  118A  	fcall	_clcd_write
  2675     01AE                     l5910:
  2676                           
  2677                           ;main.c: 81:                         strcpy(event,"VL");
  2678     01AE  01F2               	clrf	clcd_write@mode
  2679     01AF  300F               	movlw	15
  2680     01B0  160A  118A  21B5  120A  118A  	fcall	_clcd_write
  2681     01B5                     l5912:
  2682                           
  2683                           ;main.c: 82:                         log_event(event,speed);
  2684     01B5  30A5               	movlw	165
  2685     01B6  1283               	bcf	3,5	;RP0=0, select bank0
  2686     01B7  1303               	bcf	3,6	;RP1=0, select bank0
  2687     01B8  00D0               	movwf	??_main
  2688     01B9                     u7657:
  2689     01B9  0BD0               	decfsz	??_main,f
  2690     01BA  29B9               	goto	u7657
  2691     01BB  29BC               	nop2
  2692     01BC                     l5914:
  2693                           
  2694                           ;main.c: 83:                         menu_pos=0;
  2695     01BC  3010               	movlw	16
  2696     01BD  1683               	bsf	3,5	;RP0=1, select bank3
  2697     01BE  1703               	bsf	3,6	;RP1=1, select bank3
  2698     01BF  009F               	movwf	main@reset_flag^(0+384)
  2699     01C0                     l5916:
  2700                           
  2701                           ;main.c: 84:                         break;
  2702     01C0  1283               	bcf	3,5	;RP0=0, select bank0
  2703     01C1  1303               	bcf	3,6	;RP1=0, select bank0
  2704     01C2  1512               	bsf	18,2	;volatile
  2705                           
  2706                           ;main.c: 85:                 case 1:clear_screen();
  2707     01C3  2C37               	goto	l6102
  2708     01C4                     l5918:
  2709     01C4  3002               	movlw	2
  2710     01C5  0627               	xorwf	main@control_flag^(0+384),w
  2711     01C6  1D03               	btfss	3,2
  2712     01C7  29C9               	goto	u7491
  2713     01C8  29CA               	goto	u7490
  2714     01C9                     u7491:
  2715     01C9  2A92               	goto	l5992
  2716     01CA                     u7490:
  2717     01CA                     l5920:
  2718     01CA  3037               	movlw	55
  2719     01CB  0620               	xorwf	main@key2^(0+384),w
  2720     01CC  1D03               	btfss	3,2
  2721     01CD  29CF               	goto	u7501
  2722     01CE  29D0               	goto	u7500
  2723     01CF                     u7501:
  2724     01CF  2A92               	goto	l5992
  2725     01D0                     u7500:
  2726     01D0                     l5922:
  2727     01D0  3001               	movlw	1
  2728     01D1  1683               	bsf	3,5	;RP0=1, select bank1
  2729     01D2  1303               	bcf	3,6	;RP1=0, select bank1
  2730     01D3  07B9               	addwf	_long_press_delay^(0+128),f
  2731     01D4  30FF               	movlw	-1
  2732     01D5  0739               	addwf	_long_press_delay^(0+128),w
  2733     01D6  1283               	bcf	3,5	;RP0=0, select bank0
  2734     01D7  1303               	bcf	3,6	;RP1=0, select bank0
  2735     01D8  00D0               	movwf	??_main
  2736     01D9  3015               	movlw	21
  2737     01DA  0250               	subwf	??_main,w
  2738     01DB  1C03               	skipc
  2739     01DC  29DE               	goto	u7511
  2740     01DD  29DF               	goto	u7510
  2741     01DE                     u7511:
  2742     01DE  2A92               	goto	l5992
  2743     01DF                     u7510:
  2744     01DF                     l5924:
  2745                           
  2746                           ;main.c: 87:                         long_press_delay=0;;main.c: 88:                    
      +                               strcpy(event,"CL");
  2747     01DF  1112               	bcf	18,2	;volatile
  2748                           
  2749                           ;main.c: 89:                         log_event(event,speed);
  2750     01E0  2A81               	goto	l5990
  2751     01E1                     l5926:
  2752     01E1  160A  158A  2575  120A  118A  	fcall	_clear_screen
  2753     01E6                     l5928:
  2754                           
  2755                           ;main.c: 92:                 case 2: clear_screen();
  2756     01E6  3015               	movlw	21
  2757     01E7  1683               	bsf	3,5	;RP0=1, select bank3
  2758     01E8  1703               	bsf	3,6	;RP1=1, select bank3
  2759     01E9  00A7               	movwf	main@control_flag^(0+384)
  2760     01EA                     l5930:
  2761                           
  2762                           ;main.c: 93:                         control_flag=0x16;
  2763     01EA  1683               	bsf	3,5	;RP0=1, select bank1
  2764     01EB  1303               	bcf	3,6	;RP1=0, select bank1
  2765     01EC  01B9               	clrf	_long_press_delay^(0+128)
  2766     01ED                     l5932:
  2767                           
  2768                           ;main.c: 94:                         long_press_delay=0;
  2769     01ED  30A1               	movlw	(low (main@event| (0+256)))& (0+255)
  2770     01EE  00F2               	movwf	strcpy@dest
  2771     01EF  3059               	movlw	low (STR_10| (0+32768))
  2772     01F0  00F3               	movwf	strcpy@src
  2773     01F1  3091               	movlw	high (STR_10| (0+32768))
  2774     01F2  00F4               	movwf	strcpy@src+1
  2775     01F3  120A  158A  2003  120A  118A  	fcall	_strcpy
  2776     01F8                     l5934:
  2777                           
  2778                           ;main.c: 95:                         strcpy(event,"DL");
  2779     01F8  30A1               	movlw	(low (main@event| (0+256)))& (0+255)
  2780     01F9  1283               	bcf	3,5	;RP0=0, select bank0
  2781     01FA  1303               	bcf	3,6	;RP1=0, select bank0
  2782     01FB  00A4               	movwf	log_event@event
  2783     01FC  1683               	bsf	3,5	;RP0=1, select bank3
  2784     01FD  1703               	bsf	3,6	;RP1=1, select bank3
  2785     01FE  0826               	movf	main@speed^(0+384),w
  2786     01FF  1283               	bcf	3,5	;RP0=0, select bank0
  2787     0200  1303               	bcf	3,6	;RP1=0, select bank0
  2788     0201  00A5               	movwf	log_event@speed
  2789     0202  160A  118A  23A9  120A  118A  	fcall	_log_event
  2790     0207                     l5936:
  2791                           
  2792                           ;main.c: 96:                         log_event(event,speed);
  2793     0207  1283               	bcf	3,5	;RP0=0, select bank0
  2794     0208  1303               	bcf	3,6	;RP1=0, select bank0
  2795     0209  01D7               	clrf	_menu_pos
  2796                           
  2797                           ;main.c: 97:                         menu_pos=0;
  2798     020A  2C37               	goto	l6102
  2799     020B                     l5938:
  2800     020B  160A  158A  2575  120A  118A  	fcall	_clear_screen
  2801     0210                     l5940:
  2802                           
  2803                           ;main.c: 99:                 case 3: clear_screen();
  2804     0210  3017               	movlw	23
  2805     0211  1683               	bsf	3,5	;RP0=1, select bank3
  2806     0212  1703               	bsf	3,6	;RP1=1, select bank3
  2807     0213  00A7               	movwf	main@control_flag^(0+384)
  2808     0214                     l5942:
  2809                           
  2810                           ;main.c: 100:                         control_flag=0x18;
  2811     0214  1683               	bsf	3,5	;RP0=1, select bank1
  2812     0215  1303               	bcf	3,6	;RP1=0, select bank1
  2813     0216  01B9               	clrf	_long_press_delay^(0+128)
  2814     0217                     l5944:
  2815                           
  2816                           ;main.c: 101:                         long_press_delay=0;
  2817     0217  30A1               	movlw	(low (main@event| (0+256)))& (0+255)
  2818     0218  00F2               	movwf	strcpy@dest
  2819     0219  3053               	movlw	low (STR_11| (0+32768))
  2820     021A  00F3               	movwf	strcpy@src
  2821     021B  3091               	movlw	high (STR_11| (0+32768))
  2822     021C  00F4               	movwf	strcpy@src+1
  2823     021D  120A  158A  2003  120A  118A  	fcall	_strcpy
  2824     0222  29F8               	goto	l5934
  2825     0223                     l5950:
  2826     0223  160A  158A  2575  120A  118A  	fcall	_clear_screen
  2827     0228                     l5952:
  2828                           
  2829                           ;main.c: 106:                  case 4: clear_screen();
  2830     0228  3016               	movlw	22
  2831     0229  1683               	bsf	3,5	;RP0=1, select bank3
  2832     022A  1703               	bsf	3,6	;RP1=1, select bank3
  2833     022B  00A7               	movwf	main@control_flag^(0+384)
  2834     022C                     l5954:
  2835                           
  2836                           ;main.c: 107:                         control_flag=0x21;
  2837     022C  1683               	bsf	3,5	;RP0=1, select bank1
  2838     022D  1303               	bcf	3,6	;RP1=0, select bank1
  2839     022E  01B9               	clrf	_long_press_delay^(0+128)
  2840     022F                     l5956:
  2841                           
  2842                           ;main.c: 108:                         long_press_delay=0;
  2843     022F  30A1               	movlw	(low (main@event| (0+256)))& (0+255)
  2844     0230  00F2               	movwf	strcpy@dest
  2845     0231  3056               	movlw	low (STR_12| (0+32768))
  2846     0232  00F3               	movwf	strcpy@src
  2847     0233  3091               	movlw	high (STR_12| (0+32768))
  2848     0234  00F4               	movwf	strcpy@src+1
  2849     0235  120A  158A  2003  120A  118A  	fcall	_strcpy
  2850     023A  29F8               	goto	l5934
  2851     023B                     l5962:
  2852     023B  160A  158A  2575  120A  118A  	fcall	_clear_screen
  2853     0240                     l5964:
  2854                           
  2855                           ;main.c: 113:                         break;
  2856     0240  3018               	movlw	24
  2857     0241  1683               	bsf	3,5	;RP0=1, select bank3
  2858     0242  1703               	bsf	3,6	;RP1=1, select bank3
  2859     0243  00A7               	movwf	main@control_flag^(0+384)
  2860     0244                     l5966:
  2861                           
  2862                           ;main.c: 114:             }
  2863     0244  1683               	bsf	3,5	;RP0=1, select bank1
  2864     0245  1303               	bcf	3,6	;RP1=0, select bank1
  2865     0246  01B9               	clrf	_long_press_delay^(0+128)
  2866     0247                     l5968:
  2867                           
  2868                           ;main.c: 115: 
  2869     0247  30A1               	movlw	(low (main@event| (0+256)))& (0+255)
  2870     0248  00F2               	movwf	strcpy@dest
  2871     0249  3065               	movlw	low (STR_13| (0+32768))
  2872     024A  00F3               	movwf	strcpy@src
  2873     024B  3091               	movlw	high (STR_13| (0+32768))
  2874     024C  00F4               	movwf	strcpy@src+1
  2875     024D  120A  158A  2003  120A  118A  	fcall	_strcpy
  2876     0252  29F8               	goto	l5934
  2877     0253                     l5974:
  2878     0253  160A  158A  2575  120A  118A  	fcall	_clear_screen
  2879     0258                     l5976:
  2880                           
  2881                           ;main.c: 120:             clear_screen();
  2882     0258  3021               	movlw	33
  2883     0259  1683               	bsf	3,5	;RP0=1, select bank3
  2884     025A  1703               	bsf	3,6	;RP1=1, select bank3
  2885     025B  00A7               	movwf	main@control_flag^(0+384)
  2886     025C                     l5978:
  2887                           
  2888                           ;main.c: 121:             if(gr!=0)
  2889     025C  1683               	bsf	3,5	;RP0=1, select bank1
  2890     025D  1303               	bcf	3,6	;RP1=0, select bank1
  2891     025E  01B9               	clrf	_long_press_delay^(0+128)
  2892     025F                     l5980:
  2893                           
  2894                           ;main.c: 122:                 strcpy(event,gear[gr-1]);
  2895     025F  30A1               	movlw	(low (main@event| (0+256)))& (0+255)
  2896     0260  00F2               	movwf	strcpy@dest
  2897     0261  305F               	movlw	low (STR_14| (0+32768))
  2898     0262  00F3               	movwf	strcpy@src
  2899     0263  3091               	movlw	high (STR_14| (0+32768))
  2900     0264  00F4               	movwf	strcpy@src+1
  2901     0265  120A  158A  2003  120A  118A  	fcall	_strcpy
  2902     026A                     l5982:
  2903                           
  2904                           ;main.c: 123:             control_flag=0x00;
  2905     026A  30A1               	movlw	(low (main@event| (0+256)))& (0+255)
  2906     026B  1283               	bcf	3,5	;RP0=0, select bank0
  2907     026C  1303               	bcf	3,6	;RP1=0, select bank0
  2908     026D  00A4               	movwf	log_event@event
  2909     026E  1683               	bsf	3,5	;RP0=1, select bank3
  2910     026F  1703               	bsf	3,6	;RP1=1, select bank3
  2911     0270  0826               	movf	main@speed^(0+384),w
  2912     0271  1283               	bcf	3,5	;RP0=0, select bank0
  2913     0272  1303               	bcf	3,6	;RP1=0, select bank0
  2914     0273  00A5               	movwf	log_event@speed
  2915     0274  160A  118A  23A9  120A  118A  	fcall	_log_event
  2916     0279                     l5984:
  2917                           
  2918                           ;main.c: 124:             long_press_delay=0;
  2919     0279  1283               	bcf	3,5	;RP0=0, select bank0
  2920     027A  1303               	bcf	3,6	;RP1=0, select bank0
  2921     027B  01D7               	clrf	_menu_pos
  2922     027C                     l5986:
  2923                           
  2924                           ;main.c: 125:         }
  2925     027C  3034               	movlw	52
  2926     027D  1683               	bsf	3,5	;RP0=1, select bank3
  2927     027E  1703               	bsf	3,6	;RP1=1, select bank3
  2928     027F  009F               	movwf	main@reset_flag^(0+384)
  2929                           
  2930                           ;main.c: 126:         else if((control_flag==0x15 || control_flag==0x17 || control_flag=
      +                          =0x16 )&& key2 == 0x37 && long_press_delay ++ > 20)
  2931     0280  2C37               	goto	l6102
  2932     0281                     l5990:
  2933     0281  0857               	movf	_menu_pos,w
  2934                           
  2935                           ; Switch size 1, requested type "simple"
  2936                           ; Number of cases is 5, Range of values is 0 to 4
  2937                           ; switch strategies available:
  2938                           ; Name         Instructions Cycles
  2939                           ; simple_byte           16     9 (average)
  2940                           ; direct_byte           23     8 (fixed)
  2941                           ; jumptable            260     6 (fixed)
  2942                           ;	Chosen strategy is simple_byte
  2943     0282  3A00               	xorlw	0	; case 0
  2944     0283  1903               	skipnz
  2945     0284  29E1               	goto	l5926
  2946     0285  3A01               	xorlw	1	; case 1
  2947     0286  1903               	skipnz
  2948     0287  2A0B               	goto	l5938
  2949     0288  3A03               	xorlw	3	; case 2
  2950     0289  1903               	skipnz
  2951     028A  2A23               	goto	l5950
  2952     028B  3A01               	xorlw	1	; case 3
  2953     028C  1903               	skipnz
  2954     028D  2A3B               	goto	l5962
  2955     028E  3A07               	xorlw	7	; case 4
  2956     028F  1903               	skipnz
  2957     0290  2A53               	goto	l5974
  2958     0291  2C37               	goto	l6102
  2959     0292                     l5992:
  2960     0292  3015               	movlw	21
  2961     0293  1683               	bsf	3,5	;RP0=1, select bank3
  2962     0294  1703               	bsf	3,6	;RP1=1, select bank3
  2963     0295  0627               	xorwf	main@control_flag^(0+384),w
  2964     0296  1903               	btfsc	3,2
  2965     0297  2A99               	goto	u7521
  2966     0298  2A9A               	goto	u7520
  2967     0299                     u7521:
  2968     0299  2AAC               	goto	l6000
  2969     029A                     u7520:
  2970     029A                     l5994:
  2971     029A  3017               	movlw	23
  2972     029B  0627               	xorwf	main@control_flag^(0+384),w
  2973     029C  1903               	btfsc	3,2
  2974     029D  2A9F               	goto	u7531
  2975     029E  2AA0               	goto	u7530
  2976     029F                     u7531:
  2977     029F  2AAC               	goto	l6000
  2978     02A0                     u7530:
  2979     02A0                     l5996:
  2980     02A0  3016               	movlw	22
  2981     02A1  0627               	xorwf	main@control_flag^(0+384),w
  2982     02A2  1903               	btfsc	3,2
  2983     02A3  2AA5               	goto	u7541
  2984     02A4  2AA6               	goto	u7540
  2985     02A5                     u7541:
  2986     02A5  2AAC               	goto	l6000
  2987     02A6                     u7540:
  2988     02A6                     l5998:
  2989     02A6  3002               	movlw	2
  2990     02A7  0627               	xorwf	main@control_flag^(0+384),w
  2991     02A8  1D03               	btfss	3,2
  2992     02A9  2AAB               	goto	u7551
  2993     02AA  2AAC               	goto	u7550
  2994     02AB                     u7551:
  2995     02AB  2AEA               	goto	l6014
  2996     02AC                     u7550:
  2997     02AC                     l6000:
  2998     02AC  302F               	movlw	47
  2999     02AD  0620               	xorwf	main@key2^(0+384),w
  3000     02AE  1D03               	btfss	3,2
  3001     02AF  2AB1               	goto	u7561
  3002     02B0  2AB2               	goto	u7560
  3003     02B1                     u7561:
  3004     02B1  2AEA               	goto	l6014
  3005     02B2                     u7560:
  3006     02B2                     l6002:
  3007     02B2  3001               	movlw	1
  3008     02B3  1683               	bsf	3,5	;RP0=1, select bank1
  3009     02B4  1303               	bcf	3,6	;RP1=0, select bank1
  3010     02B5  07B9               	addwf	_long_press_delay^(0+128),f
  3011     02B6  30FF               	movlw	-1
  3012     02B7  0739               	addwf	_long_press_delay^(0+128),w
  3013     02B8  1283               	bcf	3,5	;RP0=0, select bank0
  3014     02B9  1303               	bcf	3,6	;RP1=0, select bank0
  3015     02BA  00D0               	movwf	??_main
  3016     02BB  3015               	movlw	21
  3017     02BC  0250               	subwf	??_main,w
  3018     02BD  1C03               	skipc
  3019     02BE  2AC0               	goto	u7571
  3020     02BF  2AC1               	goto	u7570
  3021     02C0                     u7571:
  3022     02C0  2AEA               	goto	l6014
  3023     02C1                     u7570:
  3024     02C1                     l6004:
  3025                           
  3026                           ;main.c: 132:             long_press_delay=0;;main.c: 133:         }
  3027     02C1  160A  158A  2575  120A  118A  	fcall	_clear_screen
  3028     02C6                     l6006:
  3029                           
  3030                           ;main.c: 134:         switch (control_flag)
  3031     02C6  1683               	bsf	3,5	;RP0=1, select bank3
  3032     02C7  1703               	bsf	3,6	;RP1=1, select bank3
  3033     02C8  0825               	movf	main@gr^(0+384),w
  3034     02C9  1903               	btfsc	3,2
  3035     02CA  2ACC               	goto	u7581
  3036     02CB  2ACD               	goto	u7580
  3037     02CC                     u7581:
  3038     02CC  2AE3               	goto	l6010
  3039     02CD                     u7580:
  3040     02CD                     l6008:
  3041                           
  3042                           ;main.c: 135:         {
  3043     02CD  30A1               	movlw	(low (main@event| (0+256)))& (0+255)
  3044     02CE  00F2               	movwf	strcpy@dest
  3045     02CF  0825               	movf	main@gr^(0+384),w
  3046     02D0  1283               	bcf	3,5	;RP0=0, select bank0
  3047     02D1  1303               	bcf	3,6	;RP1=0, select bank0
  3048     02D2  00D0               	movwf	??_main
  3049     02D3  0750               	addwf	??_main,w
  3050     02D4  3EFE               	addlw	254
  3051     02D5  3E91               	addlw	(low (main@gear| (0+256)))& (0+255)
  3052     02D6  0084               	movwf	4
  3053     02D7  1783               	bsf	3,7	;select IRP bank3
  3054     02D8  0800               	movf	0,w
  3055     02D9  00F3               	movwf	strcpy@src
  3056     02DA  0A84               	incf	4,f
  3057     02DB  0800               	movf	0,w
  3058     02DC  0384               	decf	4,f
  3059     02DD  00F4               	movwf	strcpy@src+1
  3060     02DE  120A  158A  2003  120A  118A  	fcall	_strcpy
  3061     02E3                     l6010:
  3062                           
  3063                           ;main.c: 136:             case 0x00 :
  3064     02E3  1683               	bsf	3,5	;RP0=1, select bank3
  3065     02E4  1703               	bsf	3,6	;RP1=1, select bank3
  3066     02E5  01A7               	clrf	main@control_flag^(0+384)
  3067     02E6                     l6012:
  3068                           
  3069                           ;main.c: 137:                                 display_dashboard(event,speed);
  3070     02E6  1683               	bsf	3,5	;RP0=1, select bank1
  3071     02E7  1303               	bcf	3,6	;RP1=0, select bank1
  3072     02E8  01B9               	clrf	_long_press_delay^(0+128)
  3073                           
  3074                           ;main.c: 138:                                 break;
  3075     02E9  2C37               	goto	l6102
  3076     02EA                     l6014:
  3077     02EA  3015               	movlw	21
  3078     02EB  1683               	bsf	3,5	;RP0=1, select bank3
  3079     02EC  1703               	bsf	3,6	;RP1=1, select bank3
  3080     02ED  0627               	xorwf	main@control_flag^(0+384),w
  3081     02EE  1903               	btfsc	3,2
  3082     02EF  2AF1               	goto	u7591
  3083     02F0  2AF2               	goto	u7590
  3084     02F1                     u7591:
  3085     02F1  2AFE               	goto	l6020
  3086     02F2                     u7590:
  3087     02F2                     l6016:
  3088     02F2  3017               	movlw	23
  3089     02F3  0627               	xorwf	main@control_flag^(0+384),w
  3090     02F4  1903               	btfsc	3,2
  3091     02F5  2AF7               	goto	u7601
  3092     02F6  2AF8               	goto	u7600
  3093     02F7                     u7601:
  3094     02F7  2AFE               	goto	l6020
  3095     02F8                     u7600:
  3096     02F8                     l6018:
  3097     02F8  3016               	movlw	22
  3098     02F9  0627               	xorwf	main@control_flag^(0+384),w
  3099     02FA  1D03               	btfss	3,2
  3100     02FB  2AFD               	goto	u7611
  3101     02FC  2AFE               	goto	u7610
  3102     02FD                     u7611:
  3103     02FD  2B37               	goto	l192
  3104     02FE                     u7610:
  3105     02FE                     l6020:
  3106     02FE  3037               	movlw	55
  3107     02FF  0620               	xorwf	main@key2^(0+384),w
  3108     0300  1D03               	btfss	3,2
  3109     0301  2B03               	goto	u7621
  3110     0302  2B04               	goto	u7620
  3111     0303                     u7621:
  3112     0303  2B37               	goto	l192
  3113     0304                     u7620:
  3114     0304                     l6022:
  3115     0304  3001               	movlw	1
  3116     0305  1683               	bsf	3,5	;RP0=1, select bank1
  3117     0306  1303               	bcf	3,6	;RP1=0, select bank1
  3118     0307  07B9               	addwf	_long_press_delay^(0+128),f
  3119     0308  30FF               	movlw	-1
  3120     0309  0739               	addwf	_long_press_delay^(0+128),w
  3121     030A  1283               	bcf	3,5	;RP0=0, select bank0
  3122     030B  1303               	bcf	3,6	;RP1=0, select bank0
  3123     030C  00D0               	movwf	??_main
  3124     030D  3015               	movlw	21
  3125     030E  0250               	subwf	??_main,w
  3126     030F  1C03               	skipc
  3127     0310  2B12               	goto	u7631
  3128     0311  2B13               	goto	u7630
  3129     0312                     u7631:
  3130     0312  2B37               	goto	l192
  3131     0313                     u7630:
  3132     0313                     l6024:
  3133                           
  3134                           ;main.c: 140:                                 switch(login_screen(key,reset_flag));main.
      +                          c: 141:                                 {
  3135     0313  160A  158A  2575  120A  118A  	fcall	_clear_screen
  3136     0318                     l6026:
  3137                           
  3138                           ;main.c: 142:                                     case 0x25 :
  3139     0318  1283               	bcf	3,5	;RP0=0, select bank0
  3140     0319  1303               	bcf	3,6	;RP1=0, select bank0
  3141     031A  01D7               	clrf	_menu_pos
  3142     031B                     l6028:
  3143                           
  3144                           ;main.c: 143:                                                         clear_screen();
  3145     031B  30A1               	movlw	(low (main@event| (0+256)))& (0+255)
  3146     031C  00F2               	movwf	strcpy@dest
  3147     031D  1683               	bsf	3,5	;RP0=1, select bank3
  3148     031E  1703               	bsf	3,6	;RP1=1, select bank3
  3149     031F  0825               	movf	main@gr^(0+384),w
  3150     0320  1283               	bcf	3,5	;RP0=0, select bank0
  3151     0321  1303               	bcf	3,6	;RP1=0, select bank0
  3152     0322  00D0               	movwf	??_main
  3153     0323  0750               	addwf	??_main,w
  3154     0324  3E91               	addlw	(low (main@gear| (0+256)))& (0+255)
  3155     0325  0084               	movwf	4
  3156     0326  1783               	bsf	3,7	;select IRP bank3
  3157     0327  0800               	movf	0,w
  3158     0328  00F3               	movwf	strcpy@src
  3159     0329  0A84               	incf	4,f
  3160     032A  0800               	movf	0,w
  3161     032B  0384               	decf	4,f
  3162     032C  00F4               	movwf	strcpy@src+1
  3163     032D  120A  158A  2003  120A  118A  	fcall	_strcpy
  3164     0332                     l6030:
  3165                           
  3166                           ;main.c: 144:                                                         control_flag= 0x00
      +                          ;
  3167     0332  3002               	movlw	2
  3168     0333  1683               	bsf	3,5	;RP0=1, select bank3
  3169     0334  1703               	bsf	3,6	;RP1=1, select bank3
  3170     0335  00A7               	movwf	main@control_flag^(0+384)
  3171     0336  2AE6               	goto	l6012
  3172     0337                     l192:
  3173     0337  2C37               	goto	l6102
  3174     0338                     l6034:
  3175                           
  3176                           ;main.c: 150:                                                         clear_screen();
  3177     0338  30A1               	movlw	(low (main@event| (0+256)))& (0+255)
  3178     0339  1283               	bcf	3,5	;RP0=0, select bank0
  3179     033A  1303               	bcf	3,6	;RP1=0, select bank0
  3180     033B  00A5               	movwf	display_dashboard@event
  3181     033C  1683               	bsf	3,5	;RP0=1, select bank3
  3182     033D  1703               	bsf	3,6	;RP1=1, select bank3
  3183     033E  0826               	movf	main@speed^(0+384),w
  3184     033F  1283               	bcf	3,5	;RP0=0, select bank0
  3185     0340  1303               	bcf	3,6	;RP1=0, select bank0
  3186     0341  00A6               	movwf	display_dashboard@speed
  3187     0342  160A  118A  22FE  120A  118A  	fcall	_display_dashboard
  3188                           
  3189                           ;main.c: 151:                                                         control_flag= 0x02
      +                          ;
  3190     0347  2C56               	goto	l212
  3191     0348                     l6036:
  3192                           
  3193                           ;main.c: 156:                                 }
  3194     0348  160A  158A  2575  120A  118A  	fcall	_clear_screen
  3195     034D                     l6038:
  3196                           
  3197                           ;main.c: 157:                                 break;
  3198     034D  1683               	bsf	3,5	;RP0=1, select bank3
  3199     034E  1703               	bsf	3,6	;RP1=1, select bank3
  3200     034F  01A7               	clrf	main@control_flag^(0+384)
  3201     0350                     l6040:
  3202                           
  3203                           ;main.c: 158:             case 0x02 :
  3204     0350  01F2               	clrf	clcd_write@mode
  3205     0351  300C               	movlw	12
  3206     0352  160A  118A  21B5  120A  118A  	fcall	_clcd_write
  3207     0357                     l6042:
  3208                           
  3209                           ;main.c: 159:                                 TMR2ON=1;
  3210     0357  30A5               	movlw	165
  3211     0358  1283               	bcf	3,5	;RP0=0, select bank0
  3212     0359  1303               	bcf	3,6	;RP1=0, select bank0
  3213     035A  00D0               	movwf	??_main
  3214     035B                     u7667:
  3215     035B  0BD0               	decfsz	??_main,f
  3216     035C  2B5B               	goto	u7667
  3217     035D  2B5E               	nop2
  3218     035E                     l6044:
  3219                           
  3220                           ;main.c: 160:                                 if(menu_screen(key2)==0x25)
  3221     035E  1283               	bcf	3,5	;RP0=0, select bank0
  3222     035F  1303               	bcf	3,6	;RP1=0, select bank0
  3223     0360  1112               	bcf	18,2	;volatile
  3224                           
  3225                           ;main.c: 161:                                     control_flag=0x25;
  3226     0361  2C56               	goto	l212
  3227     0362                     l6046:
  3228                           
  3229                           ;main.c: 163:             case 0x15 :
  3230     0362  160A  158A  2575  120A  118A  	fcall	_clear_screen
  3231     0367                     l6048:
  3232                           
  3233                           ;main.c: 164:                                  view_log(key);
  3234     0367  3002               	movlw	2
  3235     0368  1683               	bsf	3,5	;RP0=1, select bank3
  3236     0369  1703               	bsf	3,6	;RP1=1, select bank3
  3237     036A  00A7               	movwf	main@control_flag^(0+384)
  3238     036B                     l6050:
  3239                           
  3240                           ;main.c: 165: 
  3241     036B  3005               	movlw	5
  3242     036C  1683               	bsf	3,5	;RP0=1, select bank1
  3243     036D  1303               	bcf	3,6	;RP1=0, select bank1
  3244     036E  00BA               	movwf	_return_time^(0+128)
  3245                           
  3246                           ;main.c: 166:                                  break;
  3247     036F  01F2               	clrf	clcd_write@mode
  3248     0370  300C               	movlw	12
  3249     0371  160A  118A  21B5  120A  118A  	fcall	_clcd_write
  3250     0376                     l6052:
  3251                           
  3252                           ;main.c: 167:             case 0x17 :
  3253     0376  30A5               	movlw	165
  3254     0377  1283               	bcf	3,5	;RP0=0, select bank0
  3255     0378  1303               	bcf	3,6	;RP1=0, select bank0
  3256     0379  00D0               	movwf	??_main
  3257     037A                     u7677:
  3258     037A  0BD0               	decfsz	??_main,f
  3259     037B  2B7A               	goto	u7677
  3260     037C  2B7D               	nop2
  3261                           
  3262                           ;main.c: 168:                                  clear_log();
  3263     037D  2C56               	goto	l212
  3264     037E                     l6056:
  3265     037E  081F               	movf	main@reset_flag^(0+384),w
  3266     037F  1283               	bcf	3,5	;RP0=0, select bank0
  3267     0380  1303               	bcf	3,6	;RP1=0, select bank0
  3268     0381  00A5               	movwf	login_screen@reset_flag
  3269     0382  1683               	bsf	3,5	;RP0=1, select bank3
  3270     0383  1703               	bsf	3,6	;RP1=1, select bank3
  3271     0384  0824               	movf	main@key^(0+384),w
  3272     0385  120A  158A  208A  120A  118A  	fcall	_login_screen
  3273                           
  3274                           ; Switch size 1, requested type "simple"
  3275                           ; Number of cases is 2, Range of values is 37 to 38
  3276                           ; switch strategies available:
  3277                           ; Name         Instructions Cycles
  3278                           ; simple_byte            7     4 (average)
  3279                           ; direct_byte           17    11 (fixed)
  3280                           ; jumptable            263     9 (fixed)
  3281                           ;	Chosen strategy is simple_byte
  3282     038A  3A25               	xorlw	37	; case 37
  3283     038B  1903               	skipnz
  3284     038C  2B48               	goto	l6036
  3285     038D  3A03               	xorlw	3	; case 38
  3286     038E  1903               	skipnz
  3287     038F  2B62               	goto	l6046
  3288     0390  2C56               	goto	l212
  3289     0391                     l218:	
  3290                           ;main.c: 171:                                  download_log();
  3291                           
  3292                           
  3293                           ;main.c: 172:                                  break;
  3294     0391  1283               	bcf	3,5	;RP0=0, select bank0
  3295     0392  1303               	bcf	3,6	;RP1=0, select bank0
  3296     0393  1512               	bsf	18,2	;volatile
  3297     0394                     l6058:
  3298                           
  3299                           ;main.c: 173:             case 0x18 :
  3300     0394  1683               	bsf	3,5	;RP0=1, select bank3
  3301     0395  1703               	bsf	3,6	;RP1=1, select bank3
  3302     0396  0820               	movf	main@key2^(0+384),w
  3303     0397  160A  118A  25E3  120A  118A  	fcall	_menu_screen
  3304     039C  3A25               	xorlw	37
  3305     039D  1D03               	skipz
  3306     039E  2BA0               	goto	u7641
  3307     039F  2BA1               	goto	u7640
  3308     03A0                     u7641:
  3309     03A0  2C56               	goto	l212
  3310     03A1                     u7640:
  3311     03A1                     l6060:
  3312                           
  3313                           ;main.c: 174:                                  switch(set_time(key2))
  3314     03A1  3025               	movlw	37
  3315     03A2  1683               	bsf	3,5	;RP0=1, select bank3
  3316     03A3  1703               	bsf	3,6	;RP1=1, select bank3
  3317     03A4  00A7               	movwf	main@control_flag^(0+384)
  3318     03A5  2C56               	goto	l212
  3319     03A6                     l6062:
  3320                           
  3321                           ;main.c: 177:                                                         control_flag=0x02;
  3322     03A6  0824               	movf	main@key^(0+384),w
  3323     03A7  120A  118A  2649  120A  118A  	fcall	_view_log
  3324                           
  3325                           ;main.c: 179:                                     case 0x00:
  3326     03AC  2C56               	goto	l212
  3327     03AD                     l6064:
  3328                           
  3329                           ;main.c: 181:                                                         control_flag=0x00;
  3330     03AD  160A  158A  25D0  120A  118A  	fcall	_clear_log
  3331                           
  3332                           ;main.c: 182:                                                         break;
  3333     03B2  2C56               	goto	l212
  3334     03B3                     l6066:
  3335                           
  3336                           ;main.c: 184:                                  break;
  3337     03B3  160A  118A  26E5  120A  118A  	fcall	_download_log
  3338                           
  3339                           ;main.c: 185:             case 0x21:
  3340     03B8  2C56               	goto	l212
  3341     03B9                     l225:	
  3342                           ;main.c: 188:                                        case 0x33:;main.c: 189:            
      +                                                           clear_screen();
  3343                           
  3344                           
  3345                           ;main.c: 190:                                             clcd_write(0x0C,0);
  3346     03B9  3002               	movlw	2
  3347     03BA  1683               	bsf	3,5	;RP0=1, select bank3
  3348     03BB  1703               	bsf	3,6	;RP1=1, select bank3
  3349     03BC  00A7               	movwf	main@control_flag^(0+384)
  3350                           
  3351                           ;main.c: 191:                                             _delay((unsigned long)((100)*(
      +                          20000000/4000000.0)));
  3352     03BD  2C56               	goto	l212
  3353     03BE                     l6068:
  3354                           
  3355                           ;main.c: 193:                                             control_flag=0x02;
  3356     03BE  30A1               	movlw	(low (main@event| (0+256)))& (0+255)
  3357     03BF  00F2               	movwf	strcpy@dest
  3358     03C0  1683               	bsf	3,5	;RP0=1, select bank3
  3359     03C1  1703               	bsf	3,6	;RP1=1, select bank3
  3360     03C2  0825               	movf	main@gr^(0+384),w
  3361     03C3  1283               	bcf	3,5	;RP0=0, select bank0
  3362     03C4  1303               	bcf	3,6	;RP1=0, select bank0
  3363     03C5  00D0               	movwf	??_main
  3364     03C6  0750               	addwf	??_main,w
  3365     03C7  3E91               	addlw	(low (main@gear| (0+256)))& (0+255)
  3366     03C8  0084               	movwf	4
  3367     03C9  1783               	bsf	3,7	;select IRP bank3
  3368     03CA  0800               	movf	0,w
  3369     03CB  00F3               	movwf	strcpy@src
  3370     03CC  0A84               	incf	4,f
  3371     03CD  0800               	movf	0,w
  3372     03CE  0384               	decf	4,f
  3373     03CF  00F4               	movwf	strcpy@src+1
  3374     03D0  120A  158A  2003  120A  118A  	fcall	_strcpy
  3375     03D5                     l6070:
  3376                           
  3377                           ;main.c: 194:                                             reset_flag=0x20;
  3378     03D5  1683               	bsf	3,5	;RP0=1, select bank3
  3379     03D6  1703               	bsf	3,6	;RP1=1, select bank3
  3380     03D7  01A7               	clrf	main@control_flag^(0+384)
  3381                           
  3382                           ;main.c: 195:                                             break;
  3383     03D8  2C56               	goto	l212
  3384     03D9                     l6074:
  3385     03D9  0820               	movf	main@key2^(0+384),w
  3386     03DA  120A  158A  240F  120A  118A  	fcall	_set_time
  3387                           
  3388                           ; Switch size 1, requested type "simple"
  3389                           ; Number of cases is 2, Range of values is 0 to 2
  3390                           ; switch strategies available:
  3391                           ; Name         Instructions Cycles
  3392                           ; simple_byte            7     4 (average)
  3393                           ; direct_byte           17     8 (fixed)
  3394                           ; jumptable            260     6 (fixed)
  3395                           ;	Chosen strategy is simple_byte
  3396     03DF  3A00               	xorlw	0	; case 0
  3397     03E0  1903               	skipnz
  3398     03E1  2BBE               	goto	l6068
  3399     03E2  3A02               	xorlw	2	; case 2
  3400     03E3  1903               	skipnz
  3401     03E4  2BB9               	goto	l225
  3402     03E5  2C56               	goto	l212
  3403     03E6                     l6076:
  3404                           
  3405                           ;main.c: 202:                                    _delay((unsigned long)((100)*(20000000/
      +                          4000000.0)));
  3406     03E6  160A  158A  2575  120A  118A  	fcall	_clear_screen
  3407                           
  3408                           ;main.c: 203:                                     TMR2ON=0;
  3409     03EB  01F2               	clrf	clcd_write@mode
  3410     03EC  300C               	movlw	12
  3411     03ED  160A  118A  21B5  120A  118A  	fcall	_clcd_write
  3412     03F2                     l6078:
  3413                           
  3414                           ;main.c: 204:                                    break;
  3415     03F2  30A5               	movlw	165
  3416     03F3  1283               	bcf	3,5	;RP0=0, select bank0
  3417     03F4  1303               	bcf	3,6	;RP1=0, select bank0
  3418     03F5  00D0               	movwf	??_main
  3419     03F6                     u7687:
  3420     03F6  0BD0               	decfsz	??_main,f
  3421     03F7  2BF6               	goto	u7687
  3422     03F8  2BF9               	nop2
  3423     03F9                     l6080:
  3424                           
  3425                           ;main.c: 205:         }
  3426     03F9  30A1               	movlw	(low (main@event| (0+256)))& (0+255)
  3427     03FA  00F2               	movwf	strcpy@dest
  3428     03FB  1683               	bsf	3,5	;RP0=1, select bank3
  3429     03FC  1703               	bsf	3,6	;RP1=1, select bank3
  3430     03FD  0825               	movf	main@gr^(0+384),w
  3431     03FE  1283               	bcf	3,5	;RP0=0, select bank0
  3432     03FF  1303               	bcf	3,6	;RP1=0, select bank0
  3433     0400  00D0               	movwf	??_main
  3434     0401  0750               	addwf	??_main,w
  3435     0402  3E91               	addlw	(low (main@gear| (0+256)))& (0+255)
  3436     0403  0084               	movwf	4
  3437     0404  1783               	bsf	3,7	;select IRP bank3
  3438     0405  0800               	movf	0,w
  3439     0406  00F3               	movwf	strcpy@src
  3440     0407  0A84               	incf	4,f
  3441     0408  0800               	movf	0,w
  3442     0409  0384               	decf	4,f
  3443     040A  00F4               	movwf	strcpy@src+1
  3444     040B  120A  158A  2003  120A  118A  	fcall	_strcpy
  3445     0410                     l6082:
  3446                           
  3447                           ;main.c: 206:         reset_flag=0x20;
  3448     0410  3002               	movlw	2
  3449     0411  1683               	bsf	3,5	;RP0=1, select bank3
  3450     0412  1703               	bsf	3,6	;RP1=1, select bank3
  3451     0413  00A7               	movwf	main@control_flag^(0+384)
  3452     0414                     l6084:
  3453                           
  3454                           ;main.c: 207:     }
  3455     0414  3020               	movlw	32
  3456     0415  009F               	movwf	main@reset_flag^(0+384)
  3457                           
  3458                           ;main.c: 208:     return;
  3459     0416  2C56               	goto	l212
  3460     0417                     l6088:
  3461     0417  081F               	movf	main@reset_flag^(0+384),w
  3462     0418  1283               	bcf	3,5	;RP0=0, select bank0
  3463     0419  1303               	bcf	3,6	;RP1=0, select bank0
  3464     041A  00A5               	movwf	change_password@reset_flag
  3465     041B  1683               	bsf	3,5	;RP0=1, select bank3
  3466     041C  1703               	bsf	3,6	;RP1=1, select bank3
  3467     041D  0824               	movf	main@key^(0+384),w
  3468     041E  120A  118A  245E  120A  118A  	fcall	_change_password
  3469                           
  3470                           ; Switch size 1, requested type "simple"
  3471                           ; Number of cases is 1, Range of values is 51 to 51
  3472                           ; switch strategies available:
  3473                           ; Name         Instructions Cycles
  3474                           ; simple_byte            4     3 (average)
  3475                           ; direct_byte           14    11 (fixed)
  3476                           ; jumptable            263     9 (fixed)
  3477                           ;	Chosen strategy is simple_byte
  3478     0423  3A33               	xorlw	51	; case 51
  3479     0424  1903               	skipnz
  3480     0425  2BE6               	goto	l6076
  3481     0426  2C56               	goto	l212
  3482     0427                     l6090:
  3483     0427  160A  158A  2575  120A  118A  	fcall	_clear_screen
  3484     042C                     l6092:
  3485     042C  1683               	bsf	3,5	;RP0=1, select bank3
  3486     042D  1703               	bsf	3,6	;RP1=1, select bank3
  3487     042E  01A7               	clrf	main@control_flag^(0+384)
  3488     042F                     l6094:
  3489     042F  01F2               	clrf	clcd_write@mode
  3490     0430  300C               	movlw	12
  3491     0431  160A  118A  21B5  120A  118A  	fcall	_clcd_write
  3492     0436  2B57               	goto	l6042
  3493     0437                     l6102:
  3494     0437  1683               	bsf	3,5	;RP0=1, select bank3
  3495     0438  1703               	bsf	3,6	;RP1=1, select bank3
  3496     0439  0827               	movf	main@control_flag^(0+384),w
  3497                           
  3498                           ; Switch size 1, requested type "simple"
  3499                           ; Number of cases is 9, Range of values is 0 to 37
  3500                           ; switch strategies available:
  3501                           ; Name         Instructions Cycles
  3502                           ; simple_byte           28    15 (average)
  3503                           ; direct_byte          122     8 (fixed)
  3504                           ; jumptable            260     6 (fixed)
  3505                           ;	Chosen strategy is simple_byte
  3506     043A  3A00               	xorlw	0	; case 0
  3507     043B  1903               	skipnz
  3508     043C  2B38               	goto	l6034
  3509     043D  3A01               	xorlw	1	; case 1
  3510     043E  1903               	skipnz
  3511     043F  2B7E               	goto	l6056
  3512     0440  3A03               	xorlw	3	; case 2
  3513     0441  1903               	skipnz
  3514     0442  2B91               	goto	l218
  3515     0443  3A17               	xorlw	23	; case 21
  3516     0444  1903               	skipnz
  3517     0445  2BA6               	goto	l6062
  3518     0446  3A03               	xorlw	3	; case 22
  3519     0447  1903               	skipnz
  3520     0448  2BB3               	goto	l6066
  3521     0449  3A01               	xorlw	1	; case 23
  3522     044A  1903               	skipnz
  3523     044B  2BAD               	goto	l6064
  3524     044C  3A0F               	xorlw	15	; case 24
  3525     044D  1903               	skipnz
  3526     044E  2BD9               	goto	l6074
  3527     044F  3A39               	xorlw	57	; case 33
  3528     0450  1903               	skipnz
  3529     0451  2C17               	goto	l6088
  3530     0452  3A04               	xorlw	4	; case 37
  3531     0453  1903               	skipnz
  3532     0454  2C27               	goto	l6090
  3533     0455  2C56               	goto	l212
  3534     0456                     l212:
  3535     0456  3020               	movlw	32
  3536     0457  1683               	bsf	3,5	;RP0=1, select bank3
  3537     0458  1703               	bsf	3,6	;RP1=1, select bank3
  3538     0459  009F               	movwf	main@reset_flag^(0+384)
  3539     045A  2891               	goto	l5864
  3540     045B  120A  118A  280C   	ljmp	start
  3541     045E                     __end_of_main:
  3542                           
  3543                           	psect	text1
  3544     0649                     __ptext1:	
  3545 ;; *************** function _view_log *****************
  3546 ;; Defined at:
  3547 ;;		line 364 in file "car_black_box.c"
  3548 ;; Parameters:    Size  Location     Type
  3549 ;;  key             1    wreg     unsigned char 
  3550 ;; Auto vars:     Size  Location     Type
  3551 ;;  key             1   18[BANK0 ] unsigned char 
  3552 ;;  log_data       11    7[BANK0 ] unsigned char [11]
  3553 ;;  k               1   19[BANK0 ] unsigned char 
  3554 ;; Return value:  Size  Location     Type
  3555 ;;                  1    wreg      void 
  3556 ;; Registers used:
  3557 ;;		wreg, fsr0l, fsr0h, status,2, status,0, btemp+1, pclath, cstack
  3558 ;; Tracked objects:
  3559 ;;		On entry : 0/0
  3560 ;;		On exit  : 0/0
  3561 ;;		Unchanged: 0/0
  3562 ;; Data sizes:     COMMON   BANK0   BANK1   BANK3   BANK2
  3563 ;;      Params:         0       0       0       0       0
  3564 ;;      Locals:         0      13       0       0       0
  3565 ;;      Temps:          0       2       0       0       0
  3566 ;;      Totals:         0      15       0       0       0
  3567 ;;Total ram usage:       15 bytes
  3568 ;; Hardware stack levels used: 1
  3569 ;; Hardware stack levels required when called: 5
  3570 ;; This function calls:
  3571 ;;		___bmul
  3572 ;;		___wmul
  3573 ;;		_clcd_print
  3574 ;;		_clcd_putch
  3575 ;;		_read_externaleeprom
  3576 ;; This function is called by:
  3577 ;;		_main
  3578 ;; This function uses a non-reentrant model
  3579 ;;
  3580                           
  3581     0649                     _view_log:	
  3582                           ;psect for function _view_log
  3583                           
  3584                           
  3585                           ;incstack = 0
  3586                           ; Regs used in _view_log: [wreg-fsr0h+status,2+status,0+btemp+1+pclath+cstack]
  3587                           ;view_log@key stored from wreg
  3588     0649  1283               	bcf	3,5	;RP0=0, select bank0
  3589     064A  1303               	bcf	3,6	;RP1=0, select bank0
  3590     064B  00B2               	movwf	view_log@key
  3591     064C                     l4892:
  3592                           
  3593                           ;car_black_box.c: 364: void view_log(unsigned char key);car_black_box.c: 365: {;car_blac
      +                          k_box.c: 366:     unsigned char log_data[11],k;;car_black_box.c: 367:     static index=0
      +                          ;;car_black_box.c: 368:     if(key == 0x37)
  3594     064C  3037               	movlw	55
  3595     064D  0632               	xorwf	view_log@key,w
  3596     064E  1D03               	btfss	3,2
  3597     064F  2E51               	goto	u5791
  3598     0650  2E52               	goto	u5790
  3599     0651                     u5791:
  3600     0651  2E79               	goto	l4900
  3601     0652                     u5790:
  3602     0652                     l4894:
  3603                           
  3604                           ;car_black_box.c: 369:     {;car_black_box.c: 370:         if(index <= pos)
  3605     0652  0859               	movf	_pos+1,w
  3606     0653  3A80               	xorlw	128
  3607     0654  00A5               	movwf	??_view_log
  3608     0655  087A               	movf	view_log@index+1,w
  3609     0656  3A80               	xorlw	128
  3610     0657  0225               	subwf	??_view_log,w
  3611     0658  1D03               	skipz
  3612     0659  2E5C               	goto	u5805
  3613     065A  0879               	movf	view_log@index,w
  3614     065B  0258               	subwf	_pos,w
  3615     065C                     u5805:
  3616     065C  1C03               	skipc
  3617     065D  2E5F               	goto	u5801
  3618     065E  2E60               	goto	u5800
  3619     065F                     u5801:
  3620     065F  2E91               	goto	l4910
  3621     0660                     u5800:
  3622     0660                     l4896:
  3623                           
  3624                           ;car_black_box.c: 371:         {;car_black_box.c: 372:             index++;
  3625     0660  3001               	movlw	1
  3626     0661  07F9               	addwf	view_log@index,f
  3627     0662  1803               	skipnc
  3628     0663  0AFA               	incf	view_log@index+1,f
  3629     0664  3000               	movlw	0
  3630     0665  07FA               	addwf	view_log@index+1,f
  3631                           
  3632                           ;car_black_box.c: 373:         if(index>pos)
  3633     0666  1283               	bcf	3,5	;RP0=0, select bank0
  3634     0667  1303               	bcf	3,6	;RP1=0, select bank0
  3635     0668  0859               	movf	_pos+1,w
  3636     0669  3A80               	xorlw	128
  3637     066A  00A5               	movwf	??_view_log
  3638     066B  087A               	movf	view_log@index+1,w
  3639     066C  3A80               	xorlw	128
  3640     066D  0225               	subwf	??_view_log,w
  3641     066E  1D03               	skipz
  3642     066F  2E72               	goto	u5815
  3643     0670  0879               	movf	view_log@index,w
  3644     0671  0258               	subwf	_pos,w
  3645     0672                     u5815:
  3646     0672  1803               	skipnc
  3647     0673  2E75               	goto	u5811
  3648     0674  2E76               	goto	u5810
  3649     0675                     u5811:
  3650     0675  2E91               	goto	l4910
  3651     0676                     u5810:
  3652     0676                     l4898:
  3653                           
  3654                           ;car_black_box.c: 374:             index=0;
  3655     0676  01F9               	clrf	view_log@index
  3656     0677  01FA               	clrf	view_log@index+1
  3657     0678  2E91               	goto	l4910
  3658     0679                     l4900:
  3659     0679  302F               	movlw	47
  3660     067A  0632               	xorwf	view_log@key,w
  3661     067B  1D03               	btfss	3,2
  3662     067C  2E7E               	goto	u5821
  3663     067D  2E7F               	goto	u5820
  3664     067E                     u5821:
  3665     067E  2E91               	goto	l4910
  3666     067F                     u5820:
  3667     067F                     l4902:
  3668                           
  3669                           ;car_black_box.c: 378:     {;car_black_box.c: 380:         if(index >= 0)
  3670     067F  1BFA               	btfsc	view_log@index+1,7
  3671     0680  2E82               	goto	u5831
  3672     0681  2E83               	goto	u5830
  3673     0682                     u5831:
  3674     0682  2E91               	goto	l4910
  3675     0683                     u5830:
  3676     0683                     l4904:
  3677                           
  3678                           ;car_black_box.c: 381:         {;car_black_box.c: 382:             index--;
  3679     0683  30FF               	movlw	255
  3680     0684  07F9               	addwf	view_log@index,f
  3681     0685  1803               	skipnc
  3682     0686  0AFA               	incf	view_log@index+1,f
  3683     0687  30FF               	movlw	255
  3684     0688  07FA               	addwf	view_log@index+1,f
  3685     0689                     l4906:
  3686                           
  3687                           ;car_black_box.c: 383:         if(index<0)
  3688     0689  1FFA               	btfss	view_log@index+1,7
  3689     068A  2E8C               	goto	u5841
  3690     068B  2E8D               	goto	u5840
  3691     068C                     u5841:
  3692     068C  2E91               	goto	l4910
  3693     068D                     u5840:
  3694     068D                     l4908:
  3695                           
  3696                           ;car_black_box.c: 384:             index=pos;
  3697     068D  0859               	movf	_pos+1,w
  3698     068E  00FA               	movwf	view_log@index+1
  3699     068F  0858               	movf	_pos,w
  3700     0690  00F9               	movwf	view_log@index
  3701     0691                     l4910:
  3702                           
  3703                           ;car_black_box.c: 387:     if(pos == -1)
  3704     0691  1283               	bcf	3,5	;RP0=0, select bank0
  3705     0692  1303               	bcf	3,6	;RP1=0, select bank0
  3706     0693  0A58               	incf	_pos,w
  3707     0694  1D03               	skipz
  3708     0695  2E9A               	goto	u5851
  3709     0696  0A59               	incf	_pos+1,w
  3710     0697  1D03               	btfss	3,2
  3711     0698  2E9A               	goto	u5851
  3712     0699  2E9B               	goto	u5850
  3713     069A                     u5851:
  3714     069A  2EA7               	goto	l4916
  3715     069B                     u5850:
  3716     069B                     l4912:
  3717                           
  3718                           ;car_black_box.c: 388:     {;car_black_box.c: 389:         clcd_print ("No Logs present"
      +                          ,(0x80 + 0));
  3719     069B  3076               	movlw	low (STR_30| (0+32768))
  3720     069C  00F6               	movwf	clcd_print@str
  3721     069D  3090               	movlw	high (STR_30| (0+32768))
  3722     069E  00F7               	movwf	clcd_print@str+1
  3723     069F  3080               	movlw	128
  3724     06A0  00F8               	movwf	clcd_print@addr
  3725     06A1  160A  158A  273C  120A  118A  	fcall	_clcd_print
  3726     06A6  2F80               	goto	l436
  3727     06A7                     l4916:
  3728                           
  3729                           ;car_black_box.c: 392:     for(k=5+(10*index);k<16+(10*index);k++)
  3730     06A7  300A               	movlw	10
  3731     06A8  00F2               	movwf	___bmul@multiplicand
  3732     06A9  0879               	movf	view_log@index,w
  3733     06AA  160A  158A  25BD  120A  118A  	fcall	___bmul
  3734     06AF  3E05               	addlw	5
  3735     06B0  1283               	bcf	3,5	;RP0=0, select bank0
  3736     06B1  1303               	bcf	3,6	;RP1=0, select bank0
  3737     06B2  00B3               	movwf	view_log@k
  3738     06B3  2ED0               	goto	l4922
  3739     06B4                     l4918:
  3740                           
  3741                           ;car_black_box.c: 393:     {;car_black_box.c: 394:       log_data[k-(5+(10*index))]=read
      +                          _externaleeprom(k);
  3742     06B4  30F6               	movlw	246
  3743     06B5  00F2               	movwf	___bmul@multiplicand
  3744     06B6  0879               	movf	view_log@index,w
  3745     06B7  160A  158A  25BD  120A  118A  	fcall	___bmul
  3746     06BC  3E27               	addlw	(low (view_log@log_data| 0))& (0+255)
  3747     06BD  1283               	bcf	3,5	;RP0=0, select bank0
  3748     06BE  1303               	bcf	3,6	;RP1=0, select bank0
  3749     06BF  0733               	addwf	view_log@k,w
  3750     06C0  00A5               	movwf	??_view_log
  3751     06C1  0825               	movf	??_view_log,w
  3752     06C2  3EFB               	addlw	-5
  3753     06C3  0084               	movwf	4
  3754     06C4  0833               	movf	view_log@k,w
  3755     06C5  160A  158A  2711  120A  118A  	fcall	_read_externaleeprom
  3756     06CA  1383               	bcf	3,7	;select IRP bank0
  3757     06CB  0080               	movwf	0
  3758     06CC                     l4920:
  3759                           
  3760                           ;car_black_box.c: 395:     }
  3761     06CC  3001               	movlw	1
  3762     06CD  1283               	bcf	3,5	;RP0=0, select bank0
  3763     06CE  1303               	bcf	3,6	;RP1=0, select bank0
  3764     06CF  07B3               	addwf	view_log@k,f
  3765     06D0                     l4922:
  3766     06D0  087A               	movf	view_log@index+1,w
  3767     06D1  00F3               	movwf	___wmul@multiplier+1
  3768     06D2  0879               	movf	view_log@index,w
  3769     06D3  00F2               	movwf	___wmul@multiplier
  3770     06D4  300A               	movlw	10
  3771     06D5  00F4               	movwf	___wmul@multiplicand
  3772     06D6  3000               	movlw	0
  3773     06D7  00F5               	movwf	___wmul@multiplicand+1
  3774     06D8  160A  158A  264A  120A  118A  	fcall	___wmul
  3775     06DD  0872               	movf	?___wmul,w
  3776     06DE  3E10               	addlw	16
  3777     06DF  1283               	bcf	3,5	;RP0=0, select bank0
  3778     06E0  1303               	bcf	3,6	;RP1=0, select bank0
  3779     06E1  00A5               	movwf	??_view_log
  3780     06E2  0873               	movf	?___wmul+1,w
  3781     06E3  1803               	skipnc
  3782     06E4  3E01               	addlw	1
  3783     06E5  3E00               	addlw	0
  3784     06E6  00A6               	movwf	??_view_log+1
  3785     06E7  0826               	movf	??_view_log+1,w
  3786     06E8  3A80               	xorlw	128
  3787     06E9  3C80               	sublw	128
  3788     06EA  1D03               	skipz
  3789     06EB  2EEE               	goto	u5865
  3790     06EC  0825               	movf	??_view_log,w
  3791     06ED  0233               	subwf	view_log@k,w
  3792     06EE                     u5865:
  3793     06EE  1C03               	skipc
  3794     06EF  2EF1               	goto	u5861
  3795     06F0  2EF2               	goto	u5860
  3796     06F1                     u5861:
  3797     06F1  2EB4               	goto	l4918
  3798     06F2                     u5860:
  3799     06F2                     l4924:
  3800                           
  3801                           ;car_black_box.c: 396:     clcd_print ("# TIME     E  SP",(0x80 + 0));
  3802     06F2  3012               	movlw	low (STR_31| (0+32768))
  3803     06F3  00F6               	movwf	clcd_print@str
  3804     06F4  3090               	movlw	high (STR_31| (0+32768))
  3805     06F5  00F7               	movwf	clcd_print@str+1
  3806     06F6  3080               	movlw	128
  3807     06F7  00F8               	movwf	clcd_print@addr
  3808     06F8  160A  158A  273C  120A  118A  	fcall	_clcd_print
  3809     06FD                     l4926:
  3810                           
  3811                           ;car_black_box.c: 397:     clcd_putch (index+'0',(0xC0 + 0));
  3812     06FD  30C0               	movlw	192
  3813     06FE  1283               	bcf	3,5	;RP0=0, select bank0
  3814     06FF  1303               	bcf	3,6	;RP1=0, select bank0
  3815     0700  00A4               	movwf	clcd_putch@addr
  3816     0701  0879               	movf	view_log@index,w
  3817     0702  3E30               	addlw	48
  3818     0703  160A  158A  25AA  120A  118A  	fcall	_clcd_putch
  3819     0708                     l4928:
  3820                           
  3821                           ;car_black_box.c: 398:     clcd_putch (log_data[0],(0xC0 + 2));
  3822     0708  30C2               	movlw	194
  3823     0709  1283               	bcf	3,5	;RP0=0, select bank0
  3824     070A  1303               	bcf	3,6	;RP1=0, select bank0
  3825     070B  00A4               	movwf	clcd_putch@addr
  3826     070C  0827               	movf	view_log@log_data,w
  3827     070D  160A  158A  25AA  120A  118A  	fcall	_clcd_putch
  3828     0712                     l4930:
  3829                           
  3830                           ;car_black_box.c: 399:     clcd_putch (log_data[1],(0xC0 + 3));
  3831     0712  30C3               	movlw	195
  3832     0713  1283               	bcf	3,5	;RP0=0, select bank0
  3833     0714  1303               	bcf	3,6	;RP1=0, select bank0
  3834     0715  00A4               	movwf	clcd_putch@addr
  3835     0716  0828               	movf	view_log@log_data+1,w
  3836     0717  160A  158A  25AA  120A  118A  	fcall	_clcd_putch
  3837     071C                     l4932:
  3838                           
  3839                           ;car_black_box.c: 400:     clcd_putch(':',(0xC0 + 4));
  3840     071C  30C4               	movlw	196
  3841     071D  1283               	bcf	3,5	;RP0=0, select bank0
  3842     071E  1303               	bcf	3,6	;RP1=0, select bank0
  3843     071F  00A4               	movwf	clcd_putch@addr
  3844     0720  303A               	movlw	58
  3845     0721  160A  158A  25AA  120A  118A  	fcall	_clcd_putch
  3846     0726                     l4934:
  3847                           
  3848                           ;car_black_box.c: 401:     clcd_putch (log_data[2],(0xC0 + 5));
  3849     0726  30C5               	movlw	197
  3850     0727  1283               	bcf	3,5	;RP0=0, select bank0
  3851     0728  1303               	bcf	3,6	;RP1=0, select bank0
  3852     0729  00A4               	movwf	clcd_putch@addr
  3853     072A  0829               	movf	view_log@log_data+2,w
  3854     072B  160A  158A  25AA  120A  118A  	fcall	_clcd_putch
  3855     0730                     l4936:
  3856                           
  3857                           ;car_black_box.c: 402:     clcd_putch (log_data[3],(0xC0 + 6));
  3858     0730  30C6               	movlw	198
  3859     0731  1283               	bcf	3,5	;RP0=0, select bank0
  3860     0732  1303               	bcf	3,6	;RP1=0, select bank0
  3861     0733  00A4               	movwf	clcd_putch@addr
  3862     0734  082A               	movf	view_log@log_data+3,w
  3863     0735  160A  158A  25AA  120A  118A  	fcall	_clcd_putch
  3864     073A                     l4938:
  3865                           
  3866                           ;car_black_box.c: 403:     clcd_putch(':',(0xC0 + 7));
  3867     073A  30C7               	movlw	199
  3868     073B  1283               	bcf	3,5	;RP0=0, select bank0
  3869     073C  1303               	bcf	3,6	;RP1=0, select bank0
  3870     073D  00A4               	movwf	clcd_putch@addr
  3871     073E  303A               	movlw	58
  3872     073F  160A  158A  25AA  120A  118A  	fcall	_clcd_putch
  3873     0744                     l4940:
  3874                           
  3875                           ;car_black_box.c: 404:     clcd_putch (log_data[4],(0xC0 + 8));
  3876     0744  30C8               	movlw	200
  3877     0745  1283               	bcf	3,5	;RP0=0, select bank0
  3878     0746  1303               	bcf	3,6	;RP1=0, select bank0
  3879     0747  00A4               	movwf	clcd_putch@addr
  3880     0748  082B               	movf	view_log@log_data+4,w
  3881     0749  160A  158A  25AA  120A  118A  	fcall	_clcd_putch
  3882     074E                     l4942:
  3883                           
  3884                           ;car_black_box.c: 405:     clcd_putch (log_data[5],(0xC0 + 9));
  3885     074E  30C9               	movlw	201
  3886     074F  1283               	bcf	3,5	;RP0=0, select bank0
  3887     0750  1303               	bcf	3,6	;RP1=0, select bank0
  3888     0751  00A4               	movwf	clcd_putch@addr
  3889     0752  082C               	movf	view_log@log_data+5,w
  3890     0753  160A  158A  25AA  120A  118A  	fcall	_clcd_putch
  3891     0758                     l4944:
  3892                           
  3893                           ;car_black_box.c: 406:     clcd_putch (log_data[6],(0xC0 + 11));
  3894     0758  30CB               	movlw	203
  3895     0759  1283               	bcf	3,5	;RP0=0, select bank0
  3896     075A  1303               	bcf	3,6	;RP1=0, select bank0
  3897     075B  00A4               	movwf	clcd_putch@addr
  3898     075C  082D               	movf	view_log@log_data+6,w
  3899     075D  160A  158A  25AA  120A  118A  	fcall	_clcd_putch
  3900     0762                     l4946:
  3901                           
  3902                           ;car_black_box.c: 407:     clcd_putch (log_data[7],(0xC0 + 12));
  3903     0762  30CC               	movlw	204
  3904     0763  1283               	bcf	3,5	;RP0=0, select bank0
  3905     0764  1303               	bcf	3,6	;RP1=0, select bank0
  3906     0765  00A4               	movwf	clcd_putch@addr
  3907     0766  082E               	movf	view_log@log_data+7,w
  3908     0767  160A  158A  25AA  120A  118A  	fcall	_clcd_putch
  3909     076C                     l4948:
  3910                           
  3911                           ;car_black_box.c: 408:     clcd_putch (log_data[8],(0xC0 + 14));
  3912     076C  30CE               	movlw	206
  3913     076D  1283               	bcf	3,5	;RP0=0, select bank0
  3914     076E  1303               	bcf	3,6	;RP1=0, select bank0
  3915     076F  00A4               	movwf	clcd_putch@addr
  3916     0770  082F               	movf	view_log@log_data+8,w
  3917     0771  160A  158A  25AA  120A  118A  	fcall	_clcd_putch
  3918     0776                     l4950:
  3919                           
  3920                           ;car_black_box.c: 409:     clcd_putch (log_data[9],(0xC0 + 15));
  3921     0776  30CF               	movlw	207
  3922     0777  1283               	bcf	3,5	;RP0=0, select bank0
  3923     0778  1303               	bcf	3,6	;RP1=0, select bank0
  3924     0779  00A4               	movwf	clcd_putch@addr
  3925     077A  0830               	movf	view_log@log_data+9,w
  3926     077B  160A  158A  25AA  120A  118A  	fcall	_clcd_putch
  3927     0780                     l436:
  3928     0780  0008               	return
  3929     0781                     __end_of_view_log:
  3930                           
  3931                           	psect	text2
  3932     0803                     __ptext2:	
  3933 ;; *************** function _strcpy *****************
  3934 ;; Defined at:
  3935 ;;		line 3 in file "C:\Program Files\Microchip\xc8\v2.50\pic\sources\c99\common\strcpy.c"
  3936 ;; Parameters:    Size  Location     Type
  3937 ;;  dest            1    2[COMMON] PTR unsigned char 
  3938 ;;		 -> main@event(3), 
  3939 ;;  src             2    3[COMMON] PTR const unsigned char 
  3940 ;;		 -> STR_14(3), STR_13(3), STR_12(3), STR_11(3), 
  3941 ;;		 -> STR_10(3), STR_8(3), STR_6(3), STR_5(3), 
  3942 ;;		 -> STR_4(3), STR_3(3), STR_2(3), STR_1(3), 
  3943 ;; Auto vars:     Size  Location     Type
  3944 ;;  d               1    7[COMMON] PTR unsigned char 
  3945 ;;		 -> main@event(3), 
  3946 ;; Return value:  Size  Location     Type
  3947 ;;                  1    2[COMMON] PTR unsigned char 
  3948 ;; Registers used:
  3949 ;;		wreg, fsr0l, fsr0h, status,2, status,0, btemp+1, pclath
  3950 ;; Tracked objects:
  3951 ;;		On entry : 0/0
  3952 ;;		On exit  : 0/0
  3953 ;;		Unchanged: 0/0
  3954 ;; Data sizes:     COMMON   BANK0   BANK1   BANK3   BANK2
  3955 ;;      Params:         3       0       0       0       0
  3956 ;;      Locals:         1       0       0       0       0
  3957 ;;      Temps:          2       0       0       0       0
  3958 ;;      Totals:         6       0       0       0       0
  3959 ;;Total ram usage:        6 bytes
  3960 ;; Hardware stack levels used: 2
  3961 ;; Hardware stack levels required when called: 1
  3962 ;; This function calls:
  3963 ;;		Nothing
  3964 ;; This function is called by:
  3965 ;;		_main
  3966 ;; This function uses a non-reentrant model
  3967 ;;
  3968                           
  3969     0803                     _strcpy:	
  3970                           ;psect for function _strcpy
  3971                           
  3972     0803                     l4698:	
  3973                           ;incstack = 0
  3974                           ; Regs used in _strcpy: [wreg-fsr0h+status,2+status,0+btemp+1+pclath]
  3975                           
  3976     0803  0872               	movf	strcpy@dest,w
  3977     0804  00F7               	movwf	strcpy@d
  3978     0805                     l4700:
  3979     0805  0874               	movf	strcpy@src+1,w
  3980     0806  00F6               	movwf	??_strcpy+1
  3981     0807  0873               	movf	strcpy@src,w
  3982     0808  00F5               	movwf	??_strcpy
  3983     0809  0AF3               	incf	strcpy@src,f
  3984     080A  1903               	skipnz
  3985     080B  0AF4               	incf	strcpy@src+1,f
  3986     080C  0876               	movf	??_strcpy+1,w
  3987     080D  1283               	bcf	3,5	;RP0=0, select bank0
  3988     080E  1303               	bcf	3,6	;RP1=0, select bank0
  3989     080F  00FF               	movwf	btemp+1
  3990     0810  0875               	movf	??_strcpy,w
  3991     0811  0084               	movwf	4
  3992     0812  160A  158A  2000  120A  158A  	fcall	stringtab
  3993     0817  00FF               	movwf	btemp+1
  3994     0818  0877               	movf	strcpy@d,w
  3995     0819  0AF7               	incf	strcpy@d,f
  3996     081A  0084               	movwf	4
  3997     081B  087F               	movf	btemp+1,w
  3998     081C  1783               	bsf	3,7	;select IRP bank2
  3999     081D  0080               	movwf	0
  4000     081E  0800               	movf	0,w
  4001     081F  1D03               	btfss	3,2
  4002     0820  2822               	goto	u5531
  4003     0821  2823               	goto	u5530
  4004     0822                     u5531:
  4005     0822  2805               	goto	l4700
  4006     0823                     u5530:
  4007     0823                     l1135:
  4008     0823  0008               	return
  4009     0824                     __end_of_strcpy:
  4010                           
  4011                           	psect	text3
  4012     0C0F                     __ptext3:	
  4013 ;; *************** function _set_time *****************
  4014 ;; Defined at:
  4015 ;;		line 171 in file "car_black_box.c"
  4016 ;; Parameters:    Size  Location     Type
  4017 ;;  key             1    wreg     unsigned char 
  4018 ;; Auto vars:     Size  Location     Type
  4019 ;;  key             1    8[BANK0 ] unsigned char 
  4020 ;; Return value:  Size  Location     Type
  4021 ;;                  1    wreg      unsigned char 
  4022 ;; Registers used:
  4023 ;;		wreg, fsr0l, fsr0h, status,2, status,0, btemp+1, pclath, cstack
  4024 ;; Tracked objects:
  4025 ;;		On entry : 0/0
  4026 ;;		On exit  : 0/0
  4027 ;;		Unchanged: 0/0
  4028 ;; Data sizes:     COMMON   BANK0   BANK1   BANK3   BANK2
  4029 ;;      Params:         0       0       0       0       0
  4030 ;;      Locals:         0       1       0       0       0
  4031 ;;      Temps:          0       3       0       0       0
  4032 ;;      Totals:         0       4       0       0       0
  4033 ;;Total ram usage:        4 bytes
  4034 ;; Hardware stack levels used: 1
  4035 ;; Hardware stack levels required when called: 4
  4036 ;; This function calls:
  4037 ;;		_clcd_print
  4038 ;;		_clcd_putch
  4039 ;;		_clear_screen
  4040 ;;		_write_ds1307
  4041 ;; This function is called by:
  4042 ;;		_main
  4043 ;; This function uses a non-reentrant model
  4044 ;;
  4045                           
  4046     0C0F                     _set_time:	
  4047                           ;psect for function _set_time
  4048                           
  4049                           
  4050                           ;incstack = 0
  4051                           ; Regs used in _set_time: [wreg-fsr0h+status,2+status,0+btemp+1+pclath+cstack]
  4052                           ;set_time@key stored from wreg
  4053     0C0F  1283               	bcf	3,5	;RP0=0, select bank0
  4054     0C10  1303               	bcf	3,6	;RP1=0, select bank0
  4055     0C11  00A8               	movwf	set_time@key
  4056     0C12                     l4988:
  4057                           
  4058                           ;car_black_box.c: 171: unsigned char set_time(unsigned char key);car_black_box.c: 172: {
      +                          ;car_black_box.c: 173:     static char sec_flag=0,min_flag=0,hour_flag=0,time_pos=0,dela
      +                          y=0,display=0,sw_flag=0;;car_black_box.c: 174:     static unsigned char delay1=0,flag5=0
      +                          ,flag6=0;;car_black_box.c: 175:     if(delay++==2)
  4059     0C12  3001               	movlw	1
  4060     0C13  1683               	bsf	3,5	;RP0=1, select bank1
  4061     0C14  1303               	bcf	3,6	;RP1=0, select bank1
  4062     0C15  07B1               	addwf	set_time@delay^(0+128),f
  4063     0C16  3003               	movlw	3
  4064     0C17  0631               	xorwf	set_time@delay^(0+128),w
  4065     0C18  1D03               	btfss	3,2
  4066     0C19  2C1B               	goto	u5931
  4067     0C1A  2C1C               	goto	u5930
  4068     0C1B                     u5931:
  4069     0C1B  2C1F               	goto	l4994
  4070     0C1C                     u5930:
  4071     0C1C                     l4990:
  4072                           
  4073                           ;car_black_box.c: 176:     {;car_black_box.c: 177:         display=1;
  4074     0C1C  3001               	movlw	1
  4075     0C1D  00B0               	movwf	set_time@display^(0+128)
  4076     0C1E                     l4992:
  4077                           
  4078                           ;car_black_box.c: 178:         delay=0;
  4079     0C1E  01B1               	clrf	set_time@delay^(0+128)
  4080     0C1F                     l4994:
  4081                           
  4082                           ;car_black_box.c: 180:     if( key == 0x2F)
  4083     0C1F  302F               	movlw	47
  4084     0C20  1283               	bcf	3,5	;RP0=0, select bank0
  4085     0C21  1303               	bcf	3,6	;RP1=0, select bank0
  4086     0C22  0628               	xorwf	set_time@key,w
  4087     0C23  1D03               	btfss	3,2
  4088     0C24  2C26               	goto	u5941
  4089     0C25  2C27               	goto	u5940
  4090     0C26                     u5941:
  4091     0C26  2C6C               	goto	l5016
  4092     0C27                     u5940:
  4093     0C27                     l4996:
  4094                           
  4095                           ;car_black_box.c: 181:     {;car_black_box.c: 182:         flag5=1;
  4096     0C27  3001               	movlw	1
  4097     0C28  1683               	bsf	3,5	;RP0=1, select bank1
  4098     0C29  1303               	bcf	3,6	;RP1=0, select bank1
  4099     0C2A  00AD               	movwf	set_time@flag5^(0+128)
  4100     0C2B                     l4998:
  4101                           
  4102                           ;car_black_box.c: 183:         if(delay1++>20)
  4103     0C2B  3001               	movlw	1
  4104     0C2C  07AE               	addwf	set_time@delay1^(0+128),f
  4105     0C2D  30FF               	movlw	-1
  4106     0C2E  072E               	addwf	set_time@delay1^(0+128),w
  4107     0C2F  1283               	bcf	3,5	;RP0=0, select bank0
  4108     0C30  1303               	bcf	3,6	;RP1=0, select bank0
  4109     0C31  00A5               	movwf	??_set_time
  4110     0C32  3015               	movlw	21
  4111     0C33  0225               	subwf	??_set_time,w
  4112     0C34  1C03               	skipc
  4113     0C35  2C37               	goto	u5951
  4114     0C36  2C38               	goto	u5950
  4115     0C37                     u5951:
  4116     0C37  2C8F               	goto	l5028
  4117     0C38                     u5950:
  4118     0C38                     l5000:
  4119                           
  4120                           ;car_black_box.c: 184:         {;car_black_box.c: 185:             delay1=0;
  4121     0C38  1683               	bsf	3,5	;RP0=1, select bank1
  4122     0C39  1303               	bcf	3,6	;RP1=0, select bank1
  4123     0C3A  01AE               	clrf	set_time@delay1^(0+128)
  4124     0C3B                     l5002:
  4125                           
  4126                           ;car_black_box.c: 186:             clear_screen();
  4127     0C3B  160A  158A  2575  120A  158A  	fcall	_clear_screen
  4128     0C40                     l5004:
  4129                           
  4130                           ;car_black_box.c: 187:             clcd_print ("Time Changed",(0x80 + 2));
  4131     0C40  30CE               	movlw	low (STR_25| (0+32768))
  4132     0C41  00F6               	movwf	clcd_print@str
  4133     0C42  3090               	movlw	high (STR_25| (0+32768))
  4134     0C43  00F7               	movwf	clcd_print@str+1
  4135     0C44  3082               	movlw	130
  4136     0C45  00F8               	movwf	clcd_print@addr
  4137     0C46  160A  158A  273C  120A  158A  	fcall	_clcd_print
  4138     0C4B                     l5006:
  4139                           
  4140                           ;car_black_box.c: 188:             clcd_print ("Successfully",(0xC0 + 2));
  4141     0C4B  30F5               	movlw	low (STR_24| (0+32768))
  4142     0C4C  00F6               	movwf	clcd_print@str
  4143     0C4D  3090               	movlw	high (STR_24| (0+32768))
  4144     0C4E  00F7               	movwf	clcd_print@str+1
  4145     0C4F  30C2               	movlw	194
  4146     0C50  00F8               	movwf	clcd_print@addr
  4147     0C51  160A  158A  273C  120A  158A  	fcall	_clcd_print
  4148     0C56                     l5008:
  4149                           
  4150                           ;car_black_box.c: 189:             _delay((unsigned long)((1500)*(20000000/4000.0)));
  4151     0C56  3027               	movlw	39
  4152     0C57  1283               	bcf	3,5	;RP0=0, select bank0
  4153     0C58  1303               	bcf	3,6	;RP1=0, select bank0
  4154     0C59  00A7               	movwf	??_set_time+2
  4155     0C5A  300D               	movlw	13
  4156     0C5B  00A6               	movwf	??_set_time+1
  4157     0C5C  3025               	movlw	37
  4158     0C5D  00A5               	movwf	??_set_time
  4159     0C5E                     u7697:
  4160     0C5E  0BA5               	decfsz	??_set_time,f
  4161     0C5F  2C5E               	goto	u7697
  4162     0C60  0BA6               	decfsz	??_set_time+1,f
  4163     0C61  2C5E               	goto	u7697
  4164     0C62  0BA7               	decfsz	??_set_time+2,f
  4165     0C63  2C5E               	goto	u7697
  4166     0C64  2C65               	nop2
  4167     0C65                     l5010:
  4168                           
  4169                           ;car_black_box.c: 190:             clear_screen();
  4170     0C65  160A  158A  2575  120A  158A  	fcall	_clear_screen
  4171     0C6A                     l5012:
  4172                           
  4173                           ;car_black_box.c: 191:             return 0x00;
  4174     0C6A  3000               	movlw	0
  4175     0C6B  2FFF               	goto	l390
  4176     0C6C                     l5016:
  4177     0C6C  303F               	movlw	63
  4178     0C6D  0628               	xorwf	set_time@key,w
  4179     0C6E  1D03               	btfss	3,2
  4180     0C6F  2C71               	goto	u5961
  4181     0C70  2C72               	goto	u5960
  4182     0C71                     u5961:
  4183     0C71  2C8F               	goto	l5028
  4184     0C72                     u5960:
  4185     0C72                     l5018:
  4186     0C72  1683               	bsf	3,5	;RP0=1, select bank1
  4187     0C73  1303               	bcf	3,6	;RP1=0, select bank1
  4188     0C74  032D               	decf	set_time@flag5^(0+128),w
  4189     0C75  1D03               	btfss	3,2
  4190     0C76  2C78               	goto	u5971
  4191     0C77  2C79               	goto	u5970
  4192     0C78                     u5971:
  4193     0C78  2C8F               	goto	l5028
  4194     0C79                     u5970:
  4195     0C79                     l5020:
  4196     0C79  3003               	movlw	3
  4197     0C7A  027B               	subwf	set_time@time_pos,w
  4198     0C7B  1803               	skipnc
  4199     0C7C  2C7E               	goto	u5981
  4200     0C7D  2C7F               	goto	u5980
  4201     0C7E                     u5981:
  4202     0C7E  2C8F               	goto	l5028
  4203     0C7F                     u5980:
  4204     0C7F                     l5022:
  4205     0C7F  082E               	movf	set_time@delay1^(0+128),w
  4206     0C80  1903               	btfsc	3,2
  4207     0C81  2C83               	goto	u5991
  4208     0C82  2C84               	goto	u5990
  4209     0C83                     u5991:
  4210     0C83  2C8F               	goto	l5028
  4211     0C84                     u5990:
  4212     0C84                     l5024:
  4213                           
  4214                           ;car_black_box.c: 195:    {;car_black_box.c: 196:         time_pos++;
  4215     0C84  3001               	movlw	1
  4216     0C85  07FB               	addwf	set_time@time_pos,f
  4217                           
  4218                           ;car_black_box.c: 197:         if(time_pos==3)
  4219     0C86  3003               	movlw	3
  4220     0C87  067B               	xorwf	set_time@time_pos,w
  4221     0C88  1D03               	btfss	3,2
  4222     0C89  2C8B               	goto	u6001
  4223     0C8A  2C8C               	goto	u6000
  4224     0C8B                     u6001:
  4225     0C8B  2C8D               	goto	l393
  4226     0C8C                     u6000:
  4227     0C8C                     l5026:
  4228                           
  4229                           ;car_black_box.c: 198:             time_pos=0;
  4230     0C8C  01FB               	clrf	set_time@time_pos
  4231     0C8D                     l393:
  4232                           
  4233                           ;car_black_box.c: 199:         flag5=0;
  4234     0C8D  01AD               	clrf	set_time@flag5^(0+128)
  4235                           
  4236                           ;car_black_box.c: 200:         delay1=0;
  4237     0C8E  01AE               	clrf	set_time@delay1^(0+128)
  4238     0C8F                     l5028:
  4239                           
  4240                           ;car_black_box.c: 202:     if( key == 0x37)
  4241     0C8F  3037               	movlw	55
  4242     0C90  1283               	bcf	3,5	;RP0=0, select bank0
  4243     0C91  0628               	xorwf	set_time@key,w
  4244     0C92  1D03               	btfss	3,2
  4245     0C93  2C95               	goto	u6011
  4246     0C94  2C96               	goto	u6010
  4247     0C95                     u6011:
  4248     0C95  2CDB               	goto	l5050
  4249     0C96                     u6010:
  4250     0C96                     l5030:
  4251                           
  4252                           ;car_black_box.c: 203:     {;car_black_box.c: 204:         flag6=1;
  4253     0C96  3001               	movlw	1
  4254     0C97  1683               	bsf	3,5	;RP0=1, select bank1
  4255     0C98  1303               	bcf	3,6	;RP1=0, select bank1
  4256     0C99  00AC               	movwf	set_time@flag6^(0+128)
  4257     0C9A                     l5032:
  4258                           
  4259                           ;car_black_box.c: 205:         if(delay1++>20)
  4260     0C9A  3001               	movlw	1
  4261     0C9B  07AE               	addwf	set_time@delay1^(0+128),f
  4262     0C9C  30FF               	movlw	-1
  4263     0C9D  072E               	addwf	set_time@delay1^(0+128),w
  4264     0C9E  1283               	bcf	3,5	;RP0=0, select bank0
  4265     0C9F  1303               	bcf	3,6	;RP1=0, select bank0
  4266     0CA0  00A5               	movwf	??_set_time
  4267     0CA1  3015               	movlw	21
  4268     0CA2  0225               	subwf	??_set_time,w
  4269     0CA3  1C03               	skipc
  4270     0CA4  2CA6               	goto	u6021
  4271     0CA5  2CA7               	goto	u6020
  4272     0CA6                     u6021:
  4273     0CA6  2CF6               	goto	l5062
  4274     0CA7                     u6020:
  4275     0CA7                     l5034:
  4276                           
  4277                           ;car_black_box.c: 206:         {;car_black_box.c: 207:             delay1=0;
  4278     0CA7  1683               	bsf	3,5	;RP0=1, select bank1
  4279     0CA8  1303               	bcf	3,6	;RP1=0, select bank1
  4280     0CA9  01AE               	clrf	set_time@delay1^(0+128)
  4281     0CAA                     l5036:
  4282                           
  4283                           ;car_black_box.c: 208:             clear_screen();
  4284     0CAA  160A  158A  2575  120A  158A  	fcall	_clear_screen
  4285     0CAF                     l5038:
  4286                           
  4287                           ;car_black_box.c: 209:             clcd_print ("Time Changed",(0x80 + 2));
  4288     0CAF  30CE               	movlw	low (STR_25| (0+32768))
  4289     0CB0  00F6               	movwf	clcd_print@str
  4290     0CB1  3090               	movlw	high (STR_25| (0+32768))
  4291     0CB2  00F7               	movwf	clcd_print@str+1
  4292     0CB3  3082               	movlw	130
  4293     0CB4  00F8               	movwf	clcd_print@addr
  4294     0CB5  160A  158A  273C  120A  158A  	fcall	_clcd_print
  4295     0CBA                     l5040:
  4296                           
  4297                           ;car_black_box.c: 210:             clcd_print ("Successfully",(0xC0 + 2));
  4298     0CBA  30F5               	movlw	low (STR_24| (0+32768))
  4299     0CBB  00F6               	movwf	clcd_print@str
  4300     0CBC  3090               	movlw	high (STR_24| (0+32768))
  4301     0CBD  00F7               	movwf	clcd_print@str+1
  4302     0CBE  30C2               	movlw	194
  4303     0CBF  00F8               	movwf	clcd_print@addr
  4304     0CC0  160A  158A  273C  120A  158A  	fcall	_clcd_print
  4305     0CC5                     l5042:
  4306                           
  4307                           ;car_black_box.c: 211:             _delay((unsigned long)((1500)*(20000000/4000.0)));
  4308     0CC5  3027               	movlw	39
  4309     0CC6  1283               	bcf	3,5	;RP0=0, select bank0
  4310     0CC7  1303               	bcf	3,6	;RP1=0, select bank0
  4311     0CC8  00A7               	movwf	??_set_time+2
  4312     0CC9  300D               	movlw	13
  4313     0CCA  00A6               	movwf	??_set_time+1
  4314     0CCB  3025               	movlw	37
  4315     0CCC  00A5               	movwf	??_set_time
  4316     0CCD                     u7707:
  4317     0CCD  0BA5               	decfsz	??_set_time,f
  4318     0CCE  2CCD               	goto	u7707
  4319     0CCF  0BA6               	decfsz	??_set_time+1,f
  4320     0CD0  2CCD               	goto	u7707
  4321     0CD1  0BA7               	decfsz	??_set_time+2,f
  4322     0CD2  2CCD               	goto	u7707
  4323     0CD3  2CD4               	nop2
  4324     0CD4                     l5044:
  4325                           
  4326                           ;car_black_box.c: 212:             clear_screen();
  4327     0CD4  160A  158A  2575  120A  158A  	fcall	_clear_screen
  4328     0CD9                     l5046:
  4329                           
  4330                           ;car_black_box.c: 213:             return 0x02;
  4331     0CD9  3002               	movlw	2
  4332     0CDA  2FFF               	goto	l390
  4333     0CDB                     l5050:
  4334     0CDB  303F               	movlw	63
  4335     0CDC  0628               	xorwf	set_time@key,w
  4336     0CDD  1D03               	btfss	3,2
  4337     0CDE  2CE0               	goto	u6031
  4338     0CDF  2CE1               	goto	u6030
  4339     0CE0                     u6031:
  4340     0CE0  2CF6               	goto	l5062
  4341     0CE1                     u6030:
  4342     0CE1                     l5052:
  4343     0CE1  1683               	bsf	3,5	;RP0=1, select bank1
  4344     0CE2  1303               	bcf	3,6	;RP1=0, select bank1
  4345     0CE3  032C               	decf	set_time@flag6^(0+128),w
  4346     0CE4  1D03               	btfss	3,2
  4347     0CE5  2CE7               	goto	u6041
  4348     0CE6  2CE8               	goto	u6040
  4349     0CE7                     u6041:
  4350     0CE7  2CF6               	goto	l5062
  4351     0CE8                     u6040:
  4352     0CE8                     l5054:
  4353     0CE8  082F               	movf	set_time@sw_flag^(0+128),w
  4354     0CE9  1D03               	btfss	3,2
  4355     0CEA  2CEC               	goto	u6051
  4356     0CEB  2CED               	goto	u6050
  4357     0CEC                     u6051:
  4358     0CEC  2CF6               	goto	l5062
  4359     0CED                     u6050:
  4360     0CED                     l5056:
  4361     0CED  082E               	movf	set_time@delay1^(0+128),w
  4362     0CEE  1903               	btfsc	3,2
  4363     0CEF  2CF1               	goto	u6061
  4364     0CF0  2CF2               	goto	u6060
  4365     0CF1                     u6061:
  4366     0CF1  2CF6               	goto	l5062
  4367     0CF2                     u6060:
  4368     0CF2                     l5058:
  4369                           
  4370                           ;car_black_box.c: 217:     {;car_black_box.c: 218:         sw_flag=1;
  4371     0CF2  3001               	movlw	1
  4372     0CF3  00AF               	movwf	set_time@sw_flag^(0+128)
  4373     0CF4                     l5060:
  4374                           
  4375                           ;car_black_box.c: 219:         flag6=0;
  4376     0CF4  01AC               	clrf	set_time@flag6^(0+128)
  4377                           
  4378                           ;car_black_box.c: 220:         delay1=0;
  4379     0CF5  01AE               	clrf	set_time@delay1^(0+128)
  4380     0CF6                     l5062:
  4381                           
  4382                           ;car_black_box.c: 222:     clcd_print ("Time (HH:MM:SS)",(0x80 + 0));
  4383     0CF6  3056               	movlw	low (STR_29| (0+32768))
  4384     0CF7  00F6               	movwf	clcd_print@str
  4385     0CF8  3090               	movlw	high (STR_29| (0+32768))
  4386     0CF9  00F7               	movwf	clcd_print@str+1
  4387     0CFA  3080               	movlw	128
  4388     0CFB  00F8               	movwf	clcd_print@addr
  4389     0CFC  160A  158A  273C  120A  158A  	fcall	_clcd_print
  4390     0D01                     l5064:
  4391                           
  4392                           ;car_black_box.c: 223:     if(time_pos==0 )
  4393     0D01  087B               	movf	set_time@time_pos,w
  4394     0D02  1D03               	btfss	3,2
  4395     0D03  2D05               	goto	u6071
  4396     0D04  2D06               	goto	u6070
  4397     0D05                     u6071:
  4398     0D05  2DDE               	goto	l5114
  4399     0D06                     u6070:
  4400     0D06                     l5066:
  4401                           
  4402                           ;car_black_box.c: 224:     {;car_black_box.c: 225:         clcd_putch(time[0],(0xC0 + 0)
      +                          );
  4403     0D06  30C0               	movlw	192
  4404     0D07  1283               	bcf	3,5	;RP0=0, select bank0
  4405     0D08  1303               	bcf	3,6	;RP1=0, select bank0
  4406     0D09  00A4               	movwf	clcd_putch@addr
  4407     0D0A  1683               	bsf	3,5	;RP0=1, select bank1
  4408     0D0B  1303               	bcf	3,6	;RP1=0, select bank1
  4409     0D0C  0846               	movf	_time^(0+128),w
  4410     0D0D  160A  158A  25AA  120A  158A  	fcall	_clcd_putch
  4411                           
  4412                           ;car_black_box.c: 226:         clcd_putch(time[1],(0xC0 + 1));
  4413     0D12  30C1               	movlw	193
  4414     0D13  1283               	bcf	3,5	;RP0=0, select bank0
  4415     0D14  1303               	bcf	3,6	;RP1=0, select bank0
  4416     0D15  00A4               	movwf	clcd_putch@addr
  4417     0D16  1683               	bsf	3,5	;RP0=1, select bank1
  4418     0D17  1303               	bcf	3,6	;RP1=0, select bank1
  4419     0D18  0847               	movf	(_time^(0+128)+1),w
  4420     0D19  160A  158A  25AA  120A  158A  	fcall	_clcd_putch
  4421                           
  4422                           ;car_black_box.c: 227:         clcd_putch(':',(0xC0 + 2));
  4423     0D1E  30C2               	movlw	194
  4424     0D1F  1283               	bcf	3,5	;RP0=0, select bank0
  4425     0D20  1303               	bcf	3,6	;RP1=0, select bank0
  4426     0D21  00A4               	movwf	clcd_putch@addr
  4427     0D22  303A               	movlw	58
  4428     0D23  160A  158A  25AA  120A  158A  	fcall	_clcd_putch
  4429                           
  4430                           ;car_black_box.c: 228:         clcd_putch(time[2],(0xC0 + 3));
  4431     0D28  30C3               	movlw	195
  4432     0D29  1283               	bcf	3,5	;RP0=0, select bank0
  4433     0D2A  1303               	bcf	3,6	;RP1=0, select bank0
  4434     0D2B  00A4               	movwf	clcd_putch@addr
  4435     0D2C  1683               	bsf	3,5	;RP0=1, select bank1
  4436     0D2D  1303               	bcf	3,6	;RP1=0, select bank1
  4437     0D2E  0848               	movf	(_time^(0+128)+2),w
  4438     0D2F  160A  158A  25AA  120A  158A  	fcall	_clcd_putch
  4439                           
  4440                           ;car_black_box.c: 229:         clcd_putch(time[3],(0xC0 + 4));
  4441     0D34  30C4               	movlw	196
  4442     0D35  1283               	bcf	3,5	;RP0=0, select bank0
  4443     0D36  1303               	bcf	3,6	;RP1=0, select bank0
  4444     0D37  00A4               	movwf	clcd_putch@addr
  4445     0D38  1683               	bsf	3,5	;RP0=1, select bank1
  4446     0D39  1303               	bcf	3,6	;RP1=0, select bank1
  4447     0D3A  0849               	movf	(_time^(0+128)+3),w
  4448     0D3B  160A  158A  25AA  120A  158A  	fcall	_clcd_putch
  4449                           
  4450                           ;car_black_box.c: 230:         clcd_putch(':',(0xC0 + 5));
  4451     0D40  30C5               	movlw	197
  4452     0D41  1283               	bcf	3,5	;RP0=0, select bank0
  4453     0D42  1303               	bcf	3,6	;RP1=0, select bank0
  4454     0D43  00A4               	movwf	clcd_putch@addr
  4455     0D44  303A               	movlw	58
  4456     0D45  160A  158A  25AA  120A  158A  	fcall	_clcd_putch
  4457     0D4A                     l5068:
  4458                           
  4459                           ;car_black_box.c: 231:         if(display)
  4460     0D4A  1683               	bsf	3,5	;RP0=1, select bank1
  4461     0D4B  1303               	bcf	3,6	;RP1=0, select bank1
  4462     0D4C  0830               	movf	set_time@display^(0+128),w
  4463     0D4D  1903               	btfsc	3,2
  4464     0D4E  2D50               	goto	u6081
  4465     0D4F  2D51               	goto	u6080
  4466     0D50                     u6081:
  4467     0D50  2D7B               	goto	l5078
  4468     0D51                     u6080:
  4469     0D51                     l5070:
  4470                           
  4471                           ;car_black_box.c: 232:         {;car_black_box.c: 233:             _delay((unsigned long
      +                          )((100000)*(20000000/4000000.0)));
  4472     0D51  3003               	movlw	3
  4473     0D52  1283               	bcf	3,5	;RP0=0, select bank0
  4474     0D53  1303               	bcf	3,6	;RP1=0, select bank0
  4475     0D54  00A7               	movwf	??_set_time+2
  4476     0D55  308A               	movlw	138
  4477     0D56  00A6               	movwf	??_set_time+1
  4478     0D57  3055               	movlw	85
  4479     0D58  00A5               	movwf	??_set_time
  4480     0D59                     u7717:
  4481     0D59  0BA5               	decfsz	??_set_time,f
  4482     0D5A  2D59               	goto	u7717
  4483     0D5B  0BA6               	decfsz	??_set_time+1,f
  4484     0D5C  2D59               	goto	u7717
  4485     0D5D  0BA7               	decfsz	??_set_time+2,f
  4486     0D5E  2D59               	goto	u7717
  4487     0D5F                     l5072:
  4488                           
  4489                           ;car_black_box.c: 234:             clcd_putch(time[4],(0xC0 + 6));
  4490     0D5F  30C6               	movlw	198
  4491     0D60  1283               	bcf	3,5	;RP0=0, select bank0
  4492     0D61  1303               	bcf	3,6	;RP1=0, select bank0
  4493     0D62  00A4               	movwf	clcd_putch@addr
  4494     0D63  1683               	bsf	3,5	;RP0=1, select bank1
  4495     0D64  1303               	bcf	3,6	;RP1=0, select bank1
  4496     0D65  084A               	movf	(_time^(0+128)+4),w
  4497     0D66  160A  158A  25AA  120A  158A  	fcall	_clcd_putch
  4498     0D6B                     l5074:
  4499                           
  4500                           ;car_black_box.c: 235:             clcd_putch(time[5],(0xC0 + 7));
  4501     0D6B  30C7               	movlw	199
  4502     0D6C  1283               	bcf	3,5	;RP0=0, select bank0
  4503     0D6D  1303               	bcf	3,6	;RP1=0, select bank0
  4504     0D6E  00A4               	movwf	clcd_putch@addr
  4505     0D6F  1683               	bsf	3,5	;RP0=1, select bank1
  4506     0D70  1303               	bcf	3,6	;RP1=0, select bank1
  4507     0D71  084B               	movf	(_time^(0+128)+5),w
  4508     0D72  160A  158A  25AA  120A  158A  	fcall	_clcd_putch
  4509     0D77                     l5076:
  4510                           
  4511                           ;car_black_box.c: 236:             display=0;
  4512     0D77  1683               	bsf	3,5	;RP0=1, select bank1
  4513     0D78  1303               	bcf	3,6	;RP1=0, select bank1
  4514     0D79  01B0               	clrf	set_time@display^(0+128)
  4515                           
  4516                           ;car_black_box.c: 237:         }
  4517     0D7A  2D9D               	goto	l5084
  4518     0D7B                     l5078:
  4519                           
  4520                           ;car_black_box.c: 239:         {;car_black_box.c: 240:             _delay((unsigned long
      +                          )((100000)*(20000000/4000000.0)));
  4521     0D7B  3003               	movlw	3
  4522     0D7C  1283               	bcf	3,5	;RP0=0, select bank0
  4523     0D7D  1303               	bcf	3,6	;RP1=0, select bank0
  4524     0D7E  00A7               	movwf	??_set_time+2
  4525     0D7F  308A               	movlw	138
  4526     0D80  00A6               	movwf	??_set_time+1
  4527     0D81  3055               	movlw	85
  4528     0D82  00A5               	movwf	??_set_time
  4529     0D83                     u7727:
  4530     0D83  0BA5               	decfsz	??_set_time,f
  4531     0D84  2D83               	goto	u7727
  4532     0D85  0BA6               	decfsz	??_set_time+1,f
  4533     0D86  2D83               	goto	u7727
  4534     0D87  0BA7               	decfsz	??_set_time+2,f
  4535     0D88  2D83               	goto	u7727
  4536     0D89                     l5080:
  4537                           
  4538                           ;car_black_box.c: 241:             clcd_putch('\0',(0xC0 + 6));
  4539     0D89  30C6               	movlw	198
  4540     0D8A  1283               	bcf	3,5	;RP0=0, select bank0
  4541     0D8B  1303               	bcf	3,6	;RP1=0, select bank0
  4542     0D8C  00A4               	movwf	clcd_putch@addr
  4543     0D8D  3000               	movlw	0
  4544     0D8E  160A  158A  25AA  120A  158A  	fcall	_clcd_putch
  4545     0D93                     l5082:
  4546                           
  4547                           ;car_black_box.c: 242:             clcd_putch('\0',(0xC0 + 7));
  4548     0D93  30C7               	movlw	199
  4549     0D94  1283               	bcf	3,5	;RP0=0, select bank0
  4550     0D95  1303               	bcf	3,6	;RP1=0, select bank0
  4551     0D96  00A4               	movwf	clcd_putch@addr
  4552     0D97  3000               	movlw	0
  4553     0D98  160A  158A  25AA  120A  158A  	fcall	_clcd_putch
  4554     0D9D                     l5084:
  4555                           
  4556                           ;car_black_box.c: 244:         if(sw_flag)
  4557     0D9D  1683               	bsf	3,5	;RP0=1, select bank1
  4558     0D9E  1303               	bcf	3,6	;RP1=0, select bank1
  4559     0D9F  082F               	movf	set_time@sw_flag^(0+128),w
  4560     0DA0  1903               	btfsc	3,2
  4561     0DA1  2DA3               	goto	u6091
  4562     0DA2  2DA4               	goto	u6090
  4563     0DA3                     u6091:
  4564     0DA3  2F98               	goto	l406
  4565     0DA4                     u6090:
  4566     0DA4                     l5086:
  4567                           
  4568                           ;car_black_box.c: 245:         {;car_black_box.c: 246:             if(time[4]=='5' && ti
      +                          me[5]=='9')
  4569     0DA4  3035               	movlw	53
  4570     0DA5  064A               	xorwf	(_time^(0+128)+4),w
  4571     0DA6  1D03               	btfss	3,2
  4572     0DA7  2DA9               	goto	u6101
  4573     0DA8  2DAA               	goto	u6100
  4574     0DA9                     u6101:
  4575     0DA9  2DB6               	goto	l5092
  4576     0DAA                     u6100:
  4577     0DAA                     l5088:
  4578     0DAA  3039               	movlw	57
  4579     0DAB  064B               	xorwf	(_time^(0+128)+5),w
  4580     0DAC  1D03               	btfss	3,2
  4581     0DAD  2DAF               	goto	u6111
  4582     0DAE  2DB0               	goto	u6110
  4583     0DAF                     u6111:
  4584     0DAF  2DB6               	goto	l5092
  4585     0DB0                     u6110:
  4586     0DB0                     l5090:
  4587                           
  4588                           ;car_black_box.c: 247:             {;car_black_box.c: 248:                 time[5]='0';
  4589     0DB0  3030               	movlw	48
  4590     0DB1  00CB               	movwf	(_time^(0+128)+5)
  4591                           
  4592                           ;car_black_box.c: 249:                 time[4]='0';
  4593     0DB2  3030               	movlw	48
  4594     0DB3  00CA               	movwf	(_time^(0+128)+4)
  4595                           
  4596                           ;car_black_box.c: 250:                 sec_flag=1;
  4597     0DB4  3001               	movlw	1
  4598     0DB5  00B4               	movwf	set_time@sec_flag^(0+128)
  4599     0DB6                     l5092:
  4600                           
  4601                           ;car_black_box.c: 252:             if(time[5]=='9')
  4602     0DB6  3039               	movlw	57
  4603     0DB7  064B               	xorwf	(_time^(0+128)+5),w
  4604     0DB8  1D03               	btfss	3,2
  4605     0DB9  2DBB               	goto	u6121
  4606     0DBA  2DBC               	goto	u6120
  4607     0DBB                     u6121:
  4608     0DBB  2DC8               	goto	l5102
  4609     0DBC                     u6120:
  4610     0DBC                     l5094:
  4611                           
  4612                           ;car_black_box.c: 253:             {;car_black_box.c: 254:                 time[5]='0';
  4613     0DBC  3030               	movlw	48
  4614     0DBD  00CB               	movwf	(_time^(0+128)+5)
  4615     0DBE                     l5096:
  4616                           
  4617                           ;car_black_box.c: 255:                 if( time[4] < '5')
  4618     0DBE  3035               	movlw	53
  4619     0DBF  024A               	subwf	(_time^(0+128)+4),w
  4620     0DC0  1803               	skipnc
  4621     0DC1  2DC3               	goto	u6131
  4622     0DC2  2DC4               	goto	u6130
  4623     0DC3                     u6131:
  4624     0DC3  2DC6               	goto	l5100
  4625     0DC4                     u6130:
  4626     0DC4                     l5098:
  4627                           
  4628                           ;car_black_box.c: 256:                     time[4]++;
  4629     0DC4  3001               	movlw	1
  4630     0DC5  07CA               	addwf	(_time^(0+128)+4),f
  4631     0DC6                     l5100:
  4632                           
  4633                           ;car_black_box.c: 257:                 sec_flag=1;
  4634     0DC6  3001               	movlw	1
  4635     0DC7  00B4               	movwf	set_time@sec_flag^(0+128)
  4636     0DC8                     l5102:
  4637                           
  4638                           ;car_black_box.c: 259:             if(time[5] >= '0' && time[5]<'9' && !sec_flag )
  4639     0DC8  3030               	movlw	48
  4640     0DC9  024B               	subwf	(_time^(0+128)+5),w
  4641     0DCA  1C03               	skipc
  4642     0DCB  2DCD               	goto	u6141
  4643     0DCC  2DCE               	goto	u6140
  4644     0DCD                     u6141:
  4645     0DCD  2DDB               	goto	l5110
  4646     0DCE                     u6140:
  4647     0DCE                     l5104:
  4648     0DCE  3039               	movlw	57
  4649     0DCF  024B               	subwf	(_time^(0+128)+5),w
  4650     0DD0  1803               	skipnc
  4651     0DD1  2DD3               	goto	u6151
  4652     0DD2  2DD4               	goto	u6150
  4653     0DD3                     u6151:
  4654     0DD3  2DDB               	goto	l5110
  4655     0DD4                     u6150:
  4656     0DD4                     l5106:
  4657     0DD4  0834               	movf	set_time@sec_flag^(0+128),w
  4658     0DD5  1D03               	btfss	3,2
  4659     0DD6  2DD8               	goto	u6161
  4660     0DD7  2DD9               	goto	u6160
  4661     0DD8                     u6161:
  4662     0DD8  2DDB               	goto	l5110
  4663     0DD9                     u6160:
  4664     0DD9                     l5108:
  4665                           
  4666                           ;car_black_box.c: 260:             {;car_black_box.c: 261:                 time[5]++;
  4667     0DD9  3001               	movlw	1
  4668     0DDA  07CB               	addwf	(_time^(0+128)+5),f
  4669     0DDB                     l5110:
  4670                           
  4671                           ;car_black_box.c: 263:             sec_flag=0;
  4672     0DDB  01B4               	clrf	set_time@sec_flag^(0+128)
  4673     0DDC                     l5112:
  4674                           
  4675                           ;car_black_box.c: 264:             sw_flag=0;
  4676     0DDC  01AF               	clrf	set_time@sw_flag^(0+128)
  4677     0DDD  2F98               	goto	l406
  4678     0DDE                     l5114:
  4679     0DDE  037B               	decf	set_time@time_pos,w
  4680     0DDF  1D03               	btfss	3,2
  4681     0DE0  2DE2               	goto	u6171
  4682     0DE1  2DE3               	goto	u6170
  4683     0DE2                     u6171:
  4684     0DE2  2EBB               	goto	l5164
  4685     0DE3                     u6170:
  4686     0DE3                     l5116:
  4687                           
  4688                           ;car_black_box.c: 268:     {;car_black_box.c: 269:         clcd_putch(time[0],(0xC0 + 0)
      +                          );
  4689     0DE3  30C0               	movlw	192
  4690     0DE4  1283               	bcf	3,5	;RP0=0, select bank0
  4691     0DE5  1303               	bcf	3,6	;RP1=0, select bank0
  4692     0DE6  00A4               	movwf	clcd_putch@addr
  4693     0DE7  1683               	bsf	3,5	;RP0=1, select bank1
  4694     0DE8  1303               	bcf	3,6	;RP1=0, select bank1
  4695     0DE9  0846               	movf	_time^(0+128),w
  4696     0DEA  160A  158A  25AA  120A  158A  	fcall	_clcd_putch
  4697                           
  4698                           ;car_black_box.c: 270:         clcd_putch(time[1],(0xC0 + 1));
  4699     0DEF  30C1               	movlw	193
  4700     0DF0  1283               	bcf	3,5	;RP0=0, select bank0
  4701     0DF1  1303               	bcf	3,6	;RP1=0, select bank0
  4702     0DF2  00A4               	movwf	clcd_putch@addr
  4703     0DF3  1683               	bsf	3,5	;RP0=1, select bank1
  4704     0DF4  1303               	bcf	3,6	;RP1=0, select bank1
  4705     0DF5  0847               	movf	(_time^(0+128)+1),w
  4706     0DF6  160A  158A  25AA  120A  158A  	fcall	_clcd_putch
  4707                           
  4708                           ;car_black_box.c: 271:         clcd_putch(':',(0xC0 + 2));
  4709     0DFB  30C2               	movlw	194
  4710     0DFC  1283               	bcf	3,5	;RP0=0, select bank0
  4711     0DFD  1303               	bcf	3,6	;RP1=0, select bank0
  4712     0DFE  00A4               	movwf	clcd_putch@addr
  4713     0DFF  303A               	movlw	58
  4714     0E00  160A  158A  25AA  120A  158A  	fcall	_clcd_putch
  4715                           
  4716                           ;car_black_box.c: 272:         clcd_putch(time[4],(0xC0 + 6));
  4717     0E05  30C6               	movlw	198
  4718     0E06  1283               	bcf	3,5	;RP0=0, select bank0
  4719     0E07  1303               	bcf	3,6	;RP1=0, select bank0
  4720     0E08  00A4               	movwf	clcd_putch@addr
  4721     0E09  1683               	bsf	3,5	;RP0=1, select bank1
  4722     0E0A  1303               	bcf	3,6	;RP1=0, select bank1
  4723     0E0B  084A               	movf	(_time^(0+128)+4),w
  4724     0E0C  160A  158A  25AA  120A  158A  	fcall	_clcd_putch
  4725                           
  4726                           ;car_black_box.c: 273:         clcd_putch(time[5],(0xC0 + 7));
  4727     0E11  30C7               	movlw	199
  4728     0E12  1283               	bcf	3,5	;RP0=0, select bank0
  4729     0E13  1303               	bcf	3,6	;RP1=0, select bank0
  4730     0E14  00A4               	movwf	clcd_putch@addr
  4731     0E15  1683               	bsf	3,5	;RP0=1, select bank1
  4732     0E16  1303               	bcf	3,6	;RP1=0, select bank1
  4733     0E17  084B               	movf	(_time^(0+128)+5),w
  4734     0E18  160A  158A  25AA  120A  158A  	fcall	_clcd_putch
  4735                           
  4736                           ;car_black_box.c: 274:         clcd_putch(':',(0xC0 + 5));
  4737     0E1D  30C5               	movlw	197
  4738     0E1E  1283               	bcf	3,5	;RP0=0, select bank0
  4739     0E1F  1303               	bcf	3,6	;RP1=0, select bank0
  4740     0E20  00A4               	movwf	clcd_putch@addr
  4741     0E21  303A               	movlw	58
  4742     0E22  160A  158A  25AA  120A  158A  	fcall	_clcd_putch
  4743     0E27                     l5118:
  4744                           
  4745                           ;car_black_box.c: 275:         if(display)
  4746     0E27  1683               	bsf	3,5	;RP0=1, select bank1
  4747     0E28  1303               	bcf	3,6	;RP1=0, select bank1
  4748     0E29  0830               	movf	set_time@display^(0+128),w
  4749     0E2A  1903               	btfsc	3,2
  4750     0E2B  2E2D               	goto	u6181
  4751     0E2C  2E2E               	goto	u6180
  4752     0E2D                     u6181:
  4753     0E2D  2E58               	goto	l5128
  4754     0E2E                     u6180:
  4755     0E2E                     l5120:
  4756                           
  4757                           ;car_black_box.c: 276:         {;car_black_box.c: 277:             _delay((unsigned long
      +                          )((100000)*(20000000/4000000.0)));
  4758     0E2E  3003               	movlw	3
  4759     0E2F  1283               	bcf	3,5	;RP0=0, select bank0
  4760     0E30  1303               	bcf	3,6	;RP1=0, select bank0
  4761     0E31  00A7               	movwf	??_set_time+2
  4762     0E32  308A               	movlw	138
  4763     0E33  00A6               	movwf	??_set_time+1
  4764     0E34  3055               	movlw	85
  4765     0E35  00A5               	movwf	??_set_time
  4766     0E36                     u7737:
  4767     0E36  0BA5               	decfsz	??_set_time,f
  4768     0E37  2E36               	goto	u7737
  4769     0E38  0BA6               	decfsz	??_set_time+1,f
  4770     0E39  2E36               	goto	u7737
  4771     0E3A  0BA7               	decfsz	??_set_time+2,f
  4772     0E3B  2E36               	goto	u7737
  4773     0E3C                     l5122:
  4774                           
  4775                           ;car_black_box.c: 278:             clcd_putch(time[2],(0xC0 + 3));
  4776     0E3C  30C3               	movlw	195
  4777     0E3D  1283               	bcf	3,5	;RP0=0, select bank0
  4778     0E3E  1303               	bcf	3,6	;RP1=0, select bank0
  4779     0E3F  00A4               	movwf	clcd_putch@addr
  4780     0E40  1683               	bsf	3,5	;RP0=1, select bank1
  4781     0E41  1303               	bcf	3,6	;RP1=0, select bank1
  4782     0E42  0848               	movf	(_time^(0+128)+2),w
  4783     0E43  160A  158A  25AA  120A  158A  	fcall	_clcd_putch
  4784     0E48                     l5124:
  4785                           
  4786                           ;car_black_box.c: 279:             clcd_putch(time[3],(0xC0 + 4));
  4787     0E48  30C4               	movlw	196
  4788     0E49  1283               	bcf	3,5	;RP0=0, select bank0
  4789     0E4A  1303               	bcf	3,6	;RP1=0, select bank0
  4790     0E4B  00A4               	movwf	clcd_putch@addr
  4791     0E4C  1683               	bsf	3,5	;RP0=1, select bank1
  4792     0E4D  1303               	bcf	3,6	;RP1=0, select bank1
  4793     0E4E  0849               	movf	(_time^(0+128)+3),w
  4794     0E4F  160A  158A  25AA  120A  158A  	fcall	_clcd_putch
  4795     0E54                     l5126:
  4796                           
  4797                           ;car_black_box.c: 280:             display=0;
  4798     0E54  1683               	bsf	3,5	;RP0=1, select bank1
  4799     0E55  1303               	bcf	3,6	;RP1=0, select bank1
  4800     0E56  01B0               	clrf	set_time@display^(0+128)
  4801                           
  4802                           ;car_black_box.c: 281:         }
  4803     0E57  2E7A               	goto	l5134
  4804     0E58                     l5128:
  4805                           
  4806                           ;car_black_box.c: 283:         {;car_black_box.c: 284:             _delay((unsigned long
      +                          )((100000)*(20000000/4000000.0)));
  4807     0E58  3003               	movlw	3
  4808     0E59  1283               	bcf	3,5	;RP0=0, select bank0
  4809     0E5A  1303               	bcf	3,6	;RP1=0, select bank0
  4810     0E5B  00A7               	movwf	??_set_time+2
  4811     0E5C  308A               	movlw	138
  4812     0E5D  00A6               	movwf	??_set_time+1
  4813     0E5E  3055               	movlw	85
  4814     0E5F  00A5               	movwf	??_set_time
  4815     0E60                     u7747:
  4816     0E60  0BA5               	decfsz	??_set_time,f
  4817     0E61  2E60               	goto	u7747
  4818     0E62  0BA6               	decfsz	??_set_time+1,f
  4819     0E63  2E60               	goto	u7747
  4820     0E64  0BA7               	decfsz	??_set_time+2,f
  4821     0E65  2E60               	goto	u7747
  4822     0E66                     l5130:
  4823                           
  4824                           ;car_black_box.c: 285:             clcd_putch('\0',(0xC0 + 3));
  4825     0E66  30C3               	movlw	195
  4826     0E67  1283               	bcf	3,5	;RP0=0, select bank0
  4827     0E68  1303               	bcf	3,6	;RP1=0, select bank0
  4828     0E69  00A4               	movwf	clcd_putch@addr
  4829     0E6A  3000               	movlw	0
  4830     0E6B  160A  158A  25AA  120A  158A  	fcall	_clcd_putch
  4831     0E70                     l5132:
  4832                           
  4833                           ;car_black_box.c: 286:             clcd_putch('\0',(0xC0 + 4));
  4834     0E70  30C4               	movlw	196
  4835     0E71  1283               	bcf	3,5	;RP0=0, select bank0
  4836     0E72  1303               	bcf	3,6	;RP1=0, select bank0
  4837     0E73  00A4               	movwf	clcd_putch@addr
  4838     0E74  3000               	movlw	0
  4839     0E75  160A  158A  25AA  120A  158A  	fcall	_clcd_putch
  4840     0E7A                     l5134:
  4841                           
  4842                           ;car_black_box.c: 288:         if(sw_flag)
  4843     0E7A  1683               	bsf	3,5	;RP0=1, select bank1
  4844     0E7B  1303               	bcf	3,6	;RP1=0, select bank1
  4845     0E7C  082F               	movf	set_time@sw_flag^(0+128),w
  4846     0E7D  1903               	btfsc	3,2
  4847     0E7E  2E80               	goto	u6191
  4848     0E7F  2E81               	goto	u6190
  4849     0E80                     u6191:
  4850     0E80  2EB8               	goto	l5160
  4851     0E81                     u6190:
  4852     0E81                     l5136:
  4853                           
  4854                           ;car_black_box.c: 289:         {;car_black_box.c: 290:             if(time[2]=='5' && ti
      +                          me[3]=='9')
  4855     0E81  3035               	movlw	53
  4856     0E82  0648               	xorwf	(_time^(0+128)+2),w
  4857     0E83  1D03               	btfss	3,2
  4858     0E84  2E86               	goto	u6201
  4859     0E85  2E87               	goto	u6200
  4860     0E86                     u6201:
  4861     0E86  2E93               	goto	l5142
  4862     0E87                     u6200:
  4863     0E87                     l5138:
  4864     0E87  3039               	movlw	57
  4865     0E88  0649               	xorwf	(_time^(0+128)+3),w
  4866     0E89  1D03               	btfss	3,2
  4867     0E8A  2E8C               	goto	u6211
  4868     0E8B  2E8D               	goto	u6210
  4869     0E8C                     u6211:
  4870     0E8C  2E93               	goto	l5142
  4871     0E8D                     u6210:
  4872     0E8D                     l5140:
  4873                           
  4874                           ;car_black_box.c: 291:             {;car_black_box.c: 292:                 time[2]='0';
  4875     0E8D  3030               	movlw	48
  4876     0E8E  00C8               	movwf	(_time^(0+128)+2)
  4877                           
  4878                           ;car_black_box.c: 293:                 time[3]='0';
  4879     0E8F  3030               	movlw	48
  4880     0E90  00C9               	movwf	(_time^(0+128)+3)
  4881                           
  4882                           ;car_black_box.c: 294:                 min_flag=1;
  4883     0E91  3001               	movlw	1
  4884     0E92  00B3               	movwf	set_time@min_flag^(0+128)
  4885     0E93                     l5142:
  4886                           
  4887                           ;car_black_box.c: 296:             if(time[3]=='9')
  4888     0E93  3039               	movlw	57
  4889     0E94  0649               	xorwf	(_time^(0+128)+3),w
  4890     0E95  1D03               	btfss	3,2
  4891     0E96  2E98               	goto	u6221
  4892     0E97  2E99               	goto	u6220
  4893     0E98                     u6221:
  4894     0E98  2EA5               	goto	l5152
  4895     0E99                     u6220:
  4896     0E99                     l5144:
  4897                           
  4898                           ;car_black_box.c: 297:             {;car_black_box.c: 298:                 time[3]='0';
  4899     0E99  3030               	movlw	48
  4900     0E9A  00C9               	movwf	(_time^(0+128)+3)
  4901     0E9B                     l5146:
  4902                           
  4903                           ;car_black_box.c: 299:                 if( time[2] < '5')
  4904     0E9B  3035               	movlw	53
  4905     0E9C  0248               	subwf	(_time^(0+128)+2),w
  4906     0E9D  1803               	skipnc
  4907     0E9E  2EA0               	goto	u6231
  4908     0E9F  2EA1               	goto	u6230
  4909     0EA0                     u6231:
  4910     0EA0  2EA3               	goto	l5150
  4911     0EA1                     u6230:
  4912     0EA1                     l5148:
  4913                           
  4914                           ;car_black_box.c: 300:                     time[2]++;
  4915     0EA1  3001               	movlw	1
  4916     0EA2  07C8               	addwf	(_time^(0+128)+2),f
  4917     0EA3                     l5150:
  4918                           
  4919                           ;car_black_box.c: 301:                 min_flag=1;
  4920     0EA3  3001               	movlw	1
  4921     0EA4  00B3               	movwf	set_time@min_flag^(0+128)
  4922     0EA5                     l5152:
  4923                           
  4924                           ;car_black_box.c: 303:             if(time[3] >= '0' && time[3]<'9' && !min_flag )
  4925     0EA5  3030               	movlw	48
  4926     0EA6  0249               	subwf	(_time^(0+128)+3),w
  4927     0EA7  1C03               	skipc
  4928     0EA8  2EAA               	goto	u6241
  4929     0EA9  2EAB               	goto	u6240
  4930     0EAA                     u6241:
  4931     0EAA  2EB8               	goto	l5160
  4932     0EAB                     u6240:
  4933     0EAB                     l5154:
  4934     0EAB  3039               	movlw	57
  4935     0EAC  0249               	subwf	(_time^(0+128)+3),w
  4936     0EAD  1803               	skipnc
  4937     0EAE  2EB0               	goto	u6251
  4938     0EAF  2EB1               	goto	u6250
  4939     0EB0                     u6251:
  4940     0EB0  2EB8               	goto	l5160
  4941     0EB1                     u6250:
  4942     0EB1                     l5156:
  4943     0EB1  0833               	movf	set_time@min_flag^(0+128),w
  4944     0EB2  1D03               	btfss	3,2
  4945     0EB3  2EB5               	goto	u6261
  4946     0EB4  2EB6               	goto	u6260
  4947     0EB5                     u6261:
  4948     0EB5  2EB8               	goto	l5160
  4949     0EB6                     u6260:
  4950     0EB6                     l5158:
  4951                           
  4952                           ;car_black_box.c: 304:             {;car_black_box.c: 305:                 time[3]++;
  4953     0EB6  3001               	movlw	1
  4954     0EB7  07C9               	addwf	(_time^(0+128)+3),f
  4955     0EB8                     l5160:
  4956                           
  4957                           ;car_black_box.c: 308:         sw_flag=0;
  4958     0EB8  01AF               	clrf	set_time@sw_flag^(0+128)
  4959     0EB9                     l5162:
  4960                           
  4961                           ;car_black_box.c: 309:         min_flag=0;
  4962     0EB9  01B3               	clrf	set_time@min_flag^(0+128)
  4963                           
  4964                           ;car_black_box.c: 310:     }
  4965     0EBA  2F98               	goto	l406
  4966     0EBB                     l5164:
  4967     0EBB  3002               	movlw	2
  4968     0EBC  067B               	xorwf	set_time@time_pos,w
  4969     0EBD  1D03               	btfss	3,2
  4970     0EBE  2EC0               	goto	u6271
  4971     0EBF  2EC1               	goto	u6270
  4972     0EC0                     u6271:
  4973     0EC0  2F98               	goto	l406
  4974     0EC1                     u6270:
  4975     0EC1                     l5166:
  4976                           
  4977                           ;car_black_box.c: 312:     {;car_black_box.c: 313:          clcd_putch(':',(0xC0 + 2));
  4978     0EC1  30C2               	movlw	194
  4979     0EC2  1283               	bcf	3,5	;RP0=0, select bank0
  4980     0EC3  1303               	bcf	3,6	;RP1=0, select bank0
  4981     0EC4  00A4               	movwf	clcd_putch@addr
  4982     0EC5  303A               	movlw	58
  4983     0EC6  160A  158A  25AA  120A  158A  	fcall	_clcd_putch
  4984                           
  4985                           ;car_black_box.c: 314:         clcd_putch(time[2],(0xC0 + 3));
  4986     0ECB  30C3               	movlw	195
  4987     0ECC  1283               	bcf	3,5	;RP0=0, select bank0
  4988     0ECD  1303               	bcf	3,6	;RP1=0, select bank0
  4989     0ECE  00A4               	movwf	clcd_putch@addr
  4990     0ECF  1683               	bsf	3,5	;RP0=1, select bank1
  4991     0ED0  1303               	bcf	3,6	;RP1=0, select bank1
  4992     0ED1  0848               	movf	(_time^(0+128)+2),w
  4993     0ED2  160A  158A  25AA  120A  158A  	fcall	_clcd_putch
  4994                           
  4995                           ;car_black_box.c: 315:         clcd_putch(time[3],(0xC0 + 4));
  4996     0ED7  30C4               	movlw	196
  4997     0ED8  1283               	bcf	3,5	;RP0=0, select bank0
  4998     0ED9  1303               	bcf	3,6	;RP1=0, select bank0
  4999     0EDA  00A4               	movwf	clcd_putch@addr
  5000     0EDB  1683               	bsf	3,5	;RP0=1, select bank1
  5001     0EDC  1303               	bcf	3,6	;RP1=0, select bank1
  5002     0EDD  0849               	movf	(_time^(0+128)+3),w
  5003     0EDE  160A  158A  25AA  120A  158A  	fcall	_clcd_putch
  5004                           
  5005                           ;car_black_box.c: 316:         clcd_putch(':',(0xC0 + 5));
  5006     0EE3  30C5               	movlw	197
  5007     0EE4  1283               	bcf	3,5	;RP0=0, select bank0
  5008     0EE5  1303               	bcf	3,6	;RP1=0, select bank0
  5009     0EE6  00A4               	movwf	clcd_putch@addr
  5010     0EE7  303A               	movlw	58
  5011     0EE8  160A  158A  25AA  120A  158A  	fcall	_clcd_putch
  5012                           
  5013                           ;car_black_box.c: 317:         clcd_putch(time[4],(0xC0 + 6));
  5014     0EED  30C6               	movlw	198
  5015     0EEE  1283               	bcf	3,5	;RP0=0, select bank0
  5016     0EEF  1303               	bcf	3,6	;RP1=0, select bank0
  5017     0EF0  00A4               	movwf	clcd_putch@addr
  5018     0EF1  1683               	bsf	3,5	;RP0=1, select bank1
  5019     0EF2  1303               	bcf	3,6	;RP1=0, select bank1
  5020     0EF3  084A               	movf	(_time^(0+128)+4),w
  5021     0EF4  160A  158A  25AA  120A  158A  	fcall	_clcd_putch
  5022                           
  5023                           ;car_black_box.c: 318:         clcd_putch(time[5],(0xC0 + 7));
  5024     0EF9  30C7               	movlw	199
  5025     0EFA  1283               	bcf	3,5	;RP0=0, select bank0
  5026     0EFB  1303               	bcf	3,6	;RP1=0, select bank0
  5027     0EFC  00A4               	movwf	clcd_putch@addr
  5028     0EFD  1683               	bsf	3,5	;RP0=1, select bank1
  5029     0EFE  1303               	bcf	3,6	;RP1=0, select bank1
  5030     0EFF  084B               	movf	(_time^(0+128)+5),w
  5031     0F00  160A  158A  25AA  120A  158A  	fcall	_clcd_putch
  5032     0F05                     l5168:
  5033                           
  5034                           ;car_black_box.c: 319:         if(display)
  5035     0F05  1683               	bsf	3,5	;RP0=1, select bank1
  5036     0F06  1303               	bcf	3,6	;RP1=0, select bank1
  5037     0F07  0830               	movf	set_time@display^(0+128),w
  5038     0F08  1903               	btfsc	3,2
  5039     0F09  2F0B               	goto	u6281
  5040     0F0A  2F0C               	goto	u6280
  5041     0F0B                     u6281:
  5042     0F0B  2F36               	goto	l5178
  5043     0F0C                     u6280:
  5044     0F0C                     l5170:
  5045                           
  5046                           ;car_black_box.c: 320:         {;car_black_box.c: 321:             _delay((unsigned long
      +                          )((100000)*(20000000/4000000.0)));
  5047     0F0C  3003               	movlw	3
  5048     0F0D  1283               	bcf	3,5	;RP0=0, select bank0
  5049     0F0E  1303               	bcf	3,6	;RP1=0, select bank0
  5050     0F0F  00A7               	movwf	??_set_time+2
  5051     0F10  308A               	movlw	138
  5052     0F11  00A6               	movwf	??_set_time+1
  5053     0F12  3055               	movlw	85
  5054     0F13  00A5               	movwf	??_set_time
  5055     0F14                     u7757:
  5056     0F14  0BA5               	decfsz	??_set_time,f
  5057     0F15  2F14               	goto	u7757
  5058     0F16  0BA6               	decfsz	??_set_time+1,f
  5059     0F17  2F14               	goto	u7757
  5060     0F18  0BA7               	decfsz	??_set_time+2,f
  5061     0F19  2F14               	goto	u7757
  5062     0F1A                     l5172:
  5063                           
  5064                           ;car_black_box.c: 322:             clcd_putch(time[0],(0xC0 + 0));
  5065     0F1A  30C0               	movlw	192
  5066     0F1B  1283               	bcf	3,5	;RP0=0, select bank0
  5067     0F1C  1303               	bcf	3,6	;RP1=0, select bank0
  5068     0F1D  00A4               	movwf	clcd_putch@addr
  5069     0F1E  1683               	bsf	3,5	;RP0=1, select bank1
  5070     0F1F  1303               	bcf	3,6	;RP1=0, select bank1
  5071     0F20  0846               	movf	_time^(0+128),w
  5072     0F21  160A  158A  25AA  120A  158A  	fcall	_clcd_putch
  5073     0F26                     l5174:
  5074                           
  5075                           ;car_black_box.c: 323:             clcd_putch(time[1],(0xC0 + 1));
  5076     0F26  30C1               	movlw	193
  5077     0F27  1283               	bcf	3,5	;RP0=0, select bank0
  5078     0F28  1303               	bcf	3,6	;RP1=0, select bank0
  5079     0F29  00A4               	movwf	clcd_putch@addr
  5080     0F2A  1683               	bsf	3,5	;RP0=1, select bank1
  5081     0F2B  1303               	bcf	3,6	;RP1=0, select bank1
  5082     0F2C  0847               	movf	(_time^(0+128)+1),w
  5083     0F2D  160A  158A  25AA  120A  158A  	fcall	_clcd_putch
  5084     0F32                     l5176:
  5085                           
  5086                           ;car_black_box.c: 324:             display=0;
  5087     0F32  1683               	bsf	3,5	;RP0=1, select bank1
  5088     0F33  1303               	bcf	3,6	;RP1=0, select bank1
  5089     0F34  01B0               	clrf	set_time@display^(0+128)
  5090                           
  5091                           ;car_black_box.c: 325:         }
  5092     0F35  2F58               	goto	l5184
  5093     0F36                     l5178:
  5094                           
  5095                           ;car_black_box.c: 327:         {;car_black_box.c: 328:             _delay((unsigned long
      +                          )((100000)*(20000000/4000000.0)));
  5096     0F36  3003               	movlw	3
  5097     0F37  1283               	bcf	3,5	;RP0=0, select bank0
  5098     0F38  1303               	bcf	3,6	;RP1=0, select bank0
  5099     0F39  00A7               	movwf	??_set_time+2
  5100     0F3A  308A               	movlw	138
  5101     0F3B  00A6               	movwf	??_set_time+1
  5102     0F3C  3055               	movlw	85
  5103     0F3D  00A5               	movwf	??_set_time
  5104     0F3E                     u7767:
  5105     0F3E  0BA5               	decfsz	??_set_time,f
  5106     0F3F  2F3E               	goto	u7767
  5107     0F40  0BA6               	decfsz	??_set_time+1,f
  5108     0F41  2F3E               	goto	u7767
  5109     0F42  0BA7               	decfsz	??_set_time+2,f
  5110     0F43  2F3E               	goto	u7767
  5111     0F44                     l5180:
  5112                           
  5113                           ;car_black_box.c: 329:             clcd_putch('\0',(0xC0 + 0));
  5114     0F44  30C0               	movlw	192
  5115     0F45  1283               	bcf	3,5	;RP0=0, select bank0
  5116     0F46  1303               	bcf	3,6	;RP1=0, select bank0
  5117     0F47  00A4               	movwf	clcd_putch@addr
  5118     0F48  3000               	movlw	0
  5119     0F49  160A  158A  25AA  120A  158A  	fcall	_clcd_putch
  5120     0F4E                     l5182:
  5121                           
  5122                           ;car_black_box.c: 330:             clcd_putch('\0',(0xC0 + 1));
  5123     0F4E  30C1               	movlw	193
  5124     0F4F  1283               	bcf	3,5	;RP0=0, select bank0
  5125     0F50  1303               	bcf	3,6	;RP1=0, select bank0
  5126     0F51  00A4               	movwf	clcd_putch@addr
  5127     0F52  3000               	movlw	0
  5128     0F53  160A  158A  25AA  120A  158A  	fcall	_clcd_putch
  5129     0F58                     l5184:
  5130                           
  5131                           ;car_black_box.c: 332:         if(sw_flag)
  5132     0F58  1683               	bsf	3,5	;RP0=1, select bank1
  5133     0F59  1303               	bcf	3,6	;RP1=0, select bank1
  5134     0F5A  082F               	movf	set_time@sw_flag^(0+128),w
  5135     0F5B  1903               	btfsc	3,2
  5136     0F5C  2F5E               	goto	u6291
  5137     0F5D  2F5F               	goto	u6290
  5138     0F5E                     u6291:
  5139     0F5E  2F96               	goto	l5210
  5140     0F5F                     u6290:
  5141     0F5F                     l5186:
  5142                           
  5143                           ;car_black_box.c: 333:         {;car_black_box.c: 334:             if(time[0]=='2' && ti
      +                          me[1]=='3')
  5144     0F5F  3032               	movlw	50
  5145     0F60  0646               	xorwf	_time^(0+128),w
  5146     0F61  1D03               	btfss	3,2
  5147     0F62  2F64               	goto	u6301
  5148     0F63  2F65               	goto	u6300
  5149     0F64                     u6301:
  5150     0F64  2F71               	goto	l5192
  5151     0F65                     u6300:
  5152     0F65                     l5188:
  5153     0F65  3033               	movlw	51
  5154     0F66  0647               	xorwf	(_time^(0+128)+1),w
  5155     0F67  1D03               	btfss	3,2
  5156     0F68  2F6A               	goto	u6311
  5157     0F69  2F6B               	goto	u6310
  5158     0F6A                     u6311:
  5159     0F6A  2F71               	goto	l5192
  5160     0F6B                     u6310:
  5161     0F6B                     l5190:
  5162                           
  5163                           ;car_black_box.c: 335:             {;car_black_box.c: 336:                 time[0]='0';
  5164     0F6B  3030               	movlw	48
  5165     0F6C  00C6               	movwf	_time^(0+128)
  5166                           
  5167                           ;car_black_box.c: 337:                 time[1]='0';
  5168     0F6D  3030               	movlw	48
  5169     0F6E  00C7               	movwf	(_time^(0+128)+1)
  5170                           
  5171                           ;car_black_box.c: 338:                 hour_flag=1;
  5172     0F6F  3001               	movlw	1
  5173     0F70  00B2               	movwf	set_time@hour_flag^(0+128)
  5174     0F71                     l5192:
  5175                           
  5176                           ;car_black_box.c: 340:             if(time[1]=='9')
  5177     0F71  3039               	movlw	57
  5178     0F72  0647               	xorwf	(_time^(0+128)+1),w
  5179     0F73  1D03               	btfss	3,2
  5180     0F74  2F76               	goto	u6321
  5181     0F75  2F77               	goto	u6320
  5182     0F76                     u6321:
  5183     0F76  2F83               	goto	l5202
  5184     0F77                     u6320:
  5185     0F77                     l5194:
  5186                           
  5187                           ;car_black_box.c: 341:             {;car_black_box.c: 342:                 time[1]='0';
  5188     0F77  3030               	movlw	48
  5189     0F78  00C7               	movwf	(_time^(0+128)+1)
  5190     0F79                     l5196:
  5191                           
  5192                           ;car_black_box.c: 343:                 if( time[0] < '2')
  5193     0F79  3032               	movlw	50
  5194     0F7A  0246               	subwf	_time^(0+128),w
  5195     0F7B  1803               	skipnc
  5196     0F7C  2F7E               	goto	u6331
  5197     0F7D  2F7F               	goto	u6330
  5198     0F7E                     u6331:
  5199     0F7E  2F81               	goto	l5200
  5200     0F7F                     u6330:
  5201     0F7F                     l5198:
  5202                           
  5203                           ;car_black_box.c: 344:                     time[0]++;
  5204     0F7F  3001               	movlw	1
  5205     0F80  07C6               	addwf	_time^(0+128),f
  5206     0F81                     l5200:
  5207                           
  5208                           ;car_black_box.c: 345:                 hour_flag=1;
  5209     0F81  3001               	movlw	1
  5210     0F82  00B2               	movwf	set_time@hour_flag^(0+128)
  5211     0F83                     l5202:
  5212                           
  5213                           ;car_black_box.c: 347:             if(time[1] >= '0' && time[1]<'9' && !hour_flag )
  5214     0F83  3030               	movlw	48
  5215     0F84  0247               	subwf	(_time^(0+128)+1),w
  5216     0F85  1C03               	skipc
  5217     0F86  2F88               	goto	u6341
  5218     0F87  2F89               	goto	u6340
  5219     0F88                     u6341:
  5220     0F88  2F96               	goto	l5210
  5221     0F89                     u6340:
  5222     0F89                     l5204:
  5223     0F89  3039               	movlw	57
  5224     0F8A  0247               	subwf	(_time^(0+128)+1),w
  5225     0F8B  1803               	skipnc
  5226     0F8C  2F8E               	goto	u6351
  5227     0F8D  2F8F               	goto	u6350
  5228     0F8E                     u6351:
  5229     0F8E  2F96               	goto	l5210
  5230     0F8F                     u6350:
  5231     0F8F                     l5206:
  5232     0F8F  0832               	movf	set_time@hour_flag^(0+128),w
  5233     0F90  1D03               	btfss	3,2
  5234     0F91  2F93               	goto	u6361
  5235     0F92  2F94               	goto	u6360
  5236     0F93                     u6361:
  5237     0F93  2F96               	goto	l5210
  5238     0F94                     u6360:
  5239     0F94                     l5208:
  5240                           
  5241                           ;car_black_box.c: 348:             {;car_black_box.c: 349:                 time[1]++;
  5242     0F94  3001               	movlw	1
  5243     0F95  07C7               	addwf	(_time^(0+128)+1),f
  5244     0F96                     l5210:
  5245                           
  5246                           ;car_black_box.c: 352:         hour_flag=0;
  5247     0F96  01B2               	clrf	set_time@hour_flag^(0+128)
  5248     0F97  2DDC               	goto	l5112
  5249     0F98                     l406:
  5250                           
  5251                           ;car_black_box.c: 355:         clock_reg[2]=((time[4] & 0x07) << 4) | (time[5] & 0x0F);
  5252     0F98  300F               	movlw	15
  5253     0F99  1683               	bsf	3,5	;RP0=1, select bank1
  5254     0F9A  1303               	bcf	3,6	;RP1=0, select bank1
  5255     0F9B  054B               	andwf	(_time^(0+128)+5),w
  5256     0F9C  1283               	bcf	3,5	;RP0=0, select bank0
  5257     0F9D  1303               	bcf	3,6	;RP1=0, select bank0
  5258     0F9E  00A5               	movwf	??_set_time
  5259     0F9F  1683               	bsf	3,5	;RP0=1, select bank1
  5260     0FA0  1303               	bcf	3,6	;RP1=0, select bank1
  5261     0FA1  084A               	movf	(_time^(0+128)+4),w
  5262     0FA2  3907               	andlw	7
  5263     0FA3  1283               	bcf	3,5	;RP0=0, select bank0
  5264     0FA4  1303               	bcf	3,6	;RP1=0, select bank0
  5265     0FA5  00A6               	movwf	??_set_time+1
  5266     0FA6  3003               	movlw	3
  5267     0FA7                     u6375:
  5268     0FA7  1003               	clrc
  5269     0FA8  0DA6               	rlf	??_set_time+1,f
  5270     0FA9  3EFF               	addlw	-1
  5271     0FAA  1D03               	skipz
  5272     0FAB  2FA7               	goto	u6375
  5273     0FAC  1003               	clrc
  5274     0FAD  0D26               	rlf	??_set_time+1,w
  5275     0FAE  0425               	iorwf	??_set_time,w
  5276     0FAF  1683               	bsf	3,5	;RP0=1, select bank1
  5277     0FB0  1303               	bcf	3,6	;RP1=0, select bank1
  5278     0FB1  00A2               	movwf	(_clock_reg^(0+128)+2)
  5279     0FB2                     l5214:
  5280                           
  5281                           ;car_black_box.c: 356:         write_ds1307(0x00, clock_reg[2]);
  5282     0FB2  0822               	movf	(_clock_reg^(0+128)+2),w
  5283     0FB3  00F3               	movwf	write_ds1307@data
  5284     0FB4  3000               	movlw	0
  5285     0FB5  160A  158A  260B  120A  158A  	fcall	_write_ds1307
  5286     0FBA                     l5216:
  5287                           
  5288                           ;car_black_box.c: 357:         clock_reg[1]=((time[2] & 0x07) << 4) | (time[3] & 0x0F);
  5289     0FBA  300F               	movlw	15
  5290     0FBB  1683               	bsf	3,5	;RP0=1, select bank1
  5291     0FBC  1303               	bcf	3,6	;RP1=0, select bank1
  5292     0FBD  0549               	andwf	(_time^(0+128)+3),w
  5293     0FBE  1283               	bcf	3,5	;RP0=0, select bank0
  5294     0FBF  1303               	bcf	3,6	;RP1=0, select bank0
  5295     0FC0  00A5               	movwf	??_set_time
  5296     0FC1  1683               	bsf	3,5	;RP0=1, select bank1
  5297     0FC2  1303               	bcf	3,6	;RP1=0, select bank1
  5298     0FC3  0848               	movf	(_time^(0+128)+2),w
  5299     0FC4  3907               	andlw	7
  5300     0FC5  1283               	bcf	3,5	;RP0=0, select bank0
  5301     0FC6  1303               	bcf	3,6	;RP1=0, select bank0
  5302     0FC7  00A6               	movwf	??_set_time+1
  5303     0FC8  3003               	movlw	3
  5304     0FC9                     u6385:
  5305     0FC9  1003               	clrc
  5306     0FCA  0DA6               	rlf	??_set_time+1,f
  5307     0FCB  3EFF               	addlw	-1
  5308     0FCC  1D03               	skipz
  5309     0FCD  2FC9               	goto	u6385
  5310     0FCE  1003               	clrc
  5311     0FCF  0D26               	rlf	??_set_time+1,w
  5312     0FD0  0425               	iorwf	??_set_time,w
  5313     0FD1  1683               	bsf	3,5	;RP0=1, select bank1
  5314     0FD2  1303               	bcf	3,6	;RP1=0, select bank1
  5315     0FD3  00A1               	movwf	(_clock_reg^(0+128)+1)
  5316                           
  5317                           ;car_black_box.c: 358:         write_ds1307(0x01, clock_reg[1]);
  5318     0FD4  0821               	movf	(_clock_reg^(0+128)+1),w
  5319     0FD5  00F3               	movwf	write_ds1307@data
  5320     0FD6  3001               	movlw	1
  5321     0FD7  160A  158A  260B  120A  158A  	fcall	_write_ds1307
  5322     0FDC                     l5218:
  5323                           
  5324                           ;car_black_box.c: 359:         clock_reg[0]=((time[0] & 0x03) << 4) | (time[1] & 0x0F);
  5325     0FDC  300F               	movlw	15
  5326     0FDD  1683               	bsf	3,5	;RP0=1, select bank1
  5327     0FDE  1303               	bcf	3,6	;RP1=0, select bank1
  5328     0FDF  0547               	andwf	(_time^(0+128)+1),w
  5329     0FE0  1283               	bcf	3,5	;RP0=0, select bank0
  5330     0FE1  1303               	bcf	3,6	;RP1=0, select bank0
  5331     0FE2  00A5               	movwf	??_set_time
  5332     0FE3  1683               	bsf	3,5	;RP0=1, select bank1
  5333     0FE4  1303               	bcf	3,6	;RP1=0, select bank1
  5334     0FE5  0846               	movf	_time^(0+128),w
  5335     0FE6  3903               	andlw	3
  5336     0FE7  1283               	bcf	3,5	;RP0=0, select bank0
  5337     0FE8  1303               	bcf	3,6	;RP1=0, select bank0
  5338     0FE9  00A6               	movwf	??_set_time+1
  5339     0FEA  3003               	movlw	3
  5340     0FEB                     u6395:
  5341     0FEB  1003               	clrc
  5342     0FEC  0DA6               	rlf	??_set_time+1,f
  5343     0FED  3EFF               	addlw	-1
  5344     0FEE  1D03               	skipz
  5345     0FEF  2FEB               	goto	u6395
  5346     0FF0  1003               	clrc
  5347     0FF1  0D26               	rlf	??_set_time+1,w
  5348     0FF2  0425               	iorwf	??_set_time,w
  5349     0FF3  1683               	bsf	3,5	;RP0=1, select bank1
  5350     0FF4  1303               	bcf	3,6	;RP1=0, select bank1
  5351     0FF5  00A0               	movwf	_clock_reg^(0+128)
  5352     0FF6                     l5220:
  5353                           
  5354                           ;car_black_box.c: 360:         write_ds1307(0x02, clock_reg[0]);
  5355     0FF6  0820               	movf	_clock_reg^(0+128),w
  5356     0FF7  00F3               	movwf	write_ds1307@data
  5357     0FF8  3002               	movlw	2
  5358     0FF9  160A  158A  260B  120A  158A  	fcall	_write_ds1307
  5359     0FFE                     l5222:
  5360                           
  5361                           ;car_black_box.c: 361:         return 0x20;
  5362     0FFE  3020               	movlw	32
  5363     0FFF                     l390:
  5364     0FFF  0008               	return
  5365     1000                     __end_of_set_time:
  5366                           
  5367                           	psect	text4
  5368     1F6B                     __ptext4:	
  5369 ;; *************** function _read_digital_keypad *****************
  5370 ;; Defined at:
  5371 ;;		line 15 in file "digital_keypad.c"
  5372 ;; Parameters:    Size  Location     Type
  5373 ;;  mode            1    wreg     unsigned char 
  5374 ;; Auto vars:     Size  Location     Type
  5375 ;;  mode            1    3[COMMON] unsigned char 
  5376 ;; Return value:  Size  Location     Type
  5377 ;;                  1    wreg      unsigned char 
  5378 ;; Registers used:
  5379 ;;		wreg, status,2, status,0
  5380 ;; Tracked objects:
  5381 ;;		On entry : 0/0
  5382 ;;		On exit  : 0/0
  5383 ;;		Unchanged: 0/0
  5384 ;; Data sizes:     COMMON   BANK0   BANK1   BANK3   BANK2
  5385 ;;      Params:         0       0       0       0       0
  5386 ;;      Locals:         1       0       0       0       0
  5387 ;;      Temps:          1       0       0       0       0
  5388 ;;      Totals:         2       0       0       0       0
  5389 ;;Total ram usage:        2 bytes
  5390 ;; Hardware stack levels used: 1
  5391 ;; Hardware stack levels required when called: 1
  5392 ;; This function calls:
  5393 ;;		Nothing
  5394 ;; This function is called by:
  5395 ;;		_main
  5396 ;; This function uses a non-reentrant model
  5397 ;;
  5398                           
  5399     1F6B                     _read_digital_keypad:	
  5400                           ;psect for function _read_digital_keypad
  5401                           
  5402                           
  5403                           ;incstack = 0
  5404                           ; Regs used in _read_digital_keypad: [wreg+status,2+status,0]
  5405                           ;read_digital_keypad@mode stored from wreg
  5406     1F6B  00F3               	movwf	read_digital_keypad@mode
  5407     1F6C                     l4670:
  5408                           
  5409                           ;digital_keypad.c: 15: unsigned char read_digital_keypad(unsigned char mode);digital_key
      +                          pad.c: 16: {;digital_keypad.c: 17:     static unsigned char once = 1;;digital_keypad.c: 
      +                          19:     if (mode == 0)
  5410     1F6C  0873               	movf	read_digital_keypad@mode,w
  5411     1F6D  1D03               	btfss	3,2
  5412     1F6E  2F70               	goto	u5491
  5413     1F6F  2F71               	goto	u5490
  5414     1F70                     u5491:
  5415     1F70  2F76               	goto	l4678
  5416     1F71                     u5490:
  5417     1F71                     l4672:
  5418                           
  5419                           ;digital_keypad.c: 20:     {;digital_keypad.c: 21:         return PORTB & 0x3F;
  5420     1F71  1283               	bcf	3,5	;RP0=0, select bank0
  5421     1F72  1303               	bcf	3,6	;RP1=0, select bank0
  5422     1F73  0806               	movf	6,w	;volatile
  5423     1F74  393F               	andlw	63
  5424     1F75  2F99               	goto	l248
  5425     1F76                     l4678:
  5426                           
  5427                           ;digital_keypad.c: 24:     {;digital_keypad.c: 25:         if (((PORTB & 0x3F) != 0x3F) 
      +                          && once)
  5428     1F76  303F               	movlw	63
  5429     1F77  1283               	bcf	3,5	;RP0=0, select bank0
  5430     1F78  1303               	bcf	3,6	;RP1=0, select bank0
  5431     1F79  0506               	andwf	6,w	;volatile
  5432     1F7A  00F2               	movwf	??_read_digital_keypad
  5433     1F7B  303F               	movlw	63
  5434     1F7C  0672               	xorwf	??_read_digital_keypad,w
  5435     1F7D  1903               	btfsc	3,2
  5436     1F7E  2F80               	goto	u5501
  5437     1F7F  2F81               	goto	u5500
  5438     1F80                     u5501:
  5439     1F80  2F8A               	goto	l4690
  5440     1F81                     u5500:
  5441     1F81                     l4680:
  5442     1F81  1683               	bsf	3,5	;RP0=1, select bank1
  5443     1F82  1303               	bcf	3,6	;RP1=0, select bank1
  5444     1F83  0866               	movf	read_digital_keypad@once^(0+128),w
  5445     1F84  1903               	btfsc	3,2
  5446     1F85  2F87               	goto	u5511
  5447     1F86  2F88               	goto	u5510
  5448     1F87                     u5511:
  5449     1F87  2F8A               	goto	l4690
  5450     1F88                     u5510:
  5451     1F88                     l4682:
  5452                           
  5453                           ;digital_keypad.c: 26:         {;digital_keypad.c: 27:             once = 0;
  5454     1F88  01E6               	clrf	read_digital_keypad@once^(0+128)
  5455     1F89  2F71               	goto	l4672
  5456     1F8A                     l4690:
  5457     1F8A  303F               	movlw	63
  5458     1F8B  1283               	bcf	3,5	;RP0=0, select bank0
  5459     1F8C  0506               	andwf	6,w	;volatile
  5460     1F8D  00F2               	movwf	??_read_digital_keypad
  5461     1F8E  303F               	movlw	63
  5462     1F8F  0672               	xorwf	??_read_digital_keypad,w
  5463     1F90  1D03               	btfss	3,2
  5464     1F91  2F93               	goto	u5521
  5465     1F92  2F94               	goto	u5520
  5466     1F93                     u5521:
  5467     1F93  2F98               	goto	l4694
  5468     1F94                     u5520:
  5469     1F94                     l4692:
  5470                           
  5471                           ;digital_keypad.c: 32:         {;digital_keypad.c: 33:             once = 1;
  5472     1F94  3001               	movlw	1
  5473     1F95  1683               	bsf	3,5	;RP0=1, select bank1
  5474     1F96  1303               	bcf	3,6	;RP1=0, select bank1
  5475     1F97  00E6               	movwf	read_digital_keypad@once^(0+128)
  5476     1F98                     l4694:
  5477                           
  5478                           ;digital_keypad.c: 37:     return 0x3F;
  5479     1F98  303F               	movlw	63
  5480     1F99                     l248:
  5481     1F99  0008               	return
  5482     1F9A                     __end_of_read_digital_keypad:
  5483                           
  5484                           	psect	text5
  5485     1D98                     __ptext5:	
  5486 ;; *************** function _read_adc *****************
  5487 ;; Defined at:
  5488 ;;		line 17 in file "adc.c"
  5489 ;; Parameters:    Size  Location     Type
  5490 ;;		None
  5491 ;; Auto vars:     Size  Location     Type
  5492 ;;  adc_reg_val     2    4[COMMON] unsigned short 
  5493 ;; Return value:  Size  Location     Type
  5494 ;;                  2    2[COMMON] unsigned short 
  5495 ;; Registers used:
  5496 ;;		wreg
  5497 ;; Tracked objects:
  5498 ;;		On entry : 0/0
  5499 ;;		On exit  : 0/0
  5500 ;;		Unchanged: 0/0
  5501 ;; Data sizes:     COMMON   BANK0   BANK1   BANK3   BANK2
  5502 ;;      Params:         2       0       0       0       0
  5503 ;;      Locals:         2       0       0       0       0
  5504 ;;      Temps:          0       0       0       0       0
  5505 ;;      Totals:         4       0       0       0       0
  5506 ;;Total ram usage:        4 bytes
  5507 ;; Hardware stack levels used: 1
  5508 ;; Hardware stack levels required when called: 1
  5509 ;; This function calls:
  5510 ;;		Nothing
  5511 ;; This function is called by:
  5512 ;;		_main
  5513 ;; This function uses a non-reentrant model
  5514 ;;
  5515                           
  5516     1D98                     _read_adc:	
  5517                           ;psect for function _read_adc
  5518                           
  5519     1D98                     l4664:	
  5520                           ;incstack = 0
  5521                           ; Regs used in _read_adc: [wreg]
  5522                           
  5523                           
  5524                           ;adc.c: 19:     unsigned short adc_reg_val;;adc.c: 22:     GO = 1;
  5525     1D98  1283               	bcf	3,5	;RP0=0, select bank0
  5526     1D99  1303               	bcf	3,6	;RP1=0, select bank0
  5527     1D9A  151F               	bsf	31,2	;volatile
  5528     1D9B                     l270:	
  5529                           ;adc.c: 25:     while (nDONE);
  5530                           
  5531     1D9B  191F               	btfsc	31,2	;volatile
  5532     1D9C  2D9E               	goto	u5481
  5533     1D9D  2D9F               	goto	u5480
  5534     1D9E                     u5481:
  5535     1D9E  2D9B               	goto	l270
  5536     1D9F                     u5480:
  5537     1D9F                     l4666:
  5538                           
  5539                           ;adc.c: 28:     adc_reg_val = (ADRESH << 8) | ADRESL;
  5540     1D9F  081E               	movf	30,w	;volatile
  5541     1DA0  00F5               	movwf	read_adc@adc_reg_val+1
  5542     1DA1  1683               	bsf	3,5	;RP0=1, select bank1
  5543     1DA2  1303               	bcf	3,6	;RP1=0, select bank1
  5544     1DA3  081E               	movf	30,w	;volatile
  5545     1DA4  00F4               	movwf	read_adc@adc_reg_val
  5546                           
  5547                           ;adc.c: 30:     return adc_reg_val;
  5548     1DA5  0875               	movf	read_adc@adc_reg_val+1,w
  5549     1DA6  00F3               	movwf	?_read_adc+1
  5550     1DA7  0874               	movf	read_adc@adc_reg_val,w
  5551     1DA8  00F2               	movwf	?_read_adc
  5552     1DA9                     l273:
  5553     1DA9  0008               	return
  5554     1DAA                     __end_of_read_adc:
  5555                           
  5556                           	psect	text6
  5557     15E3                     __ptext6:	
  5558 ;; *************** function _menu_screen *****************
  5559 ;; Defined at:
  5560 ;;		line 74 in file "car_black_box.c"
  5561 ;; Parameters:    Size  Location     Type
  5562 ;;  key             1    wreg     unsigned char 
  5563 ;; Auto vars:     Size  Location     Type
  5564 ;;  key             1    7[BANK0 ] unsigned char 
  5565 ;; Return value:  Size  Location     Type
  5566 ;;                  1    wreg      unsigned char 
  5567 ;; Registers used:
  5568 ;;		wreg, fsr0l, fsr0h, status,2, status,0, btemp+1, pclath, cstack
  5569 ;; Tracked objects:
  5570 ;;		On entry : 0/0
  5571 ;;		On exit  : 0/0
  5572 ;;		Unchanged: 0/0
  5573 ;; Data sizes:     COMMON   BANK0   BANK1   BANK3   BANK2
  5574 ;;      Params:         0       0       0       0       0
  5575 ;;      Locals:         0       1       0       0       0
  5576 ;;      Temps:          0       2       0       0       0
  5577 ;;      Totals:         0       3       0       0       0
  5578 ;;Total ram usage:        3 bytes
  5579 ;; Hardware stack levels used: 1
  5580 ;; Hardware stack levels required when called: 3
  5581 ;; This function calls:
  5582 ;;		_clcd_print
  5583 ;;		_clcd_putch
  5584 ;;		_clear_screen
  5585 ;; This function is called by:
  5586 ;;		_main
  5587 ;; This function uses a non-reentrant model
  5588 ;;
  5589                           
  5590     15E3                     _menu_screen:	
  5591                           ;psect for function _menu_screen
  5592                           
  5593                           
  5594                           ;incstack = 0
  5595                           ; Regs used in _menu_screen: [wreg-fsr0h+status,2+status,0+btemp+1+pclath+cstack]
  5596                           ;menu_screen@key stored from wreg
  5597     15E3  1283               	bcf	3,5	;RP0=0, select bank0
  5598     15E4  1303               	bcf	3,6	;RP1=0, select bank0
  5599     15E5  00A7               	movwf	menu_screen@key
  5600     15E6                     l4820:
  5601                           
  5602                           ;car_black_box.c: 74: unsigned char menu_screen(unsigned char key);car_black_box.c: 75: 
      +                          {;car_black_box.c: 76:     static unsigned char delay=0,flag1=0,flag2=0;;car_black_box.c
      +                          : 77:     if( key==0x2F)
  5603     15E6  302F               	movlw	47
  5604     15E7  0627               	xorwf	menu_screen@key,w
  5605     15E8  1D03               	btfss	3,2
  5606     15E9  2DEB               	goto	u5651
  5607     15EA  2DEC               	goto	u5650
  5608     15EB                     u5651:
  5609     15EB  2E03               	goto	l4828
  5610     15EC                     u5650:
  5611     15EC                     l4822:
  5612                           
  5613                           ;car_black_box.c: 78:     {;car_black_box.c: 79:         flag1=1;
  5614     15EC  3001               	movlw	1
  5615     15ED  1683               	bsf	3,5	;RP0=1, select bank1
  5616     15EE  1303               	bcf	3,6	;RP1=0, select bank1
  5617     15EF  00B7               	movwf	menu_screen@flag1^(0+128)
  5618                           
  5619                           ;car_black_box.c: 80:         return_time=5;
  5620     15F0  3005               	movlw	5
  5621     15F1  00BA               	movwf	_return_time^(0+128)
  5622     15F2                     l4824:
  5623                           
  5624                           ;car_black_box.c: 81:         if(delay++>30)
  5625     15F2  3001               	movlw	1
  5626     15F3  07B8               	addwf	menu_screen@delay^(0+128),f
  5627     15F4  30FF               	movlw	-1
  5628     15F5  0738               	addwf	menu_screen@delay^(0+128),w
  5629     15F6  1283               	bcf	3,5	;RP0=0, select bank0
  5630     15F7  1303               	bcf	3,6	;RP1=0, select bank0
  5631     15F8  00A5               	movwf	??_menu_screen
  5632     15F9  301F               	movlw	31
  5633     15FA  0225               	subwf	??_menu_screen,w
  5634     15FB  1C03               	skipc
  5635     15FC  2DFE               	goto	u5661
  5636     15FD  2DFF               	goto	u5660
  5637     15FE                     u5661:
  5638     15FE  2E2D               	goto	l4846
  5639     15FF                     u5660:
  5640     15FF                     l4826:
  5641                           
  5642                           ;car_black_box.c: 82:             delay=0;
  5643     15FF  1683               	bsf	3,5	;RP0=1, select bank1
  5644     1600  1303               	bcf	3,6	;RP1=0, select bank1
  5645     1601  01B8               	clrf	menu_screen@delay^(0+128)
  5646     1602  2E2D               	goto	l4846
  5647     1603                     l4828:
  5648     1603  303F               	movlw	63
  5649     1604  0627               	xorwf	menu_screen@key,w
  5650     1605  1D03               	btfss	3,2
  5651     1606  2E08               	goto	u5671
  5652     1607  2E09               	goto	u5670
  5653     1608                     u5671:
  5654     1608  2E2D               	goto	l4846
  5655     1609                     u5670:
  5656     1609                     l4830:
  5657     1609  1683               	bsf	3,5	;RP0=1, select bank1
  5658     160A  1303               	bcf	3,6	;RP1=0, select bank1
  5659     160B  0337               	decf	menu_screen@flag1^(0+128),w
  5660     160C  1D03               	btfss	3,2
  5661     160D  2E0F               	goto	u5681
  5662     160E  2E10               	goto	u5680
  5663     160F                     u5681:
  5664     160F  2E2D               	goto	l4846
  5665     1610                     u5680:
  5666     1610                     l4832:
  5667     1610  3004               	movlw	4
  5668     1611  1283               	bcf	3,5	;RP0=0, select bank0
  5669     1612  1303               	bcf	3,6	;RP1=0, select bank0
  5670     1613  0257               	subwf	_menu_pos,w
  5671     1614  1803               	skipnc
  5672     1615  2E17               	goto	u5691
  5673     1616  2E18               	goto	u5690
  5674     1617                     u5691:
  5675     1617  2E2D               	goto	l4846
  5676     1618                     u5690:
  5677     1618                     l4834:
  5678     1618  1683               	bsf	3,5	;RP0=1, select bank1
  5679     1619  1303               	bcf	3,6	;RP1=0, select bank1
  5680     161A  0838               	movf	menu_screen@delay^(0+128),w
  5681     161B  1903               	btfsc	3,2
  5682     161C  2E1E               	goto	u5701
  5683     161D  2E1F               	goto	u5700
  5684     161E                     u5701:
  5685     161E  2E2D               	goto	l4846
  5686     161F                     u5700:
  5687     161F                     l4836:
  5688                           
  5689                           ;car_black_box.c: 85:     {;car_black_box.c: 86:         clear_screen();
  5690     161F  160A  158A  2575  160A  118A  	fcall	_clear_screen
  5691     1624                     l4838:
  5692                           
  5693                           ;car_black_box.c: 87:         menu_pos++;
  5694     1624  3001               	movlw	1
  5695     1625  1283               	bcf	3,5	;RP0=0, select bank0
  5696     1626  1303               	bcf	3,6	;RP1=0, select bank0
  5697     1627  07D7               	addwf	_menu_pos,f
  5698     1628                     l4840:
  5699                           
  5700                           ;car_black_box.c: 88:         long_press_delay=0;
  5701     1628  1683               	bsf	3,5	;RP0=1, select bank1
  5702     1629  1303               	bcf	3,6	;RP1=0, select bank1
  5703     162A  01B9               	clrf	_long_press_delay^(0+128)
  5704     162B                     l4842:
  5705                           
  5706                           ;car_black_box.c: 89:         flag1=0;
  5707     162B  01B7               	clrf	menu_screen@flag1^(0+128)
  5708     162C  2DFF               	goto	l4826
  5709     162D                     l4846:
  5710                           
  5711                           ;car_black_box.c: 92:     if( key==0x37)
  5712     162D  3037               	movlw	55
  5713     162E  1283               	bcf	3,5	;RP0=0, select bank0
  5714     162F  0627               	xorwf	menu_screen@key,w
  5715     1630  1D03               	btfss	3,2
  5716     1631  2E33               	goto	u5711
  5717     1632  2E34               	goto	u5710
  5718     1633                     u5711:
  5719     1633  2E4B               	goto	l4854
  5720     1634                     u5710:
  5721     1634                     l4848:
  5722                           
  5723                           ;car_black_box.c: 93:     {;car_black_box.c: 94:         flag2=1;
  5724     1634  3001               	movlw	1
  5725     1635  1683               	bsf	3,5	;RP0=1, select bank1
  5726     1636  1303               	bcf	3,6	;RP1=0, select bank1
  5727     1637  00B6               	movwf	menu_screen@flag2^(0+128)
  5728                           
  5729                           ;car_black_box.c: 95:         return_time=5;
  5730     1638  3005               	movlw	5
  5731     1639  00BA               	movwf	_return_time^(0+128)
  5732     163A                     l4850:
  5733                           
  5734                           ;car_black_box.c: 96:         if(delay++>30)
  5735     163A  3001               	movlw	1
  5736     163B  07B8               	addwf	menu_screen@delay^(0+128),f
  5737     163C  30FF               	movlw	-1
  5738     163D  0738               	addwf	menu_screen@delay^(0+128),w
  5739     163E  1283               	bcf	3,5	;RP0=0, select bank0
  5740     163F  1303               	bcf	3,6	;RP1=0, select bank0
  5741     1640  00A5               	movwf	??_menu_screen
  5742     1641  301F               	movlw	31
  5743     1642  0225               	subwf	??_menu_screen,w
  5744     1643  1C03               	skipc
  5745     1644  2E46               	goto	u5721
  5746     1645  2E47               	goto	u5720
  5747     1646                     u5721:
  5748     1646  2E70               	goto	l4872
  5749     1647                     u5720:
  5750     1647                     l4852:
  5751                           
  5752                           ;car_black_box.c: 97:            delay=0;
  5753     1647  1683               	bsf	3,5	;RP0=1, select bank1
  5754     1648  1303               	bcf	3,6	;RP1=0, select bank1
  5755     1649  01B8               	clrf	menu_screen@delay^(0+128)
  5756     164A  2E70               	goto	l4872
  5757     164B                     l4854:
  5758     164B  303F               	movlw	63
  5759     164C  0627               	xorwf	menu_screen@key,w
  5760     164D  1D03               	btfss	3,2
  5761     164E  2E50               	goto	u5731
  5762     164F  2E51               	goto	u5730
  5763     1650                     u5731:
  5764     1650  2E70               	goto	l4872
  5765     1651                     u5730:
  5766     1651                     l4856:
  5767     1651  0857               	movf	_menu_pos,w
  5768     1652  1903               	btfsc	3,2
  5769     1653  2E55               	goto	u5741
  5770     1654  2E56               	goto	u5740
  5771     1655                     u5741:
  5772     1655  2E70               	goto	l4872
  5773     1656                     u5740:
  5774     1656                     l4858:
  5775     1656  1683               	bsf	3,5	;RP0=1, select bank1
  5776     1657  1303               	bcf	3,6	;RP1=0, select bank1
  5777     1658  0336               	decf	menu_screen@flag2^(0+128),w
  5778     1659  1D03               	btfss	3,2
  5779     165A  2E5C               	goto	u5751
  5780     165B  2E5D               	goto	u5750
  5781     165C                     u5751:
  5782     165C  2E70               	goto	l4872
  5783     165D                     u5750:
  5784     165D                     l4860:
  5785     165D  0838               	movf	menu_screen@delay^(0+128),w
  5786     165E  1903               	btfsc	3,2
  5787     165F  2E61               	goto	u5761
  5788     1660  2E62               	goto	u5760
  5789     1661                     u5761:
  5790     1661  2E70               	goto	l4872
  5791     1662                     u5760:
  5792     1662                     l4862:
  5793                           
  5794                           ;car_black_box.c: 100:     {;car_black_box.c: 101:         clear_screen();
  5795     1662  160A  158A  2575  160A  118A  	fcall	_clear_screen
  5796     1667                     l4864:
  5797                           
  5798                           ;car_black_box.c: 102:         menu_pos--;
  5799     1667  3001               	movlw	1
  5800     1668  1283               	bcf	3,5	;RP0=0, select bank0
  5801     1669  1303               	bcf	3,6	;RP1=0, select bank0
  5802     166A  02D7               	subwf	_menu_pos,f
  5803     166B                     l4866:
  5804                           
  5805                           ;car_black_box.c: 103:         long_press_delay=0;
  5806     166B  1683               	bsf	3,5	;RP0=1, select bank1
  5807     166C  1303               	bcf	3,6	;RP1=0, select bank1
  5808     166D  01B9               	clrf	_long_press_delay^(0+128)
  5809     166E                     l4868:
  5810                           
  5811                           ;car_black_box.c: 104:         flag2=0;
  5812     166E  01B6               	clrf	menu_screen@flag2^(0+128)
  5813     166F  2E47               	goto	l4852
  5814     1670                     l4872:
  5815                           
  5816                           ;car_black_box.c: 107:     if(menu_pos==4)
  5817     1670  3004               	movlw	4
  5818     1671  1283               	bcf	3,5	;RP0=0, select bank0
  5819     1672  0657               	xorwf	_menu_pos,w
  5820     1673  1D03               	btfss	3,2
  5821     1674  2E76               	goto	u5771
  5822     1675  2E77               	goto	u5770
  5823     1676                     u5771:
  5824     1676  2EAA               	goto	l4880
  5825     1677                     u5770:
  5826     1677                     l4874:
  5827                           
  5828                           ;car_black_box.c: 108:     {;car_black_box.c: 109:         clcd_putch('*',(0xC0 + 1));
  5829     1677  30C1               	movlw	193
  5830     1678  00A4               	movwf	clcd_putch@addr
  5831     1679  302A               	movlw	42
  5832     167A  160A  158A  25AA  160A  118A  	fcall	_clcd_putch
  5833     167F                     l4876:
  5834                           
  5835                           ;car_black_box.c: 110:         clcd_print (menu[menu_pos-1],(0x80 + 2));
  5836     167F  1283               	bcf	3,5	;RP0=0, select bank0
  5837     1680  1303               	bcf	3,6	;RP1=0, select bank0
  5838     1681  0857               	movf	_menu_pos,w
  5839     1682  00A5               	movwf	??_menu_screen
  5840     1683  0725               	addwf	??_menu_screen,w
  5841     1684  3ED7               	addlw	(low ((_menu| 0+254)))& (0+255)
  5842     1685  0084               	movwf	4
  5843     1686  1383               	bcf	3,7	;select IRP bank1
  5844     1687  0800               	movf	0,w
  5845     1688  00F6               	movwf	clcd_print@str
  5846     1689  0A84               	incf	4,f
  5847     168A  0800               	movf	0,w
  5848     168B  0384               	decf	4,f
  5849     168C  00F7               	movwf	clcd_print@str+1
  5850     168D  3082               	movlw	130
  5851     168E  00F8               	movwf	clcd_print@addr
  5852     168F  160A  158A  273C  160A  118A  	fcall	_clcd_print
  5853     1694                     l4878:
  5854                           
  5855                           ;car_black_box.c: 111:         clcd_print (menu[menu_pos],(0xC0 + 2));
  5856     1694  1283               	bcf	3,5	;RP0=0, select bank0
  5857     1695  1303               	bcf	3,6	;RP1=0, select bank0
  5858     1696  0857               	movf	_menu_pos,w
  5859     1697  00A5               	movwf	??_menu_screen
  5860     1698  0725               	addwf	??_menu_screen,w
  5861     1699  3ED9               	addlw	(low (_menu| 0))& (0+255)
  5862     169A  0084               	movwf	4
  5863     169B  1383               	bcf	3,7	;select IRP bank1
  5864     169C  0800               	movf	0,w
  5865     169D  00F6               	movwf	clcd_print@str
  5866     169E  0A84               	incf	4,f
  5867     169F  0800               	movf	0,w
  5868     16A0  0384               	decf	4,f
  5869     16A1  00F7               	movwf	clcd_print@str+1
  5870     16A2  30C2               	movlw	194
  5871     16A3  00F8               	movwf	clcd_print@addr
  5872     16A4  160A  158A  273C  160A  118A  	fcall	_clcd_print
  5873                           
  5874                           ;car_black_box.c: 112:     }
  5875     16A9  2EDC               	goto	l4886
  5876     16AA                     l4880:
  5877                           
  5878                           ;car_black_box.c: 114:     {;car_black_box.c: 115:         clcd_putch('*',(0x80 + 1));
  5879     16AA  3081               	movlw	129
  5880     16AB  00A4               	movwf	clcd_putch@addr
  5881     16AC  302A               	movlw	42
  5882     16AD  160A  158A  25AA  160A  118A  	fcall	_clcd_putch
  5883     16B2                     l4882:
  5884                           
  5885                           ;car_black_box.c: 116:         clcd_print (menu[menu_pos],(0x80 + 2));
  5886     16B2  1283               	bcf	3,5	;RP0=0, select bank0
  5887     16B3  1303               	bcf	3,6	;RP1=0, select bank0
  5888     16B4  0857               	movf	_menu_pos,w
  5889     16B5  00A5               	movwf	??_menu_screen
  5890     16B6  0725               	addwf	??_menu_screen,w
  5891     16B7  3ED9               	addlw	(low (_menu| 0))& (0+255)
  5892     16B8  0084               	movwf	4
  5893     16B9  1383               	bcf	3,7	;select IRP bank1
  5894     16BA  0800               	movf	0,w
  5895     16BB  00F6               	movwf	clcd_print@str
  5896     16BC  0A84               	incf	4,f
  5897     16BD  0800               	movf	0,w
  5898     16BE  0384               	decf	4,f
  5899     16BF  00F7               	movwf	clcd_print@str+1
  5900     16C0  3082               	movlw	130
  5901     16C1  00F8               	movwf	clcd_print@addr
  5902     16C2  160A  158A  273C  160A  118A  	fcall	_clcd_print
  5903     16C7                     l4884:
  5904                           
  5905                           ;car_black_box.c: 117:         clcd_print (menu[menu_pos+1],(0xC0 + 2));
  5906     16C7  1283               	bcf	3,5	;RP0=0, select bank0
  5907     16C8  1303               	bcf	3,6	;RP1=0, select bank0
  5908     16C9  0857               	movf	_menu_pos,w
  5909     16CA  00A5               	movwf	??_menu_screen
  5910     16CB  0725               	addwf	??_menu_screen,w
  5911     16CC  3EDB               	addlw	(low ((_menu| 0+2)))& (0+255)
  5912     16CD  0084               	movwf	4
  5913     16CE  1383               	bcf	3,7	;select IRP bank1
  5914     16CF  0800               	movf	0,w
  5915     16D0  00F6               	movwf	clcd_print@str
  5916     16D1  0A84               	incf	4,f
  5917     16D2  0800               	movf	0,w
  5918     16D3  0384               	decf	4,f
  5919     16D4  00F7               	movwf	clcd_print@str+1
  5920     16D5  30C2               	movlw	194
  5921     16D6  00F8               	movwf	clcd_print@addr
  5922     16D7  160A  158A  273C  160A  118A  	fcall	_clcd_print
  5923     16DC                     l4886:
  5924                           
  5925                           ;car_black_box.c: 119:     if(return_time==0)
  5926     16DC  1683               	bsf	3,5	;RP0=1, select bank1
  5927     16DD  1303               	bcf	3,6	;RP1=0, select bank1
  5928     16DE  083A               	movf	_return_time^(0+128),w
  5929     16DF  1D03               	btfss	3,2
  5930     16E0  2EE2               	goto	u5781
  5931     16E1  2EE3               	goto	u5780
  5932     16E2                     u5781:
  5933     16E2  2EE4               	goto	l346
  5934     16E3                     u5780:
  5935     16E3                     l4888:
  5936                           
  5937                           ;car_black_box.c: 120:         return 0x25;
  5938     16E3  3025               	movlw	37
  5939     16E4                     l346:
  5940     16E4  0008               	return
  5941     16E5                     __end_of_menu_screen:
  5942                           
  5943                           	psect	text7
  5944     088A                     __ptext7:	
  5945 ;; *************** function _login_screen *****************
  5946 ;; Defined at:
  5947 ;;		line 507 in file "car_black_box.c"
  5948 ;; Parameters:    Size  Location     Type
  5949 ;;  key             1    wreg     unsigned char 
  5950 ;;  reset_flag      1    5[BANK0 ] unsigned char 
  5951 ;; Auto vars:     Size  Location     Type
  5952 ;;  key             1   13[BANK0 ] unsigned char 
  5953 ;;  j               1   14[BANK0 ] unsigned char 
  5954 ;;  spasswd         4    9[BANK0 ] unsigned char [4]
  5955 ;; Return value:  Size  Location     Type
  5956 ;;                  1    wreg      unsigned char 
  5957 ;; Registers used:
  5958 ;;		wreg, fsr0l, fsr0h, status,2, status,0, btemp+1, pclath, cstack
  5959 ;; Tracked objects:
  5960 ;;		On entry : 0/0
  5961 ;;		On exit  : 0/0
  5962 ;;		Unchanged: 0/0
  5963 ;; Data sizes:     COMMON   BANK0   BANK1   BANK3   BANK2
  5964 ;;      Params:         0       1       0       0       0
  5965 ;;      Locals:         0       6       0       0       0
  5966 ;;      Temps:          0       3       0       0       0
  5967 ;;      Totals:         0      10       0       0       0
  5968 ;;Total ram usage:       10 bytes
  5969 ;; Hardware stack levels used: 1
  5970 ;; Hardware stack levels required when called: 5
  5971 ;; This function calls:
  5972 ;;		___awdiv
  5973 ;;		___awmod
  5974 ;;		_clcd_print
  5975 ;;		_clcd_putch
  5976 ;;		_clcd_write
  5977 ;;		_clear_screen
  5978 ;;		_read_externaleeprom
  5979 ;;		_strncmp
  5980 ;; This function is called by:
  5981 ;;		_main
  5982 ;; This function uses a non-reentrant model
  5983 ;;
  5984                           
  5985     088A                     _login_screen:	
  5986                           ;psect for function _login_screen
  5987                           
  5988                           
  5989                           ;incstack = 0
  5990                           ; Regs used in _login_screen: [wreg-fsr0h+status,2+status,0+btemp+1+pclath+cstack]
  5991                           ;login_screen@key stored from wreg
  5992     088A  1283               	bcf	3,5	;RP0=0, select bank0
  5993     088B  1303               	bcf	3,6	;RP1=0, select bank0
  5994     088C  00AD               	movwf	login_screen@key
  5995     088D                     l4708:
  5996                           
  5997                           ;car_black_box.c: 507: unsigned char login_screen(unsigned char key,unsigned char reset_
      +                          flag);car_black_box.c: 508: {;car_black_box.c: 509:     static char user_passwd[4];;car_
      +                          black_box.c: 510:     static unsigned char i,attempt_rem;;car_black_box.c: 511:     if(r
      +                          eset_flag == 0x10)
  5998     088D  3010               	movlw	16
  5999     088E  0625               	xorwf	login_screen@reset_flag,w
  6000     088F  1D03               	btfss	3,2
  6001     0890  2892               	goto	u5541
  6002     0891  2893               	goto	u5540
  6003     0892                     u5541:
  6004     0892  28A8               	goto	l4718
  6005     0893                     u5540:
  6006     0893                     l4710:
  6007                           
  6008                           ;car_black_box.c: 512:     {;car_black_box.c: 513:         user_passwd[0]='\0';
  6009     0893  1683               	bsf	3,5	;RP0=1, select bank1
  6010     0894  1303               	bcf	3,6	;RP1=0, select bank1
  6011     0895  01CD               	clrf	login_screen@user_passwd^(0+128)
  6012                           
  6013                           ;car_black_box.c: 514:         user_passwd[1]='\0';
  6014     0896  01CE               	clrf	(login_screen@user_passwd^(0+128)+1)
  6015                           
  6016                           ;car_black_box.c: 515:         user_passwd[2]='\0';
  6017     0897  01CF               	clrf	(login_screen@user_passwd^(0+128)+2)
  6018                           
  6019                           ;car_black_box.c: 516:         user_passwd[3]='\0';
  6020     0898  01D0               	clrf	(login_screen@user_passwd^(0+128)+3)
  6021                           
  6022                           ;car_black_box.c: 517:         i=0;
  6023     0899  1283               	bcf	3,5	;RP0=0, select bank0
  6024     089A  1303               	bcf	3,6	;RP1=0, select bank0
  6025     089B  01D4               	clrf	login_screen@i
  6026     089C                     l4712:
  6027                           
  6028                           ;car_black_box.c: 518:         attempt_rem=3;
  6029     089C  3003               	movlw	3
  6030     089D  1683               	bsf	3,5	;RP0=1, select bank1
  6031     089E  1303               	bcf	3,6	;RP1=0, select bank1
  6032     089F  00AB               	movwf	login_screen@attempt_rem^(0+128)
  6033     08A0                     l4714:
  6034                           
  6035                           ;car_black_box.c: 519:         key=0x3F;
  6036     08A0  303F               	movlw	63
  6037     08A1  1283               	bcf	3,5	;RP0=0, select bank0
  6038     08A2  1303               	bcf	3,6	;RP1=0, select bank0
  6039     08A3  00AD               	movwf	login_screen@key
  6040     08A4                     l4716:
  6041                           
  6042                           ;car_black_box.c: 520:         return_time=5;
  6043     08A4  3005               	movlw	5
  6044     08A5  1683               	bsf	3,5	;RP0=1, select bank1
  6045     08A6  1303               	bcf	3,6	;RP1=0, select bank1
  6046     08A7  00BA               	movwf	_return_time^(0+128)
  6047     08A8                     l4718:
  6048                           
  6049                           ;car_black_box.c: 522:     if(return_time==0)
  6050     08A8  1683               	bsf	3,5	;RP0=1, select bank1
  6051     08A9  1303               	bcf	3,6	;RP1=0, select bank1
  6052     08AA  083A               	movf	_return_time^(0+128),w
  6053     08AB  1D03               	btfss	3,2
  6054     08AC  28AE               	goto	u5551
  6055     08AD  28AF               	goto	u5550
  6056     08AE                     u5551:
  6057     08AE  28B1               	goto	l4724
  6058     08AF                     u5550:
  6059     08AF                     l4720:
  6060                           
  6061                           ;car_black_box.c: 523:         return 0x25;
  6062     08AF  3025               	movlw	37
  6063     08B0  2A44               	goto	l480
  6064     08B1                     l4724:
  6065                           
  6066                           ;car_black_box.c: 524:     if(key == 0x37 && i <4)
  6067     08B1  3037               	movlw	55
  6068     08B2  1283               	bcf	3,5	;RP0=0, select bank0
  6069     08B3  1303               	bcf	3,6	;RP1=0, select bank0
  6070     08B4  062D               	xorwf	login_screen@key,w
  6071     08B5  1D03               	btfss	3,2
  6072     08B6  28B8               	goto	u5561
  6073     08B7  28B9               	goto	u5560
  6074     08B8                     u5561:
  6075     08B8  28D5               	goto	l4736
  6076     08B9                     u5560:
  6077     08B9                     l4726:
  6078     08B9  3004               	movlw	4
  6079     08BA  0254               	subwf	login_screen@i,w
  6080     08BB  1803               	skipnc
  6081     08BC  28BE               	goto	u5571
  6082     08BD  28BF               	goto	u5570
  6083     08BE                     u5571:
  6084     08BE  28D5               	goto	l4736
  6085     08BF                     u5570:
  6086     08BF                     l4728:
  6087                           
  6088                           ;car_black_box.c: 525:     {;car_black_box.c: 526:         user_passwd[i]='1';
  6089     08BF  0854               	movf	login_screen@i,w
  6090     08C0  3ECD               	addlw	(low (login_screen@user_passwd| 0))& (0+255)
  6091     08C1  0084               	movwf	4
  6092     08C2  3031               	movlw	49
  6093     08C3  1383               	bcf	3,7	;select IRP bank1
  6094     08C4  0080               	movwf	0
  6095     08C5                     l4730:
  6096                           
  6097                           ;car_black_box.c: 527:         i++;
  6098     08C5  3001               	movlw	1
  6099     08C6  07D4               	addwf	login_screen@i,f
  6100     08C7                     l4732:
  6101                           
  6102                           ;car_black_box.c: 528:         clcd_putch('*',(0xC0 + i+4));
  6103     08C7  0854               	movf	login_screen@i,w
  6104     08C8  3EC4               	addlw	196
  6105     08C9  00A4               	movwf	clcd_putch@addr
  6106     08CA  302A               	movlw	42
  6107     08CB  160A  158A  25AA  120A  158A  	fcall	_clcd_putch
  6108     08D0                     l4734:
  6109                           
  6110                           ;car_black_box.c: 529:         return_time=5;
  6111     08D0  3005               	movlw	5
  6112     08D1  1683               	bsf	3,5	;RP0=1, select bank1
  6113     08D2  1303               	bcf	3,6	;RP1=0, select bank1
  6114     08D3  00BA               	movwf	_return_time^(0+128)
  6115                           
  6116                           ;car_black_box.c: 530:     }
  6117     08D4  28F3               	goto	l4748
  6118     08D5                     l4736:
  6119     08D5  302F               	movlw	47
  6120     08D6  062D               	xorwf	login_screen@key,w
  6121     08D7  1D03               	btfss	3,2
  6122     08D8  28DA               	goto	u5581
  6123     08D9  28DB               	goto	u5580
  6124     08DA                     u5581:
  6125     08DA  28F3               	goto	l4748
  6126     08DB                     u5580:
  6127     08DB                     l4738:
  6128     08DB  3004               	movlw	4
  6129     08DC  0254               	subwf	login_screen@i,w
  6130     08DD  1803               	skipnc
  6131     08DE  28E0               	goto	u5591
  6132     08DF  28E1               	goto	u5590
  6133     08E0                     u5591:
  6134     08E0  28F3               	goto	l4748
  6135     08E1                     u5590:
  6136     08E1                     l4740:
  6137                           
  6138                           ;car_black_box.c: 532:     {;car_black_box.c: 533:         user_passwd[i]='0';
  6139     08E1  0854               	movf	login_screen@i,w
  6140     08E2  3ECD               	addlw	(low (login_screen@user_passwd| 0))& (0+255)
  6141     08E3  0084               	movwf	4
  6142     08E4  3030               	movlw	48
  6143     08E5  1383               	bcf	3,7	;select IRP bank1
  6144     08E6  0080               	movwf	0
  6145     08E7                     l4742:
  6146                           
  6147                           ;car_black_box.c: 534:         i++;
  6148     08E7  3001               	movlw	1
  6149     08E8  07D4               	addwf	login_screen@i,f
  6150     08E9                     l4744:
  6151                           
  6152                           ;car_black_box.c: 535:         clcd_putch('*',(0xC0 + i+4));
  6153     08E9  0854               	movf	login_screen@i,w
  6154     08EA  3EC4               	addlw	196
  6155     08EB  00A4               	movwf	clcd_putch@addr
  6156     08EC  302A               	movlw	42
  6157     08ED  160A  158A  25AA  120A  158A  	fcall	_clcd_putch
  6158     08F2  28D0               	goto	l4734
  6159     08F3                     l4748:
  6160                           
  6161                           ;car_black_box.c: 538:     if(i == 4)
  6162     08F3  3004               	movlw	4
  6163     08F4  1283               	bcf	3,5	;RP0=0, select bank0
  6164     08F5  0654               	xorwf	login_screen@i,w
  6165     08F6  1D03               	btfss	3,2
  6166     08F7  28F9               	goto	u5601
  6167     08F8  28FA               	goto	u5600
  6168     08F9                     u5601:
  6169     08F9  2A44               	goto	l480
  6170     08FA                     u5600:
  6171     08FA                     l4750:
  6172                           
  6173                           ;car_black_box.c: 539:     {;car_black_box.c: 540:         unsigned char spasswd[4];;car
      +                          _black_box.c: 541:         for(unsigned char j=0; j<4 ;j++)
  6174     08FA  01AE               	clrf	login_screen@j
  6175     08FB                     l4756:
  6176                           
  6177                           ;car_black_box.c: 542:         {;car_black_box.c: 543:             spasswd[j]=read_exter
      +                          naleeprom(j);
  6178     08FB  082E               	movf	login_screen@j,w
  6179     08FC  3E29               	addlw	(low (login_screen@spasswd| 0))& (0+255)
  6180     08FD  0084               	movwf	4
  6181     08FE  082E               	movf	login_screen@j,w
  6182     08FF  160A  158A  2711  120A  158A  	fcall	_read_externaleeprom
  6183     0904  1383               	bcf	3,7	;select IRP bank0
  6184     0905  0080               	movwf	0
  6185     0906                     l4758:
  6186                           
  6187                           ;car_black_box.c: 544:         }
  6188     0906  3001               	movlw	1
  6189     0907  1283               	bcf	3,5	;RP0=0, select bank0
  6190     0908  1303               	bcf	3,6	;RP1=0, select bank0
  6191     0909  07AE               	addwf	login_screen@j,f
  6192     090A                     l4760:
  6193     090A  3004               	movlw	4
  6194     090B  022E               	subwf	login_screen@j,w
  6195     090C  1C03               	skipc
  6196     090D  290F               	goto	u5611
  6197     090E  2910               	goto	u5610
  6198     090F                     u5611:
  6199     090F  28FB               	goto	l4756
  6200     0910                     u5610:
  6201     0910                     l4762:
  6202                           
  6203                           ;car_black_box.c: 545:         if(strncmp(user_passwd,spasswd,4)==0)
  6204     0910  30CD               	movlw	(low (login_screen@user_passwd| 0))& (0+255)
  6205     0911  00F2               	movwf	strncmp@l
  6206     0912  3029               	movlw	(low (login_screen@spasswd| 0))& (0+255)
  6207     0913  00F3               	movwf	strncmp@r
  6208     0914  3004               	movlw	4
  6209     0915  00F4               	movwf	strncmp@n
  6210     0916  3000               	movlw	0
  6211     0917  00F5               	movwf	strncmp@n+1
  6212     0918  160A  118A  2266  120A  158A  	fcall	_strncmp
  6213     091D  0872               	movf	?_strncmp,w
  6214     091E  0473               	iorwf	?_strncmp+1,w
  6215     091F  1D03               	btfss	3,2
  6216     0920  2922               	goto	u5621
  6217     0921  2923               	goto	u5620
  6218     0922                     u5621:
  6219     0922  2952               	goto	l4778
  6220     0923                     u5620:
  6221     0923                     l4764:
  6222                           
  6223                           ;car_black_box.c: 546:         {;car_black_box.c: 547:             clear_screen();
  6224     0923  160A  158A  2575  120A  158A  	fcall	_clear_screen
  6225                           
  6226                           ;car_black_box.c: 548:             clcd_write(0x0C, 0);
  6227     0928  01F2               	clrf	clcd_write@mode
  6228     0929  300C               	movlw	12
  6229     092A  160A  118A  21B5  120A  158A  	fcall	_clcd_write
  6230     092F                     l4766:
  6231                           
  6232                           ;car_black_box.c: 549:              _delay((unsigned long)((100)*(20000000/4000000.0)));
  6233     092F  30A5               	movlw	165
  6234     0930  1283               	bcf	3,5	;RP0=0, select bank0
  6235     0931  1303               	bcf	3,6	;RP1=0, select bank0
  6236     0932  00A6               	movwf	??_login_screen
  6237     0933                     u7777:
  6238     0933  0BA6               	decfsz	??_login_screen,f
  6239     0934  2933               	goto	u7777
  6240     0935  2936               	nop2
  6241     0936                     l4768:
  6242                           
  6243                           ;car_black_box.c: 550:             clcd_print("Login Success",(0x80 + 0));
  6244     0936  30B2               	movlw	low (STR_37| (0+32768))
  6245     0937  00F6               	movwf	clcd_print@str
  6246     0938  3090               	movlw	high (STR_37| (0+32768))
  6247     0939  00F7               	movwf	clcd_print@str+1
  6248     093A  3080               	movlw	128
  6249     093B  00F8               	movwf	clcd_print@addr
  6250     093C  160A  158A  273C  120A  158A  	fcall	_clcd_print
  6251     0941                     l4770:
  6252                           
  6253                           ;car_black_box.c: 551:             _delay((unsigned long)((1500)*(20000000/4000.0)));
  6254     0941  3027               	movlw	39
  6255     0942  1283               	bcf	3,5	;RP0=0, select bank0
  6256     0943  1303               	bcf	3,6	;RP1=0, select bank0
  6257     0944  00A8               	movwf	??_login_screen+2
  6258     0945  300D               	movlw	13
  6259     0946  00A7               	movwf	??_login_screen+1
  6260     0947  3025               	movlw	37
  6261     0948  00A6               	movwf	??_login_screen
  6262     0949                     u7787:
  6263     0949  0BA6               	decfsz	??_login_screen,f
  6264     094A  2949               	goto	u7787
  6265     094B  0BA7               	decfsz	??_login_screen+1,f
  6266     094C  2949               	goto	u7787
  6267     094D  0BA8               	decfsz	??_login_screen+2,f
  6268     094E  2949               	goto	u7787
  6269     094F  2950               	nop2
  6270     0950                     l4772:
  6271                           
  6272                           ;car_black_box.c: 552:             return 0x26;
  6273     0950  3026               	movlw	38
  6274     0951  2A44               	goto	l480
  6275     0952                     l4778:
  6276                           
  6277                           ;car_black_box.c: 555:         {;car_black_box.c: 556:             attempt_rem--;
  6278     0952  3001               	movlw	1
  6279     0953  1683               	bsf	3,5	;RP0=1, select bank1
  6280     0954  1303               	bcf	3,6	;RP1=0, select bank1
  6281     0955  02AB               	subwf	login_screen@attempt_rem^(0+128),f
  6282                           
  6283                           ;car_black_box.c: 557:             if(attempt_rem == 0)
  6284     0956  082B               	movf	login_screen@attempt_rem^(0+128),w
  6285     0957  1D03               	btfss	3,2
  6286     0958  295A               	goto	u5631
  6287     0959  295B               	goto	u5630
  6288     095A                     u5631:
  6289     095A  29D4               	goto	l4796
  6290     095B                     u5630:
  6291     095B                     l4780:
  6292                           
  6293                           ;car_black_box.c: 558:             {;car_black_box.c: 559:                 clear_screen(
      +                          );
  6294     095B  160A  158A  2575  120A  158A  	fcall	_clear_screen
  6295                           
  6296                           ;car_black_box.c: 560:                 clcd_write(0x0C, 0);
  6297     0960  01F2               	clrf	clcd_write@mode
  6298     0961  300C               	movlw	12
  6299     0962  160A  118A  21B5  120A  158A  	fcall	_clcd_write
  6300     0967                     l4782:
  6301                           
  6302                           ;car_black_box.c: 561:                 _delay((unsigned long)((100)*(20000000/4000000.0)
      +                          ));
  6303     0967  30A5               	movlw	165
  6304     0968  1283               	bcf	3,5	;RP0=0, select bank0
  6305     0969  1303               	bcf	3,6	;RP1=0, select bank0
  6306     096A  00A6               	movwf	??_login_screen
  6307     096B                     u7797:
  6308     096B  0BA6               	decfsz	??_login_screen,f
  6309     096C  296B               	goto	u7797
  6310     096D  296E               	nop2
  6311     096E                     l4784:
  6312                           
  6313                           ;car_black_box.c: 562:                 clcd_print("You are blocked",(0x80 + 0));
  6314     096E  3066               	movlw	low (STR_38| (0+32768))
  6315     096F  00F6               	movwf	clcd_print@str
  6316     0970  3090               	movlw	high (STR_38| (0+32768))
  6317     0971  00F7               	movwf	clcd_print@str+1
  6318     0972  3080               	movlw	128
  6319     0973  00F8               	movwf	clcd_print@addr
  6320     0974  160A  158A  273C  120A  158A  	fcall	_clcd_print
  6321     0979                     l4786:
  6322                           
  6323                           ;car_black_box.c: 563:                 clcd_print("wait for ",(0xC0 + 0));
  6324     0979  3002               	movlw	low (STR_39| (0+32768))
  6325     097A  00F6               	movwf	clcd_print@str
  6326     097B  3091               	movlw	high (STR_39| (0+32768))
  6327     097C  00F7               	movwf	clcd_print@str+1
  6328     097D  30C0               	movlw	192
  6329     097E  00F8               	movwf	clcd_print@addr
  6330     097F  160A  158A  273C  120A  158A  	fcall	_clcd_print
  6331     0984                     l4788:
  6332                           
  6333                           ;car_black_box.c: 564:                 clcd_print("secs",(0xC0 + 12));
  6334     0984  303A               	movlw	low (STR_40| (0+32768))
  6335     0985  00F6               	movwf	clcd_print@str
  6336     0986  3091               	movlw	high (STR_40| (0+32768))
  6337     0987  00F7               	movwf	clcd_print@str+1
  6338     0988  30CC               	movlw	204
  6339     0989  00F8               	movwf	clcd_print@addr
  6340     098A  160A  158A  273C  120A  158A  	fcall	_clcd_print
  6341     098F                     l4790:
  6342                           
  6343                           ;car_black_box.c: 565:                 sec=60;
  6344     098F  303C               	movlw	60
  6345     0990  1283               	bcf	3,5	;RP0=0, select bank0
  6346     0991  1303               	bcf	3,6	;RP1=0, select bank0
  6347     0992  00D6               	movwf	_sec
  6348                           
  6349                           ;car_black_box.c: 566:                 while(sec!=0)
  6350     0993  29C8               	goto	l4794
  6351     0994                     l4792:
  6352                           
  6353                           ;car_black_box.c: 567:                 {;car_black_box.c: 568:                     clcd_
      +                          putch(sec/10 +'0',(0xC0 + 9));
  6354     0994  30C9               	movlw	201
  6355     0995  00A4               	movwf	clcd_putch@addr
  6356     0996  300A               	movlw	10
  6357     0997  00F2               	movwf	___awdiv@divisor
  6358     0998  3000               	movlw	0
  6359     0999  00F3               	movwf	___awdiv@divisor+1
  6360     099A  0856               	movf	_sec,w
  6361     099B  00A6               	movwf	??_login_screen
  6362     099C  01A7               	clrf	??_login_screen+1
  6363     099D  0826               	movf	??_login_screen,w
  6364     099E  00F4               	movwf	___awdiv@dividend
  6365     099F  0827               	movf	??_login_screen+1,w
  6366     09A0  00F5               	movwf	___awdiv@dividend+1
  6367     09A1  160A  118A  24C8  120A  158A  	fcall	___awdiv
  6368     09A6  0872               	movf	?___awdiv,w
  6369     09A7  3E30               	addlw	48
  6370     09A8  160A  158A  25AA  120A  158A  	fcall	_clcd_putch
  6371                           
  6372                           ;car_black_box.c: 569:                     clcd_putch(sec%10 +'0',(0xC0 + 10));
  6373     09AD  30CA               	movlw	202
  6374     09AE  1283               	bcf	3,5	;RP0=0, select bank0
  6375     09AF  1303               	bcf	3,6	;RP1=0, select bank0
  6376     09B0  00A4               	movwf	clcd_putch@addr
  6377     09B1  300A               	movlw	10
  6378     09B2  00F2               	movwf	___awmod@divisor
  6379     09B3  3000               	movlw	0
  6380     09B4  00F3               	movwf	___awmod@divisor+1
  6381     09B5  0856               	movf	_sec,w
  6382     09B6  00A6               	movwf	??_login_screen
  6383     09B7  01A7               	clrf	??_login_screen+1
  6384     09B8  0826               	movf	??_login_screen,w
  6385     09B9  00F4               	movwf	___awmod@dividend
  6386     09BA  0827               	movf	??_login_screen+1,w
  6387     09BB  00F5               	movwf	___awmod@dividend+1
  6388     09BC  160A  118A  2352  120A  158A  	fcall	___awmod
  6389     09C1  0872               	movf	?___awmod,w
  6390     09C2  3E30               	addlw	48
  6391     09C3  160A  158A  25AA  120A  158A  	fcall	_clcd_putch
  6392     09C8                     l4794:
  6393                           
  6394                           ;car_black_box.c: 566:                 while(sec!=0)
  6395     09C8  1283               	bcf	3,5	;RP0=0, select bank0
  6396     09C9  1303               	bcf	3,6	;RP1=0, select bank0
  6397     09CA  0856               	movf	_sec,w
  6398     09CB  1D03               	btfss	3,2
  6399     09CC  29CE               	goto	u5641
  6400     09CD  29CF               	goto	u5640
  6401     09CE                     u5641:
  6402     09CE  2994               	goto	l4792
  6403     09CF                     u5640:
  6404     09CF                     l492:
  6405                           
  6406                           ;car_black_box.c: 571:                 attempt_rem=3;
  6407     09CF  3003               	movlw	3
  6408     09D0  1683               	bsf	3,5	;RP0=1, select bank1
  6409     09D1  1303               	bcf	3,6	;RP1=0, select bank1
  6410     09D2  00AB               	movwf	login_screen@attempt_rem^(0+128)
  6411                           
  6412                           ;car_black_box.c: 572:             }
  6413     09D3  2A18               	goto	l4806
  6414     09D4                     l4796:
  6415                           
  6416                           ;car_black_box.c: 574:             {;car_black_box.c: 575:                 clear_screen(
      +                          );
  6417     09D4  160A  158A  2575  120A  158A  	fcall	_clear_screen
  6418                           
  6419                           ;car_black_box.c: 576:                 clcd_write(0x0C, 0);
  6420     09D9  01F2               	clrf	clcd_write@mode
  6421     09DA  300C               	movlw	12
  6422     09DB  160A  118A  21B5  120A  158A  	fcall	_clcd_write
  6423     09E0                     l4798:
  6424                           
  6425                           ;car_black_box.c: 577:                 _delay((unsigned long)((100)*(20000000/4000000.0)
      +                          ));
  6426     09E0  30A5               	movlw	165
  6427     09E1  1283               	bcf	3,5	;RP0=0, select bank0
  6428     09E2  1303               	bcf	3,6	;RP1=0, select bank0
  6429     09E3  00A6               	movwf	??_login_screen
  6430     09E4                     u7807:
  6431     09E4  0BA6               	decfsz	??_login_screen,f
  6432     09E5  29E4               	goto	u7807
  6433     09E6  29E7               	nop2
  6434     09E7                     l4800:
  6435                           
  6436                           ;car_black_box.c: 578:                 clcd_print("Wrong Password",(0x80 + 0));
  6437     09E7  3086               	movlw	low (STR_41| (0+32768))
  6438     09E8  00F6               	movwf	clcd_print@str
  6439     09E9  3090               	movlw	high (STR_41| (0+32768))
  6440     09EA  00F7               	movwf	clcd_print@str+1
  6441     09EB  3080               	movlw	128
  6442     09EC  00F8               	movwf	clcd_print@addr
  6443     09ED  160A  158A  273C  120A  158A  	fcall	_clcd_print
  6444     09F2                     l4802:
  6445                           
  6446                           ;car_black_box.c: 579:                 clcd_print("Attempts left",(0xC0 + 0));
  6447     09F2  30C0               	movlw	low (STR_42| (0+32768))
  6448     09F3  00F6               	movwf	clcd_print@str
  6449     09F4  3090               	movlw	high (STR_42| (0+32768))
  6450     09F5  00F7               	movwf	clcd_print@str+1
  6451     09F6  30C0               	movlw	192
  6452     09F7  00F8               	movwf	clcd_print@addr
  6453     09F8  160A  158A  273C  120A  158A  	fcall	_clcd_print
  6454     09FD                     l4804:
  6455                           
  6456                           ;car_black_box.c: 580:                 clcd_putch(attempt_rem +'0',(0xC0 + 14));
  6457     09FD  30CE               	movlw	206
  6458     09FE  1283               	bcf	3,5	;RP0=0, select bank0
  6459     09FF  1303               	bcf	3,6	;RP1=0, select bank0
  6460     0A00  00A4               	movwf	clcd_putch@addr
  6461     0A01  1683               	bsf	3,5	;RP0=1, select bank1
  6462     0A02  1303               	bcf	3,6	;RP1=0, select bank1
  6463     0A03  082B               	movf	login_screen@attempt_rem^(0+128),w
  6464     0A04  3E30               	addlw	48
  6465     0A05  160A  158A  25AA  120A  158A  	fcall	_clcd_putch
  6466                           
  6467                           ;car_black_box.c: 581:                 _delay((unsigned long)((2000)*(20000000/4000.0)))
      +                          ;
  6468     0A0A  3033               	movlw	51
  6469     0A0B  1283               	bcf	3,5	;RP0=0, select bank0
  6470     0A0C  1303               	bcf	3,6	;RP1=0, select bank0
  6471     0A0D  00A8               	movwf	??_login_screen+2
  6472     0A0E  30BB               	movlw	187
  6473     0A0F  00A7               	movwf	??_login_screen+1
  6474     0A10  30DF               	movlw	223
  6475     0A11  00A6               	movwf	??_login_screen
  6476     0A12                     u7817:
  6477     0A12  0BA6               	decfsz	??_login_screen,f
  6478     0A13  2A12               	goto	u7817
  6479     0A14  0BA7               	decfsz	??_login_screen+1,f
  6480     0A15  2A12               	goto	u7817
  6481     0A16  0BA8               	decfsz	??_login_screen+2,f
  6482     0A17  2A12               	goto	u7817
  6483     0A18                     l4806:
  6484                           
  6485                           ;car_black_box.c: 583:             clear_screen();
  6486     0A18  160A  158A  2575  120A  158A  	fcall	_clear_screen
  6487     0A1D                     l4808:
  6488                           
  6489                           ;car_black_box.c: 584:             clcd_print("Enter Password",(0x80 + 1));
  6490     0A1D  3095               	movlw	low (STR_9| (0+32768))
  6491     0A1E  00F6               	movwf	clcd_print@str
  6492     0A1F  3090               	movlw	high (STR_9| (0+32768))
  6493     0A20  00F7               	movwf	clcd_print@str+1
  6494     0A21  3081               	movlw	129
  6495     0A22  00F8               	movwf	clcd_print@addr
  6496     0A23  160A  158A  273C  120A  158A  	fcall	_clcd_print
  6497     0A28                     l4810:
  6498                           
  6499                           ;car_black_box.c: 585:             clcd_write((0xC0 + 4), 0);
  6500     0A28  01F2               	clrf	clcd_write@mode
  6501     0A29  30C4               	movlw	196
  6502     0A2A  160A  118A  21B5  120A  158A  	fcall	_clcd_write
  6503     0A2F                     l4812:
  6504                           
  6505                           ;car_black_box.c: 586:             clcd_write(0x0F, 0);
  6506     0A2F  01F2               	clrf	clcd_write@mode
  6507     0A30  300F               	movlw	15
  6508     0A31  160A  118A  21B5  120A  158A  	fcall	_clcd_write
  6509     0A36                     l4814:
  6510                           
  6511                           ;car_black_box.c: 587:             _delay((unsigned long)((100)*(20000000/4000000.0)));
  6512     0A36  30A5               	movlw	165
  6513     0A37  1283               	bcf	3,5	;RP0=0, select bank0
  6514     0A38  1303               	bcf	3,6	;RP1=0, select bank0
  6515     0A39  00A6               	movwf	??_login_screen
  6516     0A3A                     u7827:
  6517     0A3A  0BA6               	decfsz	??_login_screen,f
  6518     0A3B  2A3A               	goto	u7827
  6519     0A3C  2A3D               	nop2
  6520     0A3D                     l4816:
  6521                           
  6522                           ;car_black_box.c: 588:             i=0;
  6523     0A3D  1283               	bcf	3,5	;RP0=0, select bank0
  6524     0A3E  1303               	bcf	3,6	;RP1=0, select bank0
  6525     0A3F  01D4               	clrf	login_screen@i
  6526     0A40                     l4818:
  6527                           
  6528                           ;car_black_box.c: 589:             return_time=5;
  6529     0A40  3005               	movlw	5
  6530     0A41  1683               	bsf	3,5	;RP0=1, select bank1
  6531     0A42  1303               	bcf	3,6	;RP1=0, select bank1
  6532     0A43  00BA               	movwf	_return_time^(0+128)
  6533     0A44                     l480:
  6534     0A44  0008               	return
  6535     0A45                     __end_of_login_screen:
  6536                           
  6537                           	psect	text8
  6538     13A9                     __ptext8:	
  6539 ;; *************** function _log_event *****************
  6540 ;; Defined at:
  6541 ;;		line 594 in file "car_black_box.c"
  6542 ;; Parameters:    Size  Location     Type
  6543 ;;  event           1    4[BANK0 ] PTR unsigned char 
  6544 ;;		 -> main@event(3), 
  6545 ;;  speed           1    5[BANK0 ] unsigned char 
  6546 ;; Auto vars:     Size  Location     Type
  6547 ;;		None
  6548 ;; Return value:  Size  Location     Type
  6549 ;;                  1    wreg      void 
  6550 ;; Registers used:
  6551 ;;		wreg, fsr0l, fsr0h, status,2, status,0, btemp+1, pclath, cstack
  6552 ;; Tracked objects:
  6553 ;;		On entry : 0/0
  6554 ;;		On exit  : 0/0
  6555 ;;		Unchanged: 0/0
  6556 ;; Data sizes:     COMMON   BANK0   BANK1   BANK3   BANK2
  6557 ;;      Params:         0       2       0       0       0
  6558 ;;      Locals:         0       0       0       0       0
  6559 ;;      Temps:          0       2       0       0       0
  6560 ;;      Totals:         0       4       0       0       0
  6561 ;;Total ram usage:        4 bytes
  6562 ;; Hardware stack levels used: 1
  6563 ;; Hardware stack levels required when called: 6
  6564 ;; This function calls:
  6565 ;;		___awdiv
  6566 ;;		___awmod
  6567 ;;		_get_time
  6568 ;;		_log_event_eeprom
  6569 ;;		_strncpy
  6570 ;; This function is called by:
  6571 ;;		_main
  6572 ;; This function uses a non-reentrant model
  6573 ;;
  6574                           
  6575     13A9                     _log_event:	
  6576                           ;psect for function _log_event
  6577                           
  6578     13A9                     l5842:	
  6579                           ;incstack = 0
  6580                           ; Regs used in _log_event: [wreg-fsr0h+status,2+status,0+btemp+1+pclath+cstack]
  6581                           
  6582                           
  6583                           ;car_black_box.c: 594: void log_event(unsigned char event[],unsigned char speed);car_bla
      +                          ck_box.c: 595: {;car_black_box.c: 596:     get_time();
  6584     13A9  160A  118A  22B1  160A  118A  	fcall	_get_time
  6585     13AE                     l5844:
  6586                           
  6587                           ;car_black_box.c: 597:     strncpy(log,time,6);
  6588     13AE  30BB               	movlw	(low (_log| 0))& (0+255)
  6589     13AF  00F2               	movwf	strncpy@d
  6590     13B0  30C6               	movlw	(low (_time| 0))& (0+255)
  6591     13B1  00F3               	movwf	strncpy@s
  6592     13B2  3000               	movlw	0
  6593     13B3  00F4               	movwf	strncpy@s+1
  6594     13B4  3006               	movlw	6
  6595     13B5  00F5               	movwf	strncpy@n
  6596     13B6  3000               	movlw	0
  6597     13B7  00F6               	movwf	strncpy@n+1
  6598     13B8  160A  118A  2225  160A  118A  	fcall	_strncpy
  6599     13BD                     l5846:
  6600                           
  6601                           ;car_black_box.c: 598:     strncpy(&log[6],event,2);
  6602     13BD  30C1               	movlw	(low ((_log| 0+6)))& (0+255)
  6603     13BE  00F2               	movwf	strncpy@d
  6604     13BF  1283               	bcf	3,5	;RP0=0, select bank0
  6605     13C0  1303               	bcf	3,6	;RP1=0, select bank0
  6606     13C1  0824               	movf	log_event@event,w
  6607     13C2  00F3               	movwf	strncpy@s
  6608     13C3  3001               	movlw	1
  6609     13C4  00F4               	movwf	strncpy@s+1
  6610     13C5  3002               	movlw	2
  6611     13C6  00F5               	movwf	strncpy@n
  6612     13C7  3000               	movlw	0
  6613     13C8  00F6               	movwf	strncpy@n+1
  6614     13C9  160A  118A  2225  160A  118A  	fcall	_strncpy
  6615                           
  6616                           ;car_black_box.c: 599:     log[8]=speed/10+'0';
  6617     13CE  300A               	movlw	10
  6618     13CF  00F2               	movwf	___awdiv@divisor
  6619     13D0  3000               	movlw	0
  6620     13D1  00F3               	movwf	___awdiv@divisor+1
  6621     13D2  1283               	bcf	3,5	;RP0=0, select bank0
  6622     13D3  1303               	bcf	3,6	;RP1=0, select bank0
  6623     13D4  0825               	movf	log_event@speed,w
  6624     13D5  00A6               	movwf	??_log_event
  6625     13D6  01A7               	clrf	??_log_event+1
  6626     13D7  0826               	movf	??_log_event,w
  6627     13D8  00F4               	movwf	___awdiv@dividend
  6628     13D9  0827               	movf	??_log_event+1,w
  6629     13DA  00F5               	movwf	___awdiv@dividend+1
  6630     13DB  160A  118A  24C8  160A  118A  	fcall	___awdiv
  6631     13E0  0872               	movf	?___awdiv,w
  6632     13E1  3E30               	addlw	48
  6633     13E2  1683               	bsf	3,5	;RP0=1, select bank1
  6634     13E3  1303               	bcf	3,6	;RP1=0, select bank1
  6635     13E4  00C3               	movwf	(_log^(0+128)+8)
  6636                           
  6637                           ;car_black_box.c: 600:     log[9]=speed%10+'0';
  6638     13E5  300A               	movlw	10
  6639     13E6  00F2               	movwf	___awmod@divisor
  6640     13E7  3000               	movlw	0
  6641     13E8  00F3               	movwf	___awmod@divisor+1
  6642     13E9  1283               	bcf	3,5	;RP0=0, select bank0
  6643     13EA  1303               	bcf	3,6	;RP1=0, select bank0
  6644     13EB  0825               	movf	log_event@speed,w
  6645     13EC  00A6               	movwf	??_log_event
  6646     13ED  01A7               	clrf	??_log_event+1
  6647     13EE  0826               	movf	??_log_event,w
  6648     13EF  00F4               	movwf	___awmod@dividend
  6649     13F0  0827               	movf	??_log_event+1,w
  6650     13F1  00F5               	movwf	___awmod@dividend+1
  6651     13F2  160A  118A  2352  160A  118A  	fcall	___awmod
  6652     13F7  0872               	movf	?___awmod,w
  6653     13F8  3E30               	addlw	48
  6654     13F9  1683               	bsf	3,5	;RP0=1, select bank1
  6655     13FA  1303               	bcf	3,6	;RP1=0, select bank1
  6656     13FB  00C4               	movwf	(_log^(0+128)+9)
  6657     13FC                     l5848:
  6658                           
  6659                           ;car_black_box.c: 601:     log[10]='\0';
  6660     13FC  01C5               	clrf	(_log^(0+128)+10)
  6661     13FD                     l5850:
  6662                           
  6663                           ;car_black_box.c: 602:     log_event_eeprom();
  6664     13FD  160A  158A  2695  160A  118A  	fcall	_log_event_eeprom
  6665     1402                     l496:
  6666     1402  0008               	return
  6667     1403                     __end_of_log_event:
  6668                           
  6669                           	psect	text9
  6670     1225                     __ptext9:	
  6671 ;; *************** function _strncpy *****************
  6672 ;; Defined at:
  6673 ;;		line 3 in file "C:\Program Files\Microchip\xc8\v2.50\pic\sources\c99\common\strncpy.c"
  6674 ;; Parameters:    Size  Location     Type
  6675 ;;  d               1    2[COMMON] PTR unsigned char 
  6676 ;;		 -> log(11), 
  6677 ;;  s               2    3[COMMON] PTR const unsigned char 
  6678 ;;		 -> time(7), main@event(3), 
  6679 ;;  n               2    5[COMMON] unsigned int 
  6680 ;; Auto vars:     Size  Location     Type
  6681 ;;  cp              1    0[BANK0 ] PTR unsigned char 
  6682 ;;		 -> log(11), 
  6683 ;; Return value:  Size  Location     Type
  6684 ;;                  1    2[COMMON] PTR unsigned char 
  6685 ;; Registers used:
  6686 ;;		wreg, fsr0l, fsr0h, status,2, status,0, btemp+1
  6687 ;; Tracked objects:
  6688 ;;		On entry : 0/0
  6689 ;;		On exit  : 0/0
  6690 ;;		Unchanged: 0/0
  6691 ;; Data sizes:     COMMON   BANK0   BANK1   BANK3   BANK2
  6692 ;;      Params:         5       0       0       0       0
  6693 ;;      Locals:         0       1       0       0       0
  6694 ;;      Temps:          2       0       0       0       0
  6695 ;;      Totals:         7       1       0       0       0
  6696 ;;Total ram usage:        8 bytes
  6697 ;; Hardware stack levels used: 1
  6698 ;; Hardware stack levels required when called: 1
  6699 ;; This function calls:
  6700 ;;		Nothing
  6701 ;; This function is called by:
  6702 ;;		_log_event
  6703 ;; This function uses a non-reentrant model
  6704 ;;
  6705                           
  6706     1225                     _strncpy:	
  6707                           ;psect for function _strncpy
  6708                           
  6709     1225                     l5826:	
  6710                           ;incstack = 0
  6711                           ; Regs used in _strncpy: [wreg-fsr0h+status,2+status,0+btemp+1]
  6712                           
  6713     1225  0872               	movf	strncpy@d,w
  6714     1226  1283               	bcf	3,5	;RP0=0, select bank0
  6715     1227  1303               	bcf	3,6	;RP1=0, select bank0
  6716     1228  00A0               	movwf	strncpy@cp
  6717     1229  2A4A               	goto	l5834
  6718     122A                     l5828:
  6719     122A  3001               	movlw	1
  6720     122B  02F5               	subwf	strncpy@n,f
  6721     122C  3000               	movlw	0
  6722     122D  1C03               	skipc
  6723     122E  03F6               	decf	strncpy@n+1,f
  6724     122F  02F6               	subwf	strncpy@n+1,f
  6725     1230                     l5830:
  6726     1230  0874               	movf	strncpy@s+1,w
  6727     1231  00F8               	movwf	??_strncpy+1
  6728     1232  0873               	movf	strncpy@s,w
  6729     1233  00F7               	movwf	??_strncpy
  6730     1234  0AF3               	incf	strncpy@s,f
  6731     1235  1903               	skipnz
  6732     1236  0AF4               	incf	strncpy@s+1,f
  6733     1237  0877               	movf	??_strncpy,w
  6734     1238  0084               	movwf	4
  6735     1239  1783               	bsf	3,7
  6736     123A  1C78               	btfss	??_strncpy+1,0
  6737     123B  1383               	bcf	3,7
  6738     123C  0800               	movf	0,w
  6739     123D  00FF               	movwf	btemp+1
  6740     123E  0820               	movf	strncpy@cp,w
  6741     123F  0AA0               	incf	strncpy@cp,f
  6742     1240  0084               	movwf	4
  6743     1241  087F               	movf	btemp+1,w
  6744     1242  1383               	bcf	3,7	;select IRP bank0
  6745     1243  0080               	movwf	0
  6746     1244  0800               	movf	0,w
  6747     1245  1D03               	btfss	3,2
  6748     1246  2A48               	goto	u7361
  6749     1247  2A49               	goto	u7360
  6750     1248                     u7361:
  6751     1248  2A4A               	goto	l5834
  6752     1249                     u7360:
  6753     1249  2A57               	goto	l5840
  6754     124A                     l5834:
  6755     124A  0875               	movf	strncpy@n,w
  6756     124B  0476               	iorwf	strncpy@n+1,w
  6757     124C  1D03               	btfss	3,2
  6758     124D  2A4F               	goto	u7371
  6759     124E  2A50               	goto	u7370
  6760     124F                     u7371:
  6761     124F  2A2A               	goto	l5828
  6762     1250                     u7370:
  6763     1250  2A57               	goto	l5840
  6764     1251                     l5836:
  6765     1251  0820               	movf	strncpy@cp,w
  6766     1252  0084               	movwf	4
  6767     1253  1383               	bcf	3,7	;select IRP bank0
  6768     1254  0180               	clrf	0
  6769     1255                     l5838:
  6770     1255  3001               	movlw	1
  6771     1256  07A0               	addwf	strncpy@cp,f
  6772     1257                     l5840:
  6773     1257  3001               	movlw	1
  6774     1258  02F5               	subwf	strncpy@n,f
  6775     1259  3000               	movlw	0
  6776     125A  1C03               	skipc
  6777     125B  03F6               	decf	strncpy@n+1,f
  6778     125C  02F6               	subwf	strncpy@n+1,f
  6779     125D  0A75               	incf	strncpy@n,w
  6780     125E  1D03               	skipz
  6781     125F  2A64               	goto	u7381
  6782     1260  0A76               	incf	strncpy@n+1,w
  6783     1261  1D03               	btfss	3,2
  6784     1262  2A64               	goto	u7381
  6785     1263  2A65               	goto	u7380
  6786     1264                     u7381:
  6787     1264  2A51               	goto	l5836
  6788     1265                     u7380:
  6789     1265                     l1154:
  6790     1265  0008               	return
  6791     1266                     __end_of_strncpy:
  6792                           
  6793                           	psect	text10
  6794     1E95                     __ptext10:	
  6795 ;; *************** function _log_event_eeprom *****************
  6796 ;; Defined at:
  6797 ;;		line 495 in file "car_black_box.c"
  6798 ;; Parameters:    Size  Location     Type
  6799 ;;		None
  6800 ;; Auto vars:     Size  Location     Type
  6801 ;;  addr            1    8[COMMON] unsigned char 
  6802 ;; Return value:  Size  Location     Type
  6803 ;;                  1    wreg      void 
  6804 ;; Registers used:
  6805 ;;		wreg, fsr0l, fsr0h, status,2, status,0, btemp+1, pclath, cstack
  6806 ;; Tracked objects:
  6807 ;;		On entry : 0/0
  6808 ;;		On exit  : 0/0
  6809 ;;		Unchanged: 0/0
  6810 ;; Data sizes:     COMMON   BANK0   BANK1   BANK3   BANK2
  6811 ;;      Params:         0       0       0       0       0
  6812 ;;      Locals:         1       0       0       0       0
  6813 ;;      Temps:          0       0       0       0       0
  6814 ;;      Totals:         1       0       0       0       0
  6815 ;;Total ram usage:        1 bytes
  6816 ;; Hardware stack levels used: 1
  6817 ;; Hardware stack levels required when called: 5
  6818 ;; This function calls:
  6819 ;;		___bmul
  6820 ;;		_str_write_externaleeprom
  6821 ;; This function is called by:
  6822 ;;		_log_event
  6823 ;; This function uses a non-reentrant model
  6824 ;;
  6825                           
  6826     1E95                     _log_event_eeprom:	
  6827                           ;psect for function _log_event_eeprom
  6828                           
  6829     1E95                     l4518:	
  6830                           ;incstack = 0
  6831                           ; Regs used in _log_event_eeprom: [wreg-fsr0h+status,2+status,0+btemp+1+pclath+cstack]
  6832                           
  6833     1E95                     l4520:
  6834                           
  6835                           ;car_black_box.c: 498:     pos++;
  6836     1E95  3001               	movlw	1
  6837     1E96  1283               	bcf	3,5	;RP0=0, select bank0
  6838     1E97  1303               	bcf	3,6	;RP1=0, select bank0
  6839     1E98  07D8               	addwf	_pos,f
  6840     1E99  1803               	skipnc
  6841     1E9A  0AD9               	incf	_pos+1,f
  6842     1E9B  3000               	movlw	0
  6843     1E9C  07D9               	addwf	_pos+1,f
  6844     1E9D                     l4522:
  6845                           
  6846                           ;car_black_box.c: 499:     if(pos == 10)
  6847     1E9D  300A               	movlw	10
  6848     1E9E  0658               	xorwf	_pos,w
  6849     1E9F  0459               	iorwf	_pos+1,w
  6850     1EA0  1D03               	btfss	3,2
  6851     1EA1  2EA3               	goto	u5211
  6852     1EA2  2EA4               	goto	u5210
  6853     1EA3                     u5211:
  6854     1EA3  2EA6               	goto	l4526
  6855     1EA4                     u5210:
  6856     1EA4                     l4524:
  6857                           
  6858                           ;car_black_box.c: 500:     {;car_black_box.c: 501:         pos=0;
  6859     1EA4  01D8               	clrf	_pos
  6860     1EA5  01D9               	clrf	_pos+1
  6861     1EA6                     l4526:
  6862                           
  6863                           ;car_black_box.c: 503:     addr= 5 + (10*pos);
  6864     1EA6  300A               	movlw	10
  6865     1EA7  00F2               	movwf	___bmul@multiplicand
  6866     1EA8  0858               	movf	_pos,w
  6867     1EA9  160A  158A  25BD  160A  158A  	fcall	___bmul
  6868     1EAE  3E05               	addlw	5
  6869     1EAF  00F8               	movwf	log_event_eeprom@addr
  6870     1EB0                     l4528:
  6871                           
  6872                           ;car_black_box.c: 504:     str_write_externaleeprom(addr,log);
  6873     1EB0  30BB               	movlw	(low (_log| 0))& (0+255)
  6874     1EB1  00F5               	movwf	str_write_externaleeprom@data
  6875     1EB2  3000               	movlw	0
  6876     1EB3  00F6               	movwf	str_write_externaleeprom@data+1
  6877     1EB4  0878               	movf	log_event_eeprom@addr,w
  6878     1EB5  160A  158A  26BB  160A  158A  	fcall	_str_write_externaleeprom
  6879     1EBA                     l469:
  6880     1EBA  0008               	return
  6881     1EBB                     __end_of_log_event_eeprom:
  6882                           
  6883                           	psect	text11
  6884     11EB                     __ptext11:	
  6885 ;; *************** function _init_config *****************
  6886 ;; Defined at:
  6887 ;;		line 16 in file "main.c"
  6888 ;; Parameters:    Size  Location     Type
  6889 ;;		None
  6890 ;; Auto vars:     Size  Location     Type
  6891 ;;		None
  6892 ;; Return value:  Size  Location     Type
  6893 ;;                  1    wreg      void 
  6894 ;; Registers used:
  6895 ;;		wreg, status,2, status,0, pclath, cstack
  6896 ;; Tracked objects:
  6897 ;;		On entry : 0/0
  6898 ;;		On exit  : 0/0
  6899 ;;		Unchanged: 0/0
  6900 ;; Data sizes:     COMMON   BANK0   BANK1   BANK3   BANK2
  6901 ;;      Params:         0       0       0       0       0
  6902 ;;      Locals:         0       0       0       0       0
  6903 ;;      Temps:          0       0       0       0       0
  6904 ;;      Totals:         0       0       0       0       0
  6905 ;;Total ram usage:        0 bytes
  6906 ;; Hardware stack levels used: 1
  6907 ;; Hardware stack levels required when called: 6
  6908 ;; This function calls:
  6909 ;;		_init_adc
  6910 ;;		_init_clcd
  6911 ;;		_init_digital_keypad
  6912 ;;		_init_ds1307
  6913 ;;		_init_i2c
  6914 ;;		_init_timer2
  6915 ;;		_init_uart
  6916 ;; This function is called by:
  6917 ;;		_main
  6918 ;; This function uses a non-reentrant model
  6919 ;;
  6920                           
  6921     11EB                     _init_config:	
  6922                           ;psect for function _init_config
  6923                           
  6924     11EB                     l4642:	
  6925                           ;incstack = 0
  6926                           ; Regs used in _init_config: [wreg+status,2+status,0+pclath+cstack]
  6927                           
  6928                           
  6929                           ;main.c: 18: 
  6930     11EB  3000               	movlw	0
  6931     11EC  1283               	bcf	3,5	;RP0=0, select bank0
  6932     11ED  1303               	bcf	3,6	;RP1=0, select bank0
  6933     11EE  00AB               	movwf	init_i2c@baud+3
  6934     11EF  3001               	movlw	1
  6935     11F0  00AA               	movwf	init_i2c@baud+2
  6936     11F1  3086               	movlw	134
  6937     11F2  00A9               	movwf	init_i2c@baud+1
  6938     11F3  30A0               	movlw	160
  6939     11F4  00A8               	movwf	init_i2c@baud
  6940     11F5  160A  158A  27CC  160A  118A  	fcall	_init_i2c
  6941                           
  6942                           ;main.c: 20: 
  6943     11FA  160A  158A  2586  160A  118A  	fcall	_init_ds1307
  6944                           
  6945                           ;main.c: 23:     PEIE = 1;
  6946     11FF  160A  158A  2536  160A  118A  	fcall	_init_clcd
  6947     1204                     l4644:
  6948                           
  6949                           ;main.c: 25: 
  6950     1204  160A  158A  24FD  160A  118A  	fcall	_init_adc
  6951     1209                     l4646:
  6952                           
  6953                           ;main.c: 27: 
  6954     1209  160A  158A  24F7  160A  118A  	fcall	_init_digital_keypad
  6955                           
  6956                           ;main.c: 29: void main(void)
  6957     120E  160A  158A  255A  160A  118A  	fcall	_init_timer2
  6958     1213                     l4648:
  6959                           
  6960                           ;main.c: 32:     unsigned char event[3]="ON";
  6961     1213  3000               	movlw	0
  6962     1214  1283               	bcf	3,5	;RP0=0, select bank0
  6963     1215  1303               	bcf	3,6	;RP1=0, select bank0
  6964     1216  00AB               	movwf	init_uart@baud+3
  6965     1217  3000               	movlw	0
  6966     1218  00AA               	movwf	init_uart@baud+2
  6967     1219  3025               	movlw	37
  6968     121A  00A9               	movwf	init_uart@baud+1
  6969     121B  3080               	movlw	128
  6970     121C  00A8               	movwf	init_uart@baud
  6971     121D  160A  158A  279A  160A  118A  	fcall	_init_uart
  6972     1222                     l4650:
  6973                           
  6974                           ;main.c: 36:     str_write_externaleeprom(0x00,"1010");
  6975     1222  170B               	bsf	11,6	;volatile
  6976     1223                     l4652:
  6977                           
  6978                           ;main.c: 39:         speed=read_adc() / 10.33;
  6979     1223  178B               	bsf	11,7	;volatile
  6980     1224                     l170:
  6981     1224  0008               	return
  6982     1225                     __end_of_init_config:
  6983                           
  6984                           	psect	text12
  6985     1F9A                     __ptext12:	
  6986 ;; *************** function _init_uart *****************
  6987 ;; Defined at:
  6988 ;;		line 9 in file "uart.c"
  6989 ;; Parameters:    Size  Location     Type
  6990 ;;  baud            4    8[BANK0 ] unsigned long 
  6991 ;; Auto vars:     Size  Location     Type
  6992 ;;		None
  6993 ;; Return value:  Size  Location     Type
  6994 ;;                  1    wreg      void 
  6995 ;; Registers used:
  6996 ;;		wreg, status,2, status,0, pclath, cstack
  6997 ;; Tracked objects:
  6998 ;;		On entry : 0/0
  6999 ;;		On exit  : 0/0
  7000 ;;		Unchanged: 0/0
  7001 ;; Data sizes:     COMMON   BANK0   BANK1   BANK3   BANK2
  7002 ;;      Params:         0       4       0       0       0
  7003 ;;      Locals:         0       0       0       0       0
  7004 ;;      Temps:          0       4       0       0       0
  7005 ;;      Totals:         0       8       0       0       0
  7006 ;;Total ram usage:        8 bytes
  7007 ;; Hardware stack levels used: 1
  7008 ;; Hardware stack levels required when called: 2
  7009 ;; This function calls:
  7010 ;;		___lldiv
  7011 ;; This function is called by:
  7012 ;;		_init_config
  7013 ;; This function uses a non-reentrant model
  7014 ;;
  7015                           
  7016     1F9A                     _init_uart:	
  7017                           ;psect for function _init_uart
  7018                           
  7019     1F9A                     l4472:	
  7020                           ;incstack = 0
  7021                           ; Regs used in _init_uart: [wreg+status,2+status,0+pclath+cstack]
  7022                           
  7023                           
  7024                           ;uart.c: 9: void init_uart(unsigned long baud);uart.c: 10: {;uart.c: 12:     SPEN = 1;
  7025     1F9A  1283               	bcf	3,5	;RP0=0, select bank0
  7026     1F9B  1303               	bcf	3,6	;RP1=0, select bank0
  7027     1F9C  1798               	bsf	24,7	;volatile
  7028                           
  7029                           ;uart.c: 15:     CREN = 1;
  7030     1F9D  1618               	bsf	24,4	;volatile
  7031     1F9E                     l4474:
  7032                           
  7033                           ;uart.c: 18:     SPBRG = (20000000 / (16 * baud)) - 1;
  7034     1F9E  0828               	movf	init_uart@baud,w
  7035     1F9F  00AC               	movwf	??_init_uart
  7036     1FA0  0829               	movf	init_uart@baud+1,w
  7037     1FA1  00AD               	movwf	??_init_uart+1
  7038     1FA2  082A               	movf	init_uart@baud+2,w
  7039     1FA3  00AE               	movwf	??_init_uart+2
  7040     1FA4  082B               	movf	init_uart@baud+3,w
  7041     1FA5  00AF               	movwf	??_init_uart+3
  7042     1FA6  3004               	movlw	4
  7043     1FA7                     u5145:
  7044     1FA7  1003               	clrc
  7045     1FA8  0DAC               	rlf	??_init_uart,f
  7046     1FA9  0DAD               	rlf	??_init_uart+1,f
  7047     1FAA  0DAE               	rlf	??_init_uart+2,f
  7048     1FAB  0DAF               	rlf	??_init_uart+3,f
  7049     1FAC                     u5140:
  7050     1FAC  3EFF               	addlw	-1
  7051     1FAD  1D03               	skipz
  7052     1FAE  2FA7               	goto	u5145
  7053     1FAF  082F               	movf	??_init_uart+3,w
  7054     1FB0  00A3               	movwf	___lldiv@divisor+3
  7055     1FB1  082E               	movf	??_init_uart+2,w
  7056     1FB2  00A2               	movwf	___lldiv@divisor+2
  7057     1FB3  082D               	movf	??_init_uart+1,w
  7058     1FB4  00A1               	movwf	___lldiv@divisor+1
  7059     1FB5  082C               	movf	??_init_uart,w
  7060     1FB6  00A0               	movwf	___lldiv@divisor
  7061     1FB7  3001               	movlw	1
  7062     1FB8  00A7               	movwf	___lldiv@dividend+3
  7063     1FB9  3031               	movlw	49
  7064     1FBA  00A6               	movwf	___lldiv@dividend+2
  7065     1FBB  302D               	movlw	45
  7066     1FBC  00A5               	movwf	___lldiv@dividend+1
  7067     1FBD  3000               	movlw	0
  7068     1FBE  00A4               	movwf	___lldiv@dividend
  7069     1FBF  120A  158A  2024  160A  158A  	fcall	___lldiv
  7070     1FC4  1283               	bcf	3,5	;RP0=0, select bank0
  7071     1FC5  1303               	bcf	3,6	;RP1=0, select bank0
  7072     1FC6  0820               	movf	?___lldiv,w
  7073     1FC7  3EFF               	addlw	255
  7074     1FC8  1683               	bsf	3,5	;RP0=1, select bank1
  7075     1FC9  1303               	bcf	3,6	;RP1=0, select bank1
  7076     1FCA  0099               	movwf	25	;volatile
  7077     1FCB                     l569:
  7078     1FCB  0008               	return
  7079     1FCC                     __end_of_init_uart:
  7080                           
  7081                           	psect	text13
  7082     1D5A                     __ptext13:	
  7083 ;; *************** function _init_timer2 *****************
  7084 ;; Defined at:
  7085 ;;		line 9 in file "timers.c"
  7086 ;; Parameters:    Size  Location     Type
  7087 ;;		None
  7088 ;; Auto vars:     Size  Location     Type
  7089 ;;		None
  7090 ;; Return value:  Size  Location     Type
  7091 ;;                  1    wreg      void 
  7092 ;; Registers used:
  7093 ;;		None
  7094 ;; Tracked objects:
  7095 ;;		On entry : 0/0
  7096 ;;		On exit  : 0/0
  7097 ;;		Unchanged: 0/0
  7098 ;; Data sizes:     COMMON   BANK0   BANK1   BANK3   BANK2
  7099 ;;      Params:         0       0       0       0       0
  7100 ;;      Locals:         0       0       0       0       0
  7101 ;;      Temps:          0       0       0       0       0
  7102 ;;      Totals:         0       0       0       0       0
  7103 ;;Total ram usage:        0 bytes
  7104 ;; Hardware stack levels used: 1
  7105 ;; Hardware stack levels required when called: 1
  7106 ;; This function calls:
  7107 ;;		Nothing
  7108 ;; This function is called by:
  7109 ;;		_init_config
  7110 ;; This function uses a non-reentrant model
  7111 ;;
  7112                           
  7113     1D5A                     _init_timer2:	
  7114                           ;psect for function _init_timer2
  7115                           
  7116     1D5A                     l4470:	
  7117                           ;incstack = 0
  7118                           ; Regs used in _init_timer2: []
  7119                           
  7120                           
  7121                           ;timers.c: 12:     T2CKPS0 = 1;
  7122     1D5A  1283               	bcf	3,5	;RP0=0, select bank0
  7123     1D5B  1303               	bcf	3,6	;RP1=0, select bank0
  7124     1D5C  1412               	bsf	18,0	;volatile
  7125                           
  7126                           ;timers.c: 13:     T2CKPS1 = 1;
  7127     1D5D  1492               	bsf	18,1	;volatile
  7128                           
  7129                           ;timers.c: 16:     PR2 = 250;
  7130     1D5E  30FA               	movlw	250
  7131     1D5F  1683               	bsf	3,5	;RP0=1, select bank1
  7132     1D60  1303               	bcf	3,6	;RP1=0, select bank1
  7133     1D61  0092               	movwf	18	;volatile
  7134                           
  7135                           ;timers.c: 19:     TMR2IE = 1;
  7136     1D62  148C               	bsf	12,1	;volatile
  7137                           
  7138                           ;timers.c: 22:     TMR2ON = 0;
  7139     1D63  1283               	bcf	3,5	;RP0=0, select bank0
  7140     1D64  1303               	bcf	3,6	;RP1=0, select bank0
  7141     1D65  1112               	bcf	18,2	;volatile
  7142     1D66                     l552:
  7143     1D66  0008               	return
  7144     1D67                     __end_of_init_timer2:
  7145                           
  7146                           	psect	text14
  7147     1FCC                     __ptext14:	
  7148 ;; *************** function _init_i2c *****************
  7149 ;; Defined at:
  7150 ;;		line 9 in file "i2c.c"
  7151 ;; Parameters:    Size  Location     Type
  7152 ;;  baud            4    8[BANK0 ] unsigned long 
  7153 ;; Auto vars:     Size  Location     Type
  7154 ;;		None
  7155 ;; Return value:  Size  Location     Type
  7156 ;;                  1    wreg      void 
  7157 ;; Registers used:
  7158 ;;		wreg, status,2, status,0, pclath, cstack
  7159 ;; Tracked objects:
  7160 ;;		On entry : 0/0
  7161 ;;		On exit  : 0/0
  7162 ;;		Unchanged: 0/0
  7163 ;; Data sizes:     COMMON   BANK0   BANK1   BANK3   BANK2
  7164 ;;      Params:         0       4       0       0       0
  7165 ;;      Locals:         0       0       0       0       0
  7166 ;;      Temps:          0       4       0       0       0
  7167 ;;      Totals:         0       8       0       0       0
  7168 ;;Total ram usage:        8 bytes
  7169 ;; Hardware stack levels used: 1
  7170 ;; Hardware stack levels required when called: 2
  7171 ;; This function calls:
  7172 ;;		___lldiv
  7173 ;; This function is called by:
  7174 ;;		_init_config
  7175 ;; This function uses a non-reentrant model
  7176 ;;
  7177                           
  7178     1FCC                     _init_i2c:	
  7179                           ;psect for function _init_i2c
  7180                           
  7181     1FCC                     l4460:	
  7182                           ;incstack = 0
  7183                           ; Regs used in _init_i2c: [wreg+status,2+status,0+pclath+cstack]
  7184                           
  7185                           
  7186                           ;i2c.c: 9: void init_i2c(unsigned long baud);i2c.c: 10: {;i2c.c: 12:     SSPM3 = 1;
  7187     1FCC  1283               	bcf	3,5	;RP0=0, select bank0
  7188     1FCD  1303               	bcf	3,6	;RP1=0, select bank0
  7189     1FCE  1594               	bsf	20,3	;volatile
  7190     1FCF                     l4462:
  7191                           
  7192                           ;i2c.c: 15:     SSPADD = (unsigned char)(20000000 / (4 * baud)) - 1;
  7193     1FCF  0828               	movf	init_i2c@baud,w
  7194     1FD0  00AC               	movwf	??_init_i2c
  7195     1FD1  0829               	movf	init_i2c@baud+1,w
  7196     1FD2  00AD               	movwf	??_init_i2c+1
  7197     1FD3  082A               	movf	init_i2c@baud+2,w
  7198     1FD4  00AE               	movwf	??_init_i2c+2
  7199     1FD5  082B               	movf	init_i2c@baud+3,w
  7200     1FD6  00AF               	movwf	??_init_i2c+3
  7201     1FD7  3002               	movlw	2
  7202     1FD8                     u5135:
  7203     1FD8  1003               	clrc
  7204     1FD9  0DAC               	rlf	??_init_i2c,f
  7205     1FDA  0DAD               	rlf	??_init_i2c+1,f
  7206     1FDB  0DAE               	rlf	??_init_i2c+2,f
  7207     1FDC  0DAF               	rlf	??_init_i2c+3,f
  7208     1FDD                     u5130:
  7209     1FDD  3EFF               	addlw	-1
  7210     1FDE  1D03               	skipz
  7211     1FDF  2FD8               	goto	u5135
  7212     1FE0  082F               	movf	??_init_i2c+3,w
  7213     1FE1  00A3               	movwf	___lldiv@divisor+3
  7214     1FE2  082E               	movf	??_init_i2c+2,w
  7215     1FE3  00A2               	movwf	___lldiv@divisor+2
  7216     1FE4  082D               	movf	??_init_i2c+1,w
  7217     1FE5  00A1               	movwf	___lldiv@divisor+1
  7218     1FE6  082C               	movf	??_init_i2c,w
  7219     1FE7  00A0               	movwf	___lldiv@divisor
  7220     1FE8  3001               	movlw	1
  7221     1FE9  00A7               	movwf	___lldiv@dividend+3
  7222     1FEA  3031               	movlw	49
  7223     1FEB  00A6               	movwf	___lldiv@dividend+2
  7224     1FEC  302D               	movlw	45
  7225     1FED  00A5               	movwf	___lldiv@dividend+1
  7226     1FEE  3000               	movlw	0
  7227     1FEF  00A4               	movwf	___lldiv@dividend
  7228     1FF0  120A  158A  2024  160A  158A  	fcall	___lldiv
  7229     1FF5  1283               	bcf	3,5	;RP0=0, select bank0
  7230     1FF6  1303               	bcf	3,6	;RP1=0, select bank0
  7231     1FF7  0820               	movf	?___lldiv,w
  7232     1FF8  3EFF               	addlw	255
  7233     1FF9  1683               	bsf	3,5	;RP0=1, select bank1
  7234     1FFA  1303               	bcf	3,6	;RP1=0, select bank1
  7235     1FFB  0093               	movwf	19	;volatile
  7236     1FFC                     l4464:
  7237                           
  7238                           ;i2c.c: 18:     SSPEN = 1;
  7239     1FFC  1283               	bcf	3,5	;RP0=0, select bank0
  7240     1FFD  1303               	bcf	3,6	;RP1=0, select bank0
  7241     1FFE  1694               	bsf	20,5	;volatile
  7242     1FFF                     l84:
  7243     1FFF  0008               	return
  7244     2000                     __end_of_init_i2c:
  7245                           
  7246                           	psect	text15
  7247     0824                     __ptext15:	
  7248 ;; *************** function ___lldiv *****************
  7249 ;; Defined at:
  7250 ;;		line 5 in file "C:\Program Files\Microchip\xc8\v2.50\pic\sources\c99\common\__lldiv.c"
  7251 ;; Parameters:    Size  Location     Type
  7252 ;;  divisor         4    0[BANK0 ] unsigned long 
  7253 ;;  dividend        4    4[BANK0 ] unsigned long 
  7254 ;; Auto vars:     Size  Location     Type
  7255 ;;  quotient        4    3[COMMON] unsigned long 
  7256 ;;  counter         1    7[COMMON] unsigned char 
  7257 ;; Return value:  Size  Location     Type
  7258 ;;                  4    0[BANK0 ] unsigned long 
  7259 ;; Registers used:
  7260 ;;		wreg, status,2, status,0
  7261 ;; Tracked objects:
  7262 ;;		On entry : 0/0
  7263 ;;		On exit  : 0/0
  7264 ;;		Unchanged: 0/0
  7265 ;; Data sizes:     COMMON   BANK0   BANK1   BANK3   BANK2
  7266 ;;      Params:         0       8       0       0       0
  7267 ;;      Locals:         5       0       0       0       0
  7268 ;;      Temps:          1       0       0       0       0
  7269 ;;      Totals:         6       8       0       0       0
  7270 ;;Total ram usage:       14 bytes
  7271 ;; Hardware stack levels used: 1
  7272 ;; Hardware stack levels required when called: 1
  7273 ;; This function calls:
  7274 ;;		Nothing
  7275 ;; This function is called by:
  7276 ;;		_init_i2c
  7277 ;;		_init_uart
  7278 ;; This function uses a non-reentrant model
  7279 ;;
  7280                           
  7281     0824                     ___lldiv:	
  7282                           ;psect for function ___lldiv
  7283                           
  7284     0824                     l4414:	
  7285                           ;incstack = 0
  7286                           ; Regs used in ___lldiv: [wreg+status,2+status,0]
  7287                           
  7288     0824  3000               	movlw	0
  7289     0825  00F6               	movwf	___lldiv@quotient+3
  7290     0826  3000               	movlw	0
  7291     0827  00F5               	movwf	___lldiv@quotient+2
  7292     0828  3000               	movlw	0
  7293     0829  00F4               	movwf	___lldiv@quotient+1
  7294     082A  3000               	movlw	0
  7295     082B  00F3               	movwf	___lldiv@quotient
  7296     082C  1283               	bcf	3,5	;RP0=0, select bank0
  7297     082D  1303               	bcf	3,6	;RP1=0, select bank0
  7298     082E  0823               	movf	___lldiv@divisor+3,w
  7299     082F  0422               	iorwf	___lldiv@divisor+2,w
  7300     0830  0421               	iorwf	___lldiv@divisor+1,w
  7301     0831  0420               	iorwf	___lldiv@divisor,w
  7302     0832  1903               	skipnz
  7303     0833  2835               	goto	u5051
  7304     0834  2836               	goto	u5050
  7305     0835                     u5051:
  7306     0835  2881               	goto	l4434
  7307     0836                     u5050:
  7308     0836                     l4416:
  7309     0836  3001               	movlw	1
  7310     0837  00F7               	movwf	___lldiv@counter
  7311     0838  2844               	goto	l4420
  7312     0839                     l4418:
  7313     0839  3001               	movlw	1
  7314     083A  00F2               	movwf	??___lldiv
  7315     083B                     u5065:
  7316     083B  1003               	clrc
  7317     083C  0DA0               	rlf	___lldiv@divisor,f
  7318     083D  0DA1               	rlf	___lldiv@divisor+1,f
  7319     083E  0DA2               	rlf	___lldiv@divisor+2,f
  7320     083F  0DA3               	rlf	___lldiv@divisor+3,f
  7321     0840  0BF2               	decfsz	??___lldiv,f
  7322     0841  283B               	goto	u5065
  7323     0842  3001               	movlw	1
  7324     0843  07F7               	addwf	___lldiv@counter,f
  7325     0844                     l4420:
  7326     0844  1FA3               	btfss	___lldiv@divisor+3,7
  7327     0845  2847               	goto	u5071
  7328     0846  2848               	goto	u5070
  7329     0847                     u5071:
  7330     0847  2839               	goto	l4418
  7331     0848                     u5070:
  7332     0848                     l4422:
  7333     0848  3001               	movlw	1
  7334     0849  00F2               	movwf	??___lldiv
  7335     084A                     u5085:
  7336     084A  1003               	clrc
  7337     084B  0DF3               	rlf	___lldiv@quotient,f
  7338     084C  0DF4               	rlf	___lldiv@quotient+1,f
  7339     084D  0DF5               	rlf	___lldiv@quotient+2,f
  7340     084E  0DF6               	rlf	___lldiv@quotient+3,f
  7341     084F  0BF2               	decfsz	??___lldiv,f
  7342     0850  284A               	goto	u5085
  7343     0851                     l4424:
  7344     0851  0823               	movf	___lldiv@divisor+3,w
  7345     0852  0227               	subwf	___lldiv@dividend+3,w
  7346     0853  1D03               	skipz
  7347     0854  285F               	goto	u5095
  7348     0855  0822               	movf	___lldiv@divisor+2,w
  7349     0856  0226               	subwf	___lldiv@dividend+2,w
  7350     0857  1D03               	skipz
  7351     0858  285F               	goto	u5095
  7352     0859  0821               	movf	___lldiv@divisor+1,w
  7353     085A  0225               	subwf	___lldiv@dividend+1,w
  7354     085B  1D03               	skipz
  7355     085C  285F               	goto	u5095
  7356     085D  0820               	movf	___lldiv@divisor,w
  7357     085E  0224               	subwf	___lldiv@dividend,w
  7358     085F                     u5095:
  7359     085F  1C03               	skipc
  7360     0860  2862               	goto	u5091
  7361     0861  2863               	goto	u5090
  7362     0862                     u5091:
  7363     0862  2872               	goto	l4430
  7364     0863                     u5090:
  7365     0863                     l4426:
  7366     0863  0820               	movf	___lldiv@divisor,w
  7367     0864  02A4               	subwf	___lldiv@dividend,f
  7368     0865  0821               	movf	___lldiv@divisor+1,w
  7369     0866  1C03               	skipc
  7370     0867  0F21               	incfsz	___lldiv@divisor+1,w
  7371     0868  02A5               	subwf	___lldiv@dividend+1,f
  7372     0869  0822               	movf	___lldiv@divisor+2,w
  7373     086A  1C03               	skipc
  7374     086B  0F22               	incfsz	___lldiv@divisor+2,w
  7375     086C  02A6               	subwf	___lldiv@dividend+2,f
  7376     086D  0823               	movf	___lldiv@divisor+3,w
  7377     086E  1C03               	skipc
  7378     086F  0F23               	incfsz	___lldiv@divisor+3,w
  7379     0870  02A7               	subwf	___lldiv@dividend+3,f
  7380     0871                     l4428:
  7381     0871  1473               	bsf	___lldiv@quotient,0
  7382     0872                     l4430:
  7383     0872  3001               	movlw	1
  7384     0873                     u5105:
  7385     0873  1003               	clrc
  7386     0874  0CA3               	rrf	___lldiv@divisor+3,f
  7387     0875  0CA2               	rrf	___lldiv@divisor+2,f
  7388     0876  0CA1               	rrf	___lldiv@divisor+1,f
  7389     0877  0CA0               	rrf	___lldiv@divisor,f
  7390     0878  3EFF               	addlw	-1
  7391     0879  1D03               	skipz
  7392     087A  2873               	goto	u5105
  7393     087B                     l4432:
  7394     087B  3001               	movlw	1
  7395     087C  02F7               	subwf	___lldiv@counter,f
  7396     087D  1D03               	btfss	3,2
  7397     087E  2880               	goto	u5111
  7398     087F  2881               	goto	u5110
  7399     0880                     u5111:
  7400     0880  2848               	goto	l4422
  7401     0881                     u5110:
  7402     0881                     l4434:
  7403     0881  0876               	movf	___lldiv@quotient+3,w
  7404     0882  00A3               	movwf	?___lldiv+3
  7405     0883  0875               	movf	___lldiv@quotient+2,w
  7406     0884  00A2               	movwf	?___lldiv+2
  7407     0885  0874               	movf	___lldiv@quotient+1,w
  7408     0886  00A1               	movwf	?___lldiv+1
  7409     0887  0873               	movf	___lldiv@quotient,w
  7410     0888  00A0               	movwf	?___lldiv
  7411     0889                     l709:
  7412     0889  0008               	return
  7413     088A                     __end_of___lldiv:
  7414                           
  7415                           	psect	text16
  7416     1D86                     __ptext16:	
  7417 ;; *************** function _init_ds1307 *****************
  7418 ;; Defined at:
  7419 ;;		line 10 in file "ds1307.c"
  7420 ;; Parameters:    Size  Location     Type
  7421 ;;		None
  7422 ;; Auto vars:     Size  Location     Type
  7423 ;;  dummy           1    6[COMMON] unsigned char 
  7424 ;; Return value:  Size  Location     Type
  7425 ;;                  1    wreg      void 
  7426 ;; Registers used:
  7427 ;;		wreg, status,2, status,0, pclath, cstack
  7428 ;; Tracked objects:
  7429 ;;		On entry : 0/0
  7430 ;;		On exit  : 0/0
  7431 ;;		Unchanged: 0/0
  7432 ;; Data sizes:     COMMON   BANK0   BANK1   BANK3   BANK2
  7433 ;;      Params:         0       0       0       0       0
  7434 ;;      Locals:         1       0       0       0       0
  7435 ;;      Temps:          0       0       0       0       0
  7436 ;;      Totals:         1       0       0       0       0
  7437 ;;Total ram usage:        1 bytes
  7438 ;; Hardware stack levels used: 1
  7439 ;; Hardware stack levels required when called: 5
  7440 ;; This function calls:
  7441 ;;		_read_ds1307
  7442 ;;		_write_ds1307
  7443 ;; This function is called by:
  7444 ;;		_init_config
  7445 ;; This function uses a non-reentrant model
  7446 ;;
  7447                           
  7448     1D86                     _init_ds1307:	
  7449                           ;psect for function _init_ds1307
  7450                           
  7451     1D86                     l4454:	
  7452                           ;incstack = 0
  7453                           ; Regs used in _init_ds1307: [wreg+status,2+status,0+pclath+cstack]
  7454                           
  7455                           
  7456                           ;ds1307.c: 12:     unsigned char dummy;;ds1307.c: 14:     dummy = read_ds1307(0x00);
  7457     1D86  3000               	movlw	0
  7458     1D87  160A  158A  26E6  160A  158A  	fcall	_read_ds1307
  7459     1D8C  00F6               	movwf	init_ds1307@dummy
  7460     1D8D                     l4456:
  7461                           
  7462                           ;ds1307.c: 15:     dummy = dummy & 0x7F;
  7463     1D8D  307F               	movlw	127
  7464     1D8E  05F6               	andwf	init_ds1307@dummy,f
  7465     1D8F                     l4458:
  7466                           
  7467                           ;ds1307.c: 16:     write_ds1307(0x00, dummy);
  7468     1D8F  0876               	movf	init_ds1307@dummy,w
  7469     1D90  00F3               	movwf	write_ds1307@data
  7470     1D91  3000               	movlw	0
  7471     1D92  160A  158A  260B  160A  158A  	fcall	_write_ds1307
  7472     1D97                     l49:
  7473     1D97  0008               	return
  7474     1D98                     __end_of_init_ds1307:
  7475                           
  7476                           	psect	text17
  7477     1E0B                     __ptext17:	
  7478 ;; *************** function _write_ds1307 *****************
  7479 ;; Defined at:
  7480 ;;		line 34 in file "ds1307.c"
  7481 ;; Parameters:    Size  Location     Type
  7482 ;;  addr            1    wreg     unsigned char 
  7483 ;;  data            1    3[COMMON] unsigned char 
  7484 ;; Auto vars:     Size  Location     Type
  7485 ;;  addr            1    4[COMMON] unsigned char 
  7486 ;; Return value:  Size  Location     Type
  7487 ;;                  1    wreg      void 
  7488 ;; Registers used:
  7489 ;;		wreg, status,2, status,0, pclath, cstack
  7490 ;; Tracked objects:
  7491 ;;		On entry : 0/0
  7492 ;;		On exit  : 0/0
  7493 ;;		Unchanged: 0/0
  7494 ;; Data sizes:     COMMON   BANK0   BANK1   BANK3   BANK2
  7495 ;;      Params:         1       0       0       0       0
  7496 ;;      Locals:         1       0       0       0       0
  7497 ;;      Temps:          0       0       0       0       0
  7498 ;;      Totals:         2       0       0       0       0
  7499 ;;Total ram usage:        2 bytes
  7500 ;; Hardware stack levels used: 1
  7501 ;; Hardware stack levels required when called: 3
  7502 ;; This function calls:
  7503 ;;		_i2c_start
  7504 ;;		_i2c_stop
  7505 ;;		_i2c_write
  7506 ;; This function is called by:
  7507 ;;		_init_ds1307
  7508 ;;		_set_time
  7509 ;; This function uses a non-reentrant model
  7510 ;;
  7511                           
  7512     1E0B                     _write_ds1307:	
  7513                           ;psect for function _write_ds1307
  7514                           
  7515                           
  7516                           ;incstack = 0
  7517                           ; Regs used in _write_ds1307: [wreg+status,2+status,0+pclath+cstack]
  7518                           ;write_ds1307@addr stored from wreg
  7519     1E0B  00F4               	movwf	write_ds1307@addr
  7520     1E0C                     l4370:
  7521                           
  7522                           ;ds1307.c: 34: void write_ds1307(unsigned char addr, unsigned char data);ds1307.c: 35: {
      +                          ;ds1307.c: 36:     i2c_start();
  7523     1E0C  160A  158A  250C  160A  158A  	fcall	_i2c_start
  7524                           
  7525                           ;ds1307.c: 37:     i2c_write(0b11010000);
  7526     1E11  30D0               	movlw	208
  7527     1E12  160A  158A  2515  160A  158A  	fcall	_i2c_write
  7528                           
  7529                           ;ds1307.c: 38:     i2c_write(addr);
  7530     1E17  0874               	movf	write_ds1307@addr,w
  7531     1E18  160A  158A  2515  160A  158A  	fcall	_i2c_write
  7532                           
  7533                           ;ds1307.c: 39:     i2c_write(data);
  7534     1E1D  0873               	movf	write_ds1307@data,w
  7535     1E1E  160A  158A  2515  160A  158A  	fcall	_i2c_write
  7536                           
  7537                           ;ds1307.c: 40:     i2c_stop();
  7538     1E23  120A  118A  27F7  160A  158A  	fcall	_i2c_stop
  7539     1E28                     l55:
  7540     1E28  0008               	return
  7541     1E29                     __end_of_write_ds1307:
  7542                           
  7543                           	psect	text18
  7544     1CF7                     __ptext18:	
  7545 ;; *************** function _init_digital_keypad *****************
  7546 ;; Defined at:
  7547 ;;		line 9 in file "digital_keypad.c"
  7548 ;; Parameters:    Size  Location     Type
  7549 ;;		None
  7550 ;; Auto vars:     Size  Location     Type
  7551 ;;		None
  7552 ;; Return value:  Size  Location     Type
  7553 ;;                  1    wreg      void 
  7554 ;; Registers used:
  7555 ;;		wreg, status,2
  7556 ;; Tracked objects:
  7557 ;;		On entry : 0/0
  7558 ;;		On exit  : 0/0
  7559 ;;		Unchanged: 0/0
  7560 ;; Data sizes:     COMMON   BANK0   BANK1   BANK3   BANK2
  7561 ;;      Params:         0       0       0       0       0
  7562 ;;      Locals:         0       0       0       0       0
  7563 ;;      Temps:          0       0       0       0       0
  7564 ;;      Totals:         0       0       0       0       0
  7565 ;;Total ram usage:        0 bytes
  7566 ;; Hardware stack levels used: 1
  7567 ;; Hardware stack levels required when called: 1
  7568 ;; This function calls:
  7569 ;;		Nothing
  7570 ;; This function is called by:
  7571 ;;		_init_config
  7572 ;; This function uses a non-reentrant model
  7573 ;;
  7574                           
  7575     1CF7                     _init_digital_keypad:	
  7576                           ;psect for function _init_digital_keypad
  7577                           
  7578     1CF7                     l4468:	
  7579                           ;incstack = 0
  7580                           ; Regs used in _init_digital_keypad: [wreg+status,2]
  7581                           
  7582                           
  7583                           ;digital_keypad.c: 12:     TRISB = TRISB | 0x3F;
  7584     1CF7  1683               	bsf	3,5	;RP0=1, select bank1
  7585     1CF8  1303               	bcf	3,6	;RP1=0, select bank1
  7586     1CF9  0806               	movf	6,w	;volatile
  7587     1CFA  383F               	iorlw	63
  7588     1CFB  0086               	movwf	6	;volatile
  7589     1CFC                     l242:
  7590     1CFC  0008               	return
  7591     1CFD                     __end_of_init_digital_keypad:
  7592                           
  7593                           	psect	text19
  7594     1D36                     __ptext19:	
  7595 ;; *************** function _init_clcd *****************
  7596 ;; Defined at:
  7597 ;;		line 49 in file "clcd.c"
  7598 ;; Parameters:    Size  Location     Type
  7599 ;;		None
  7600 ;; Auto vars:     Size  Location     Type
  7601 ;;		None
  7602 ;; Return value:  Size  Location     Type
  7603 ;;                  1    wreg      void 
  7604 ;; Registers used:
  7605 ;;		wreg, status,2, status,0, pclath, cstack
  7606 ;; Tracked objects:
  7607 ;;		On entry : 0/0
  7608 ;;		On exit  : 0/0
  7609 ;;		Unchanged: 0/0
  7610 ;; Data sizes:     COMMON   BANK0   BANK1   BANK3   BANK2
  7611 ;;      Params:         0       0       0       0       0
  7612 ;;      Locals:         0       0       0       0       0
  7613 ;;      Temps:          0       0       0       0       0
  7614 ;;      Totals:         0       0       0       0       0
  7615 ;;Total ram usage:        0 bytes
  7616 ;; Hardware stack levels used: 1
  7617 ;; Hardware stack levels required when called: 3
  7618 ;; This function calls:
  7619 ;;		_init_display_controller
  7620 ;; This function is called by:
  7621 ;;		_init_config
  7622 ;; This function uses a non-reentrant model
  7623 ;;
  7624                           
  7625     1D36                     _init_clcd:	
  7626                           ;psect for function _init_clcd
  7627                           
  7628     1D36                     l4438:	
  7629                           ;incstack = 0
  7630                           ; Regs used in _init_clcd: [wreg+status,2+status,0+pclath+cstack]
  7631                           
  7632                           
  7633                           ;clcd.c: 52:     TRISD = 0x00;
  7634     1D36  1683               	bsf	3,5	;RP0=1, select bank1
  7635     1D37  1303               	bcf	3,6	;RP1=0, select bank1
  7636     1D38  0188               	clrf	8	;volatile
  7637     1D39                     l4440:
  7638                           
  7639                           ;clcd.c: 55:     TRISE2 = 0;
  7640     1D39  1109               	bcf	9,2	;volatile
  7641     1D3A                     l4442:
  7642                           
  7643                           ;clcd.c: 56:     TRISE1 = 0;
  7644     1D3A  1089               	bcf	9,1	;volatile
  7645     1D3B                     l4444:
  7646                           
  7647                           ;clcd.c: 58:     init_display_controller();
  7648     1D3B  160A  118A  2465  160A  158A  	fcall	_init_display_controller
  7649     1D40                     l23:
  7650     1D40  0008               	return
  7651     1D41                     __end_of_init_clcd:
  7652                           
  7653                           	psect	text20
  7654     1465                     __ptext20:	
  7655 ;; *************** function _init_display_controller *****************
  7656 ;; Defined at:
  7657 ;;		line 26 in file "clcd.c"
  7658 ;; Parameters:    Size  Location     Type
  7659 ;;		None
  7660 ;; Auto vars:     Size  Location     Type
  7661 ;;		None
  7662 ;; Return value:  Size  Location     Type
  7663 ;;                  1    wreg      void 
  7664 ;; Registers used:
  7665 ;;		wreg, status,2, status,0, pclath, cstack
  7666 ;; Tracked objects:
  7667 ;;		On entry : 0/0
  7668 ;;		On exit  : 0/0
  7669 ;;		Unchanged: 0/0
  7670 ;; Data sizes:     COMMON   BANK0   BANK1   BANK3   BANK2
  7671 ;;      Params:         0       0       0       0       0
  7672 ;;      Locals:         0       0       0       0       0
  7673 ;;      Temps:          2       0       0       0       0
  7674 ;;      Totals:         2       0       0       0       0
  7675 ;;Total ram usage:        2 bytes
  7676 ;; Hardware stack levels used: 1
  7677 ;; Hardware stack levels required when called: 2
  7678 ;; This function calls:
  7679 ;;		_clcd_write
  7680 ;; This function is called by:
  7681 ;;		_init_clcd
  7682 ;; This function uses a non-reentrant model
  7683 ;;
  7684                           
  7685     1465                     _init_display_controller:	
  7686                           ;psect for function _init_display_controller
  7687                           
  7688     1465                     l4344:	
  7689                           ;incstack = 0
  7690                           ; Regs used in _init_display_controller: [wreg+status,2+status,0+pclath+cstack]
  7691                           
  7692                           
  7693                           ;clcd.c: 29:     _delay((unsigned long)((30)*(20000000/4000.0)));
  7694     1465  30C3               	movlw	195
  7695     1466  00F7               	movwf	??_init_display_controller+1
  7696     1467  30CD               	movlw	205
  7697     1468  00F6               	movwf	??_init_display_controller
  7698     1469                     u7837:
  7699     1469  0BF6               	decfsz	??_init_display_controller,f
  7700     146A  2C69               	goto	u7837
  7701     146B  0BF7               	decfsz	??_init_display_controller+1,f
  7702     146C  2C69               	goto	u7837
  7703     146D                     l4346:
  7704                           
  7705                           ;clcd.c: 32:     clcd_write(0x33, 0);
  7706     146D  01F2               	clrf	clcd_write@mode
  7707     146E  3033               	movlw	51
  7708     146F  160A  118A  21B5  160A  118A  	fcall	_clcd_write
  7709     1474                     l4348:
  7710                           
  7711                           ;clcd.c: 33:     _delay((unsigned long)((4100)*(20000000/4000000.0)));
  7712     1474  301B               	movlw	27
  7713     1475  00F7               	movwf	??_init_display_controller+1
  7714     1476  309E               	movlw	158
  7715     1477  00F6               	movwf	??_init_display_controller
  7716     1478                     u7847:
  7717     1478  0BF6               	decfsz	??_init_display_controller,f
  7718     1479  2C78               	goto	u7847
  7719     147A  0BF7               	decfsz	??_init_display_controller+1,f
  7720     147B  2C78               	goto	u7847
  7721     147C  0000               	nop
  7722                           
  7723                           ;clcd.c: 34:     clcd_write(0x33, 0);
  7724     147D  01F2               	clrf	clcd_write@mode
  7725     147E  3033               	movlw	51
  7726     147F  160A  118A  21B5  160A  118A  	fcall	_clcd_write
  7727     1484                     l4350:
  7728                           
  7729                           ;clcd.c: 35:     _delay((unsigned long)((100)*(20000000/4000000.0)));
  7730     1484  30A6               	movlw	166
  7731     1485  00F6               	movwf	??_init_display_controller
  7732     1486                     u7857:
  7733     1486  0BF6               	decfsz	??_init_display_controller,f
  7734     1487  2C86               	goto	u7857
  7735     1488  0000               	nop
  7736     1489                     l4352:
  7737                           
  7738                           ;clcd.c: 36:     clcd_write(0x33, 0);
  7739     1489  01F2               	clrf	clcd_write@mode
  7740     148A  3033               	movlw	51
  7741     148B  160A  118A  21B5  160A  118A  	fcall	_clcd_write
  7742     1490                     l4354:
  7743                           
  7744                           ;clcd.c: 37:     _delay((unsigned long)((1)*(20000000/4000000.0)));
  7745     1490  2C91               	nop2	;2 cycle nop
  7746     1491  2C92               	nop2	;2 cycle nop
  7747     1492  0000               	nop
  7748     1493                     l4356:
  7749                           
  7750                           ;clcd.c: 39:     clcd_write(0x02, 0);
  7751     1493  01F2               	clrf	clcd_write@mode
  7752     1494  3002               	movlw	2
  7753     1495  160A  118A  21B5  160A  118A  	fcall	_clcd_write
  7754     149A                     l4358:
  7755                           
  7756                           ;clcd.c: 40:     _delay((unsigned long)((100)*(20000000/4000000.0)));
  7757     149A  30A6               	movlw	166
  7758     149B  00F6               	movwf	??_init_display_controller
  7759     149C                     u7867:
  7760     149C  0BF6               	decfsz	??_init_display_controller,f
  7761     149D  2C9C               	goto	u7867
  7762     149E  0000               	nop
  7763                           
  7764                           ;clcd.c: 41:     clcd_write(0x28, 0);
  7765     149F  01F2               	clrf	clcd_write@mode
  7766     14A0  3028               	movlw	40
  7767     14A1  160A  118A  21B5  160A  118A  	fcall	_clcd_write
  7768     14A6                     l4360:
  7769                           
  7770                           ;clcd.c: 42:     _delay((unsigned long)((100)*(20000000/4000000.0)));
  7771     14A6  30A6               	movlw	166
  7772     14A7  00F6               	movwf	??_init_display_controller
  7773     14A8                     u7877:
  7774     14A8  0BF6               	decfsz	??_init_display_controller,f
  7775     14A9  2CA8               	goto	u7877
  7776     14AA  0000               	nop
  7777     14AB                     l4362:
  7778                           
  7779                           ;clcd.c: 43:     clcd_write(0x01, 0);
  7780     14AB  01F2               	clrf	clcd_write@mode
  7781     14AC  3001               	movlw	1
  7782     14AD  160A  118A  21B5  160A  118A  	fcall	_clcd_write
  7783                           
  7784                           ;clcd.c: 44:     _delay((unsigned long)((500)*(20000000/4000000.0)));
  7785     14B2  3004               	movlw	4
  7786     14B3  00F7               	movwf	??_init_display_controller+1
  7787     14B4  303D               	movlw	61
  7788     14B5  00F6               	movwf	??_init_display_controller
  7789     14B6                     u7887:
  7790     14B6  0BF6               	decfsz	??_init_display_controller,f
  7791     14B7  2CB6               	goto	u7887
  7792     14B8  0BF7               	decfsz	??_init_display_controller+1,f
  7793     14B9  2CB6               	goto	u7887
  7794     14BA  2CBB               	nop2
  7795     14BB                     l4364:
  7796                           
  7797                           ;clcd.c: 45:     clcd_write(0x0C, 0);
  7798     14BB  01F2               	clrf	clcd_write@mode
  7799     14BC  300C               	movlw	12
  7800     14BD  160A  118A  21B5  160A  118A  	fcall	_clcd_write
  7801     14C2                     l4366:
  7802                           
  7803                           ;clcd.c: 46:     _delay((unsigned long)((100)*(20000000/4000000.0)));
  7804     14C2  30A6               	movlw	166
  7805     14C3  00F6               	movwf	??_init_display_controller
  7806     14C4                     u7897:
  7807     14C4  0BF6               	decfsz	??_init_display_controller,f
  7808     14C5  2CC4               	goto	u7897
  7809     14C6  0000               	nop
  7810     14C7                     l20:
  7811     14C7  0008               	return
  7812     14C8                     __end_of_init_display_controller:
  7813                           
  7814                           	psect	text21
  7815     1CFD                     __ptext21:	
  7816 ;; *************** function _init_adc *****************
  7817 ;; Defined at:
  7818 ;;		line 8 in file "adc.c"
  7819 ;; Parameters:    Size  Location     Type
  7820 ;;		None
  7821 ;; Auto vars:     Size  Location     Type
  7822 ;;		None
  7823 ;; Return value:  Size  Location     Type
  7824 ;;                  1    wreg      void 
  7825 ;; Registers used:
  7826 ;;		None
  7827 ;; Tracked objects:
  7828 ;;		On entry : 0/0
  7829 ;;		On exit  : 0/0
  7830 ;;		Unchanged: 0/0
  7831 ;; Data sizes:     COMMON   BANK0   BANK1   BANK3   BANK2
  7832 ;;      Params:         0       0       0       0       0
  7833 ;;      Locals:         0       0       0       0       0
  7834 ;;      Temps:          0       0       0       0       0
  7835 ;;      Totals:         0       0       0       0       0
  7836 ;;Total ram usage:        0 bytes
  7837 ;; Hardware stack levels used: 1
  7838 ;; Hardware stack levels required when called: 1
  7839 ;; This function calls:
  7840 ;;		Nothing
  7841 ;; This function is called by:
  7842 ;;		_init_config
  7843 ;; This function uses a non-reentrant model
  7844 ;;
  7845                           
  7846     1CFD                     _init_adc:	
  7847                           ;psect for function _init_adc
  7848                           
  7849     1CFD                     l4466:	
  7850                           ;incstack = 0
  7851                           ; Regs used in _init_adc: []
  7852                           
  7853                           
  7854                           ;adc.c: 11:     ADFM = 1;
  7855     1CFD  1683               	bsf	3,5	;RP0=1, select bank1
  7856     1CFE  1303               	bcf	3,6	;RP1=0, select bank1
  7857     1CFF  179F               	bsf	31,7	;volatile
  7858                           
  7859                           ;adc.c: 14:     ADON = 1;
  7860     1D00  1283               	bcf	3,5	;RP0=0, select bank0
  7861     1D01  1303               	bcf	3,6	;RP1=0, select bank0
  7862     1D02  141F               	bsf	31,0	;volatile
  7863     1D03                     l267:
  7864     1D03  0008               	return
  7865     1D04                     __end_of_init_adc:
  7866                           
  7867                           	psect	text22
  7868     16E5                     __ptext22:	
  7869 ;; *************** function _download_log *****************
  7870 ;; Defined at:
  7871 ;;		line 123 in file "car_black_box.c"
  7872 ;; Parameters:    Size  Location     Type
  7873 ;;		None
  7874 ;; Auto vars:     Size  Location     Type
  7875 ;;  download_dat   11    4[BANK0 ] unsigned char [11]
  7876 ;;  z               1   15[BANK0 ] unsigned char 
  7877 ;; Return value:  Size  Location     Type
  7878 ;;                  1    wreg      void 
  7879 ;; Registers used:
  7880 ;;		wreg, fsr0l, fsr0h, status,2, status,0, btemp+1, pclath, cstack
  7881 ;; Tracked objects:
  7882 ;;		On entry : 0/0
  7883 ;;		On exit  : 0/0
  7884 ;;		Unchanged: 0/0
  7885 ;; Data sizes:     COMMON   BANK0   BANK1   BANK3   BANK2
  7886 ;;      Params:         0       0       0       0       0
  7887 ;;      Locals:         0      12       0       0       0
  7888 ;;      Temps:          0       4       0       0       0
  7889 ;;      Totals:         0      16       0       0       0
  7890 ;;Total ram usage:       16 bytes
  7891 ;; Hardware stack levels used: 1
  7892 ;; Hardware stack levels required when called: 5
  7893 ;; This function calls:
  7894 ;;		___bmul
  7895 ;;		___wmul
  7896 ;;		_read_externaleeprom
  7897 ;;		_uart_putchar
  7898 ;;		_uart_puts
  7899 ;; This function is called by:
  7900 ;;		_main
  7901 ;; This function uses a non-reentrant model
  7902 ;;
  7903                           
  7904     16E5                     _download_log:	
  7905                           ;psect for function _download_log
  7906                           
  7907     16E5                     l4958:	
  7908                           ;incstack = 0
  7909                           ; Regs used in _download_log: [wreg-fsr0h+status,2+status,0+btemp+1+pclath+cstack]
  7910                           
  7911                           
  7912                           ;car_black_box.c: 125:     static char index1=0 ,once=0;;car_black_box.c: 126:     unsig
      +                          ned char download_data[11],z;;car_black_box.c: 127:     if(index1==0 && pos !=-1)
  7913     16E5  1283               	bcf	3,5	;RP0=0, select bank0
  7914     16E6  1303               	bcf	3,6	;RP1=0, select bank0
  7915     16E7  0855               	movf	download_log@index1,w
  7916     16E8  1D03               	btfss	3,2
  7917     16E9  2EEB               	goto	u5871
  7918     16EA  2EEC               	goto	u5870
  7919     16EB                     u5871:
  7920     16EB  2F00               	goto	l4966
  7921     16EC                     u5870:
  7922     16EC                     l4960:
  7923     16EC  0A58               	incf	_pos,w
  7924     16ED  1D03               	skipz
  7925     16EE  2EF4               	goto	u5880
  7926     16EF  0A59               	incf	_pos+1,w
  7927     16F0  1903               	btfsc	3,2
  7928     16F1  2EF3               	goto	u5881
  7929     16F2  2EF4               	goto	u5880
  7930     16F3                     u5881:
  7931     16F3  2F00               	goto	l4966
  7932     16F4                     u5880:
  7933     16F4                     l4962:
  7934                           
  7935                           ;car_black_box.c: 128:     {;car_black_box.c: 129:         uart_puts("Logs : \n");
  7936     16F4  3016               	movlw	low (STR_21| (0+32768))
  7937     16F5  00F3               	movwf	uart_puts@s
  7938     16F6  3091               	movlw	high (STR_21| (0+32768))
  7939     16F7  00F4               	movwf	uart_puts@s+1
  7940     16F8  160A  158A  266F  160A  118A  	fcall	_uart_puts
  7941     16FD                     l4964:
  7942                           
  7943                           ;car_black_box.c: 130:         once=0;
  7944     16FD  1683               	bsf	3,5	;RP0=1, select bank1
  7945     16FE  1303               	bcf	3,6	;RP1=0, select bank1
  7946     16FF  01B5               	clrf	download_log@once^(0+128)
  7947     1700                     l4966:
  7948                           
  7949                           ;car_black_box.c: 132:     if(pos==-1 && once==0)
  7950     1700  1283               	bcf	3,5	;RP0=0, select bank0
  7951     1701  0A58               	incf	_pos,w
  7952     1702  1D03               	skipz
  7953     1703  2F08               	goto	u5891
  7954     1704  0A59               	incf	_pos+1,w
  7955     1705  1D03               	btfss	3,2
  7956     1706  2F08               	goto	u5891
  7957     1707  2F09               	goto	u5890
  7958     1708                     u5891:
  7959     1708  2FF1               	goto	l4986
  7960     1709                     u5890:
  7961     1709                     l4968:
  7962     1709  1683               	bsf	3,5	;RP0=1, select bank1
  7963     170A  1303               	bcf	3,6	;RP1=0, select bank1
  7964     170B  0835               	movf	download_log@once^(0+128),w
  7965     170C  1D03               	btfss	3,2
  7966     170D  2F0F               	goto	u5901
  7967     170E  2F10               	goto	u5900
  7968     170F                     u5901:
  7969     170F  2FF1               	goto	l4986
  7970     1710                     u5900:
  7971     1710                     l4970:
  7972                           
  7973                           ;car_black_box.c: 133:     {;car_black_box.c: 134:         uart_puts("No Logs.");
  7974     1710  301F               	movlw	low (STR_22| (0+32768))
  7975     1711  00F3               	movwf	uart_puts@s
  7976     1712  3091               	movlw	high (STR_22| (0+32768))
  7977     1713  00F4               	movwf	uart_puts@s+1
  7978     1714  160A  158A  266F  160A  118A  	fcall	_uart_puts
  7979     1719                     l4972:
  7980                           
  7981                           ;car_black_box.c: 135:         once=1;
  7982     1719  3001               	movlw	1
  7983     171A  1683               	bsf	3,5	;RP0=1, select bank1
  7984     171B  1303               	bcf	3,6	;RP1=0, select bank1
  7985     171C  00B5               	movwf	download_log@once^(0+128)
  7986     171D  2FF1               	goto	l4986
  7987     171E                     l4974:
  7988                           
  7989                           ;car_black_box.c: 138:     {;car_black_box.c: 139:         for(z=5+(10*index1);z<16+(10*
      +                          index1);z++)
  7990     171E  300A               	movlw	10
  7991     171F  00F2               	movwf	___bmul@multiplicand
  7992     1720  1283               	bcf	3,5	;RP0=0, select bank0
  7993     1721  1303               	bcf	3,6	;RP1=0, select bank0
  7994     1722  0855               	movf	download_log@index1,w
  7995     1723  160A  158A  25BD  160A  118A  	fcall	___bmul
  7996     1728  3E05               	addlw	5
  7997     1729  1283               	bcf	3,5	;RP0=0, select bank0
  7998     172A  1303               	bcf	3,6	;RP1=0, select bank0
  7999     172B  00AF               	movwf	download_log@z
  8000     172C  2F4B               	goto	l4980
  8001     172D                     l4976:
  8002                           
  8003                           ;car_black_box.c: 140:         {;car_black_box.c: 141:             download_data[z-(5+(1
      +                          0*index1))]=read_externaleeprom(z);
  8004     172D  30F6               	movlw	246
  8005     172E  00F2               	movwf	___bmul@multiplicand
  8006     172F  1283               	bcf	3,5	;RP0=0, select bank0
  8007     1730  1303               	bcf	3,6	;RP1=0, select bank0
  8008     1731  0855               	movf	download_log@index1,w
  8009     1732  160A  158A  25BD  160A  118A  	fcall	___bmul
  8010     1737  3E24               	addlw	(low (download_log@download_data| 0))& (0+255)
  8011     1738  1283               	bcf	3,5	;RP0=0, select bank0
  8012     1739  1303               	bcf	3,6	;RP1=0, select bank0
  8013     173A  072F               	addwf	download_log@z,w
  8014     173B  00A0               	movwf	??_download_log
  8015     173C  0820               	movf	??_download_log,w
  8016     173D  3EFB               	addlw	-5
  8017     173E  0084               	movwf	4
  8018     173F  082F               	movf	download_log@z,w
  8019     1740  160A  158A  2711  160A  118A  	fcall	_read_externaleeprom
  8020     1745  1383               	bcf	3,7	;select IRP bank0
  8021     1746  0080               	movwf	0
  8022     1747                     l4978:
  8023                           
  8024                           ;car_black_box.c: 142:         }
  8025     1747  3001               	movlw	1
  8026     1748  1283               	bcf	3,5	;RP0=0, select bank0
  8027     1749  1303               	bcf	3,6	;RP1=0, select bank0
  8028     174A  07AF               	addwf	download_log@z,f
  8029     174B                     l4980:
  8030     174B  0855               	movf	download_log@index1,w
  8031     174C  00A0               	movwf	??_download_log
  8032     174D  01A1               	clrf	??_download_log+1
  8033     174E  0820               	movf	??_download_log,w
  8034     174F  00F2               	movwf	___wmul@multiplier
  8035     1750  0821               	movf	??_download_log+1,w
  8036     1751  00F3               	movwf	___wmul@multiplier+1
  8037     1752  300A               	movlw	10
  8038     1753  00F4               	movwf	___wmul@multiplicand
  8039     1754  3000               	movlw	0
  8040     1755  00F5               	movwf	___wmul@multiplicand+1
  8041     1756  160A  158A  264A  160A  118A  	fcall	___wmul
  8042     175B  0872               	movf	?___wmul,w
  8043     175C  3E10               	addlw	16
  8044     175D  1283               	bcf	3,5	;RP0=0, select bank0
  8045     175E  1303               	bcf	3,6	;RP1=0, select bank0
  8046     175F  00A2               	movwf	??_download_log+2
  8047     1760  0873               	movf	?___wmul+1,w
  8048     1761  1803               	skipnc
  8049     1762  3E01               	addlw	1
  8050     1763  3E00               	addlw	0
  8051     1764  00A3               	movwf	??_download_log+3
  8052     1765  0823               	movf	??_download_log+3,w
  8053     1766  3A80               	xorlw	128
  8054     1767  3C80               	sublw	128
  8055     1768  1D03               	skipz
  8056     1769  2F6C               	goto	u5915
  8057     176A  0822               	movf	??_download_log+2,w
  8058     176B  022F               	subwf	download_log@z,w
  8059     176C                     u5915:
  8060     176C  1C03               	skipc
  8061     176D  2F6F               	goto	u5911
  8062     176E  2F70               	goto	u5910
  8063     176F                     u5911:
  8064     176F  2F2D               	goto	l4976
  8065     1770                     u5910:
  8066     1770                     l4982:
  8067                           
  8068                           ;car_black_box.c: 143:         uart_putchar(index1+'0');
  8069     1770  1283               	bcf	3,5	;RP0=0, select bank0
  8070     1771  1303               	bcf	3,6	;RP1=0, select bank0
  8071     1772  0855               	movf	download_log@index1,w
  8072     1773  3E30               	addlw	48
  8073     1774  160A  158A  252B  160A  118A  	fcall	_uart_putchar
  8074                           
  8075                           ;car_black_box.c: 144:         uart_putchar (' ');
  8076     1779  3020               	movlw	32
  8077     177A  160A  158A  252B  160A  118A  	fcall	_uart_putchar
  8078                           
  8079                           ;car_black_box.c: 145:         uart_putchar (download_data[0]);
  8080     177F  1283               	bcf	3,5	;RP0=0, select bank0
  8081     1780  1303               	bcf	3,6	;RP1=0, select bank0
  8082     1781  0824               	movf	download_log@download_data,w
  8083     1782  160A  158A  252B  160A  118A  	fcall	_uart_putchar
  8084                           
  8085                           ;car_black_box.c: 146:         uart_putchar (download_data[1]);
  8086     1787  1283               	bcf	3,5	;RP0=0, select bank0
  8087     1788  1303               	bcf	3,6	;RP1=0, select bank0
  8088     1789  0825               	movf	download_log@download_data+1,w
  8089     178A  160A  158A  252B  160A  118A  	fcall	_uart_putchar
  8090                           
  8091                           ;car_black_box.c: 147:         uart_putchar (':');
  8092     178F  303A               	movlw	58
  8093     1790  160A  158A  252B  160A  118A  	fcall	_uart_putchar
  8094                           
  8095                           ;car_black_box.c: 148:         uart_putchar (download_data[2]);
  8096     1795  1283               	bcf	3,5	;RP0=0, select bank0
  8097     1796  1303               	bcf	3,6	;RP1=0, select bank0
  8098     1797  0826               	movf	download_log@download_data+2,w
  8099     1798  160A  158A  252B  160A  118A  	fcall	_uart_putchar
  8100                           
  8101                           ;car_black_box.c: 149:         uart_putchar (download_data[3]);
  8102     179D  1283               	bcf	3,5	;RP0=0, select bank0
  8103     179E  1303               	bcf	3,6	;RP1=0, select bank0
  8104     179F  0827               	movf	download_log@download_data+3,w
  8105     17A0  160A  158A  252B  160A  118A  	fcall	_uart_putchar
  8106                           
  8107                           ;car_black_box.c: 150:         uart_putchar (':');
  8108     17A5  303A               	movlw	58
  8109     17A6  160A  158A  252B  160A  118A  	fcall	_uart_putchar
  8110                           
  8111                           ;car_black_box.c: 151:         uart_putchar (download_data[4]);
  8112     17AB  1283               	bcf	3,5	;RP0=0, select bank0
  8113     17AC  1303               	bcf	3,6	;RP1=0, select bank0
  8114     17AD  0828               	movf	download_log@download_data+4,w
  8115     17AE  160A  158A  252B  160A  118A  	fcall	_uart_putchar
  8116                           
  8117                           ;car_black_box.c: 152:         uart_putchar (download_data[5]);
  8118     17B3  1283               	bcf	3,5	;RP0=0, select bank0
  8119     17B4  1303               	bcf	3,6	;RP1=0, select bank0
  8120     17B5  0829               	movf	download_log@download_data+5,w
  8121     17B6  160A  158A  252B  160A  118A  	fcall	_uart_putchar
  8122                           
  8123                           ;car_black_box.c: 153:         uart_putchar (' ');
  8124     17BB  3020               	movlw	32
  8125     17BC  160A  158A  252B  160A  118A  	fcall	_uart_putchar
  8126                           
  8127                           ;car_black_box.c: 154:         uart_putchar (download_data[6]);
  8128     17C1  1283               	bcf	3,5	;RP0=0, select bank0
  8129     17C2  1303               	bcf	3,6	;RP1=0, select bank0
  8130     17C3  082A               	movf	download_log@download_data+6,w
  8131     17C4  160A  158A  252B  160A  118A  	fcall	_uart_putchar
  8132                           
  8133                           ;car_black_box.c: 155:         uart_putchar (download_data[7]);
  8134     17C9  1283               	bcf	3,5	;RP0=0, select bank0
  8135     17CA  1303               	bcf	3,6	;RP1=0, select bank0
  8136     17CB  082B               	movf	download_log@download_data+7,w
  8137     17CC  160A  158A  252B  160A  118A  	fcall	_uart_putchar
  8138                           
  8139                           ;car_black_box.c: 156:         uart_putchar (' ');
  8140     17D1  3020               	movlw	32
  8141     17D2  160A  158A  252B  160A  118A  	fcall	_uart_putchar
  8142                           
  8143                           ;car_black_box.c: 157:         uart_putchar (download_data[8]);
  8144     17D7  1283               	bcf	3,5	;RP0=0, select bank0
  8145     17D8  1303               	bcf	3,6	;RP1=0, select bank0
  8146     17D9  082C               	movf	download_log@download_data+8,w
  8147     17DA  160A  158A  252B  160A  118A  	fcall	_uart_putchar
  8148                           
  8149                           ;car_black_box.c: 158:         uart_putchar (download_data[9]);
  8150     17DF  1283               	bcf	3,5	;RP0=0, select bank0
  8151     17E0  1303               	bcf	3,6	;RP1=0, select bank0
  8152     17E1  082D               	movf	download_log@download_data+9,w
  8153     17E2  160A  158A  252B  160A  118A  	fcall	_uart_putchar
  8154                           
  8155                           ;car_black_box.c: 159:         uart_putchar('\n');
  8156     17E7  300A               	movlw	10
  8157     17E8  160A  158A  252B  160A  118A  	fcall	_uart_putchar
  8158     17ED                     l4984:
  8159                           
  8160                           ;car_black_box.c: 160:         index1++;
  8161     17ED  3001               	movlw	1
  8162     17EE  1283               	bcf	3,5	;RP0=0, select bank0
  8163     17EF  1303               	bcf	3,6	;RP1=0, select bank0
  8164     17F0  07D5               	addwf	download_log@index1,f
  8165     17F1                     l4986:
  8166                           
  8167                           ;car_black_box.c: 137:     while(index1 <= pos)
  8168     17F1  1283               	bcf	3,5	;RP0=0, select bank0
  8169     17F2  0859               	movf	_pos+1,w
  8170     17F3  3A80               	xorlw	128
  8171     17F4  00A0               	movwf	??_download_log
  8172     17F5  3080               	movlw	128
  8173     17F6  0220               	subwf	??_download_log,w
  8174     17F7  1D03               	skipz
  8175     17F8  2FFB               	goto	u5925
  8176     17F9  0855               	movf	download_log@index1,w
  8177     17FA  0258               	subwf	_pos,w
  8178     17FB                     u5925:
  8179     17FB  1803               	skipnc
  8180     17FC  2FFE               	goto	u5921
  8181     17FD  2FFF               	goto	u5920
  8182     17FE                     u5921:
  8183     17FE  2F1E               	goto	l4974
  8184     17FF                     u5920:
  8185     17FF                     l361:
  8186     17FF  0008               	return
  8187     1800                     __end_of_download_log:
  8188                           
  8189                           	psect	text23
  8190     1E6F                     __ptext23:	
  8191 ;; *************** function _uart_puts *****************
  8192 ;; Defined at:
  8193 ;;		line 51 in file "uart.c"
  8194 ;; Parameters:    Size  Location     Type
  8195 ;;  s               2    3[COMMON] PTR const unsigned char 
  8196 ;;		 -> STR_22(9), STR_21(9), 
  8197 ;; Auto vars:     Size  Location     Type
  8198 ;;		None
  8199 ;; Return value:  Size  Location     Type
  8200 ;;                  1    wreg      void 
  8201 ;; Registers used:
  8202 ;;		wreg, fsr0l, fsr0h, status,2, status,0, btemp+1, pclath, cstack
  8203 ;; Tracked objects:
  8204 ;;		On entry : 0/0
  8205 ;;		On exit  : 0/0
  8206 ;;		Unchanged: 0/0
  8207 ;; Data sizes:     COMMON   BANK0   BANK1   BANK3   BANK2
  8208 ;;      Params:         2       0       0       0       0
  8209 ;;      Locals:         0       0       0       0       0
  8210 ;;      Temps:          0       0       0       0       0
  8211 ;;      Totals:         2       0       0       0       0
  8212 ;;Total ram usage:        2 bytes
  8213 ;; Hardware stack levels used: 1
  8214 ;; Hardware stack levels required when called: 2
  8215 ;; This function calls:
  8216 ;;		_uart_putchar
  8217 ;; This function is called by:
  8218 ;;		_download_log
  8219 ;; This function uses a non-reentrant model
  8220 ;;
  8221                           
  8222     1E6F                     _uart_puts:	
  8223                           ;psect for function _uart_puts
  8224                           
  8225     1E6F                     l4482:	
  8226                           ;incstack = 0
  8227                           ; Regs used in _uart_puts: [wreg-fsr0h+status,2+status,0+btemp+1+pclath+cstack]
  8228                           
  8229                           
  8230                           ;uart.c: 51: void uart_puts(const char *s);uart.c: 52: {;uart.c: 53:     while (*s)
  8231     1E6F  2E84               	goto	l4488
  8232     1E70                     l4484:
  8233                           
  8234                           ;uart.c: 54:     {;uart.c: 55:         uart_putchar(*s++);
  8235     1E70  0874               	movf	uart_puts@s+1,w
  8236     1E71  00FF               	movwf	btemp+1
  8237     1E72  0873               	movf	uart_puts@s,w
  8238     1E73  0084               	movwf	4
  8239     1E74  160A  158A  2000  160A  158A  	fcall	stringtab
  8240     1E79  160A  158A  252B  160A  158A  	fcall	_uart_putchar
  8241     1E7E                     l4486:
  8242     1E7E  3001               	movlw	1
  8243     1E7F  07F3               	addwf	uart_puts@s,f
  8244     1E80  1803               	skipnc
  8245     1E81  0AF4               	incf	uart_puts@s+1,f
  8246     1E82  3000               	movlw	0
  8247     1E83  07F4               	addwf	uart_puts@s+1,f
  8248     1E84                     l4488:
  8249                           
  8250                           ;uart.c: 53:     while (*s)
  8251     1E84  0874               	movf	uart_puts@s+1,w
  8252     1E85  1283               	bcf	3,5	;RP0=0, select bank0
  8253     1E86  1303               	bcf	3,6	;RP1=0, select bank0
  8254     1E87  00FF               	movwf	btemp+1
  8255     1E88  0873               	movf	uart_puts@s,w
  8256     1E89  0084               	movwf	4
  8257     1E8A  160A  158A  2000  160A  158A  	fcall	stringtab
  8258     1E8F  3A00               	xorlw	0
  8259     1E90  1D03               	skipz
  8260     1E91  2E93               	goto	u5151
  8261     1E92  2E94               	goto	u5150
  8262     1E93                     u5151:
  8263     1E93  2E70               	goto	l4484
  8264     1E94                     u5150:
  8265     1E94                     l587:
  8266     1E94  0008               	return
  8267     1E95                     __end_of_uart_puts:
  8268                           
  8269                           	psect	text24
  8270     1D2B                     __ptext24:	
  8271 ;; *************** function _uart_putchar *****************
  8272 ;; Defined at:
  8273 ;;		line 36 in file "uart.c"
  8274 ;; Parameters:    Size  Location     Type
  8275 ;;  data            1    wreg     unsigned char 
  8276 ;; Auto vars:     Size  Location     Type
  8277 ;;  data            1    2[COMMON] unsigned char 
  8278 ;; Return value:  Size  Location     Type
  8279 ;;                  1    wreg      void 
  8280 ;; Registers used:
  8281 ;;		wreg
  8282 ;; Tracked objects:
  8283 ;;		On entry : 0/0
  8284 ;;		On exit  : 0/0
  8285 ;;		Unchanged: 0/0
  8286 ;; Data sizes:     COMMON   BANK0   BANK1   BANK3   BANK2
  8287 ;;      Params:         0       0       0       0       0
  8288 ;;      Locals:         1       0       0       0       0
  8289 ;;      Temps:          0       0       0       0       0
  8290 ;;      Totals:         1       0       0       0       0
  8291 ;;Total ram usage:        1 bytes
  8292 ;; Hardware stack levels used: 1
  8293 ;; Hardware stack levels required when called: 1
  8294 ;; This function calls:
  8295 ;;		Nothing
  8296 ;; This function is called by:
  8297 ;;		_download_log
  8298 ;;		_uart_puts
  8299 ;; This function uses a non-reentrant model
  8300 ;;
  8301                           
  8302     1D2B                     _uart_putchar:	
  8303                           ;psect for function _uart_putchar
  8304                           
  8305                           
  8306                           ;incstack = 0
  8307                           ; Regs used in _uart_putchar: [wreg]
  8308                           ;uart_putchar@data stored from wreg
  8309     1D2B  00F2               	movwf	uart_putchar@data
  8310     1D2C                     l4398:
  8311                           
  8312                           ;uart.c: 36: void uart_putchar(unsigned char data);uart.c: 37: {;uart.c: 39:     TXREG =
      +                           data;
  8313     1D2C  0872               	movf	uart_putchar@data,w
  8314     1D2D  1283               	bcf	3,5	;RP0=0, select bank0
  8315     1D2E  1303               	bcf	3,6	;RP1=0, select bank0
  8316     1D2F  0099               	movwf	25	;volatile
  8317     1D30                     l579:	
  8318                           ;uart.c: 45:     } while (TXIF != 1);
  8319                           
  8320     1D30  1E0C               	btfss	12,4	;volatile
  8321     1D31  2D33               	goto	u5021
  8322     1D32  2D34               	goto	u5020
  8323     1D33                     u5021:
  8324     1D33  2D30               	goto	l579
  8325     1D34                     u5020:
  8326     1D34                     l580:
  8327                           
  8328                           ;uart.c: 48:     TXIF = 0;
  8329     1D34  120C               	bcf	12,4	;volatile
  8330     1D35                     l581:
  8331     1D35  0008               	return
  8332     1D36                     __end_of_uart_putchar:
  8333                           
  8334                           	psect	text25
  8335     1F11                     __ptext25:	
  8336 ;; *************** function _read_externaleeprom *****************
  8337 ;; Defined at:
  8338 ;;		line 11 in file "ExternalEEPROM.c"
  8339 ;; Parameters:    Size  Location     Type
  8340 ;;  addr            1    wreg     unsigned char 
  8341 ;; Auto vars:     Size  Location     Type
  8342 ;;  addr            1    4[COMMON] unsigned char 
  8343 ;;  data            1    5[COMMON] unsigned char 
  8344 ;; Return value:  Size  Location     Type
  8345 ;;                  1    wreg      unsigned char 
  8346 ;; Registers used:
  8347 ;;		wreg, status,2, status,0, pclath, cstack
  8348 ;; Tracked objects:
  8349 ;;		On entry : 0/0
  8350 ;;		On exit  : 0/0
  8351 ;;		Unchanged: 0/0
  8352 ;; Data sizes:     COMMON   BANK0   BANK1   BANK3   BANK2
  8353 ;;      Params:         0       0       0       0       0
  8354 ;;      Locals:         2       0       0       0       0
  8355 ;;      Temps:          0       0       0       0       0
  8356 ;;      Totals:         2       0       0       0       0
  8357 ;;Total ram usage:        2 bytes
  8358 ;; Hardware stack levels used: 1
  8359 ;; Hardware stack levels required when called: 4
  8360 ;; This function calls:
  8361 ;;		_i2c_read
  8362 ;;		_i2c_rep_start
  8363 ;;		_i2c_start
  8364 ;;		_i2c_stop
  8365 ;;		_i2c_write
  8366 ;; This function is called by:
  8367 ;;		_download_log
  8368 ;;		_view_log
  8369 ;;		_login_screen
  8370 ;; This function uses a non-reentrant model
  8371 ;;
  8372                           
  8373     1F11                     _read_externaleeprom:	
  8374                           ;psect for function _read_externaleeprom
  8375                           
  8376                           
  8377                           ;incstack = 0
  8378                           ; Regs used in _read_externaleeprom: [wreg+status,2+status,0+pclath+cstack]
  8379                           ;read_externaleeprom@addr stored from wreg
  8380     1F11  00F4               	movwf	read_externaleeprom@addr
  8381     1F12                     l4490:
  8382                           
  8383                           ;ExternalEEPROM.c: 11: unsigned char read_externaleeprom(unsigned char addr);ExternalEEP
      +                          ROM.c: 12: {;ExternalEEPROM.c: 13:     unsigned char data;;ExternalEEPROM.c: 15:     i2c
      +                          _start();
  8384     1F12  160A  158A  250C  160A  158A  	fcall	_i2c_start
  8385                           
  8386                           ;ExternalEEPROM.c: 16:     i2c_write(0b10100000);
  8387     1F17  30A0               	movlw	160
  8388     1F18  160A  158A  2515  160A  158A  	fcall	_i2c_write
  8389                           
  8390                           ;ExternalEEPROM.c: 17:     i2c_write(addr);
  8391     1F1D  0874               	movf	read_externaleeprom@addr,w
  8392     1F1E  160A  158A  2515  160A  158A  	fcall	_i2c_write
  8393                           
  8394                           ;ExternalEEPROM.c: 18:     i2c_rep_start();
  8395     1F23  160A  158A  2520  160A  158A  	fcall	_i2c_rep_start
  8396                           
  8397                           ;ExternalEEPROM.c: 19:     i2c_write(0b10100001);
  8398     1F28  30A1               	movlw	161
  8399     1F29  160A  158A  2515  160A  158A  	fcall	_i2c_write
  8400                           
  8401                           ;ExternalEEPROM.c: 20:     data = i2c_read(0);
  8402     1F2E  3000               	movlw	0
  8403     1F2F  160A  158A  2629  160A  158A  	fcall	_i2c_read
  8404     1F34  00F5               	movwf	read_externaleeprom@data
  8405                           
  8406                           ;ExternalEEPROM.c: 21:     i2c_stop();
  8407     1F35  120A  118A  27F7  160A  158A  	fcall	_i2c_stop
  8408     1F3A                     l4492:
  8409                           
  8410                           ;ExternalEEPROM.c: 23:     return data;
  8411     1F3A  0875               	movf	read_externaleeprom@data,w
  8412     1F3B                     l512:
  8413     1F3B  0008               	return
  8414     1F3C                     __end_of_read_externaleeprom:
  8415                           
  8416                           	psect	text26
  8417     1E4A                     __ptext26:	
  8418 ;; *************** function ___wmul *****************
  8419 ;; Defined at:
  8420 ;;		line 15 in file "C:\Program Files\Microchip\xc8\v2.50\pic\sources\c99\common\Umul16.c"
  8421 ;; Parameters:    Size  Location     Type
  8422 ;;  multiplier      2    2[COMMON] unsigned int 
  8423 ;;  multiplicand    2    4[COMMON] unsigned int 
  8424 ;; Auto vars:     Size  Location     Type
  8425 ;;  product         2    6[COMMON] unsigned int 
  8426 ;; Return value:  Size  Location     Type
  8427 ;;                  2    2[COMMON] unsigned int 
  8428 ;; Registers used:
  8429 ;;		wreg, status,2, status,0
  8430 ;; Tracked objects:
  8431 ;;		On entry : 0/0
  8432 ;;		On exit  : 0/0
  8433 ;;		Unchanged: 0/0
  8434 ;; Data sizes:     COMMON   BANK0   BANK1   BANK3   BANK2
  8435 ;;      Params:         4       0       0       0       0
  8436 ;;      Locals:         2       0       0       0       0
  8437 ;;      Temps:          0       0       0       0       0
  8438 ;;      Totals:         6       0       0       0       0
  8439 ;;Total ram usage:        6 bytes
  8440 ;; Hardware stack levels used: 1
  8441 ;; Hardware stack levels required when called: 1
  8442 ;; This function calls:
  8443 ;;		Nothing
  8444 ;; This function is called by:
  8445 ;;		_download_log
  8446 ;;		_view_log
  8447 ;; This function uses a non-reentrant model
  8448 ;;
  8449                           
  8450     1E4A                     ___wmul:	
  8451                           ;psect for function ___wmul
  8452                           
  8453     1E4A                     l4546:	
  8454                           ;incstack = 0
  8455                           ; Regs used in ___wmul: [wreg+status,2+status,0]
  8456                           
  8457     1E4A  01F6               	clrf	___wmul@product
  8458     1E4B  01F7               	clrf	___wmul@product+1
  8459     1E4C                     l4548:
  8460     1E4C  1C72               	btfss	___wmul@multiplier,0
  8461     1E4D  2E4F               	goto	u5251
  8462     1E4E  2E50               	goto	u5250
  8463     1E4F                     u5251:
  8464     1E4F  2E56               	goto	l673
  8465     1E50                     u5250:
  8466     1E50                     l4550:
  8467     1E50  0874               	movf	___wmul@multiplicand,w
  8468     1E51  07F6               	addwf	___wmul@product,f
  8469     1E52  1803               	skipnc
  8470     1E53  0AF7               	incf	___wmul@product+1,f
  8471     1E54  0875               	movf	___wmul@multiplicand+1,w
  8472     1E55  07F7               	addwf	___wmul@product+1,f
  8473     1E56                     l673:
  8474     1E56  3001               	movlw	1
  8475     1E57                     u5265:
  8476     1E57  1003               	clrc
  8477     1E58  0DF4               	rlf	___wmul@multiplicand,f
  8478     1E59  0DF5               	rlf	___wmul@multiplicand+1,f
  8479     1E5A  3EFF               	addlw	-1
  8480     1E5B  1D03               	skipz
  8481     1E5C  2E57               	goto	u5265
  8482     1E5D                     l4552:
  8483     1E5D  3001               	movlw	1
  8484     1E5E                     u5275:
  8485     1E5E  1003               	clrc
  8486     1E5F  0CF3               	rrf	___wmul@multiplier+1,f
  8487     1E60  0CF2               	rrf	___wmul@multiplier,f
  8488     1E61  3EFF               	addlw	-1
  8489     1E62  1D03               	skipz
  8490     1E63  2E5E               	goto	u5275
  8491     1E64                     l4554:
  8492     1E64  0872               	movf	___wmul@multiplier,w
  8493     1E65  0473               	iorwf	___wmul@multiplier+1,w
  8494     1E66  1D03               	btfss	3,2
  8495     1E67  2E69               	goto	u5281
  8496     1E68  2E6A               	goto	u5280
  8497     1E69                     u5281:
  8498     1E69  2E4C               	goto	l4548
  8499     1E6A                     u5280:
  8500     1E6A                     l4556:
  8501     1E6A  0877               	movf	___wmul@product+1,w
  8502     1E6B  00F3               	movwf	?___wmul+1
  8503     1E6C  0876               	movf	___wmul@product,w
  8504     1E6D  00F2               	movwf	?___wmul
  8505     1E6E                     l675:
  8506     1E6E  0008               	return
  8507     1E6F                     __end_of___wmul:
  8508                           
  8509                           	psect	text27
  8510     1DBD                     __ptext27:	
  8511 ;; *************** function ___bmul *****************
  8512 ;; Defined at:
  8513 ;;		line 4 in file "C:\Program Files\Microchip\xc8\v2.50\pic\sources\c99\common\Umul8.c"
  8514 ;; Parameters:    Size  Location     Type
  8515 ;;  multiplier      1    wreg     unsigned char 
  8516 ;;  multiplicand    1    2[COMMON] unsigned char 
  8517 ;; Auto vars:     Size  Location     Type
  8518 ;;  multiplier      1    4[COMMON] unsigned char 
  8519 ;;  product         1    3[COMMON] unsigned char 
  8520 ;; Return value:  Size  Location     Type
  8521 ;;                  1    wreg      unsigned char 
  8522 ;; Registers used:
  8523 ;;		wreg, status,2, status,0
  8524 ;; Tracked objects:
  8525 ;;		On entry : 0/0
  8526 ;;		On exit  : 0/0
  8527 ;;		Unchanged: 0/0
  8528 ;; Data sizes:     COMMON   BANK0   BANK1   BANK3   BANK2
  8529 ;;      Params:         1       0       0       0       0
  8530 ;;      Locals:         2       0       0       0       0
  8531 ;;      Temps:          0       0       0       0       0
  8532 ;;      Totals:         3       0       0       0       0
  8533 ;;Total ram usage:        3 bytes
  8534 ;; Hardware stack levels used: 1
  8535 ;; Hardware stack levels required when called: 1
  8536 ;; This function calls:
  8537 ;;		Nothing
  8538 ;; This function is called by:
  8539 ;;		_download_log
  8540 ;;		_view_log
  8541 ;;		_log_event_eeprom
  8542 ;; This function uses a non-reentrant model
  8543 ;;
  8544                           
  8545     1DBD                     ___bmul:	
  8546                           ;psect for function ___bmul
  8547                           
  8548                           
  8549                           ;incstack = 0
  8550                           ; Regs used in ___bmul: [wreg+status,2+status,0]
  8551                           ;___bmul@multiplier stored from wreg
  8552     1DBD  00F4               	movwf	___bmul@multiplier
  8553     1DBE                     l4400:
  8554     1DBE  01F3               	clrf	___bmul@product
  8555     1DBF                     l4402:
  8556     1DBF  1C74               	btfss	___bmul@multiplier,0
  8557     1DC0  2DC2               	goto	u5031
  8558     1DC1  2DC3               	goto	u5030
  8559     1DC2                     u5031:
  8560     1DC2  2DC5               	goto	l4406
  8561     1DC3                     u5030:
  8562     1DC3                     l4404:
  8563     1DC3  0872               	movf	___bmul@multiplicand,w
  8564     1DC4  07F3               	addwf	___bmul@product,f
  8565     1DC5                     l4406:
  8566     1DC5  1003               	clrc
  8567     1DC6  0DF2               	rlf	___bmul@multiplicand,f
  8568     1DC7                     l4408:
  8569     1DC7  1003               	clrc
  8570     1DC8  0CF4               	rrf	___bmul@multiplier,f
  8571     1DC9  0874               	movf	___bmul@multiplier,w
  8572     1DCA  1D03               	btfss	3,2
  8573     1DCB  2DCD               	goto	u5041
  8574     1DCC  2DCE               	goto	u5040
  8575     1DCD                     u5041:
  8576     1DCD  2DBF               	goto	l4402
  8577     1DCE                     u5040:
  8578     1DCE                     l4410:
  8579     1DCE  0873               	movf	___bmul@product,w
  8580     1DCF                     l699:
  8581     1DCF  0008               	return
  8582     1DD0                     __end_of___bmul:
  8583                           
  8584                           	psect	text28
  8585     12FE                     __ptext28:	
  8586 ;; *************** function _display_dashboard *****************
  8587 ;; Defined at:
  8588 ;;		line 62 in file "car_black_box.c"
  8589 ;; Parameters:    Size  Location     Type
  8590 ;;  event           1    5[BANK0 ] PTR unsigned char 
  8591 ;;		 -> main@event(3), 
  8592 ;;  speed           1    6[BANK0 ] unsigned char 
  8593 ;; Auto vars:     Size  Location     Type
  8594 ;;		None
  8595 ;; Return value:  Size  Location     Type
  8596 ;;                  1    wreg      void 
  8597 ;; Registers used:
  8598 ;;		wreg, fsr0l, fsr0h, status,2, status,0, btemp+1, pclath, cstack
  8599 ;; Tracked objects:
  8600 ;;		On entry : 0/0
  8601 ;;		On exit  : 0/0
  8602 ;;		Unchanged: 0/0
  8603 ;; Data sizes:     COMMON   BANK0   BANK1   BANK3   BANK2
  8604 ;;      Params:         0       2       0       0       0
  8605 ;;      Locals:         0       0       0       0       0
  8606 ;;      Temps:          0       2       0       0       0
  8607 ;;      Totals:         0       4       0       0       0
  8608 ;;Total ram usage:        4 bytes
  8609 ;; Hardware stack levels used: 1
  8610 ;; Hardware stack levels required when called: 7
  8611 ;; This function calls:
  8612 ;;		___awdiv
  8613 ;;		___awmod
  8614 ;;		_clcd_print
  8615 ;;		_clcd_putch
  8616 ;;		_display_time
  8617 ;; This function is called by:
  8618 ;;		_main
  8619 ;; This function uses a non-reentrant model
  8620 ;;
  8621                           
  8622     12FE                     _display_dashboard:	
  8623                           ;psect for function _display_dashboard
  8624                           
  8625     12FE                     l4702:	
  8626                           ;incstack = 0
  8627                           ; Regs used in _display_dashboard: [wreg-fsr0h+status,2+status,0+btemp+1+pclath+cstack]
  8628                           
  8629                           
  8630                           ;car_black_box.c: 62: void display_dashboard(unsigned char event[],unsigned char speed);
      +                          car_black_box.c: 63: {;car_black_box.c: 64:     clcd_print("TIME     E  SP",(0x80 + 2));
  8631     12FE  3014               	movlw	low ((STR_31+2)| (0+32768))
  8632     12FF  00F6               	movwf	clcd_print@str
  8633     1300  3090               	movlw	high ((STR_31+2)| (0+32768))
  8634     1301  00F7               	movwf	clcd_print@str+1
  8635     1302  3082               	movlw	130
  8636     1303  00F8               	movwf	clcd_print@addr
  8637     1304  160A  158A  273C  160A  118A  	fcall	_clcd_print
  8638     1309                     l4704:
  8639                           
  8640                           ;car_black_box.c: 65:     display_time();
  8641     1309  160A  118A  2403  160A  118A  	fcall	_display_time
  8642     130E                     l4706:
  8643                           
  8644                           ;car_black_box.c: 67:     clcd_print (event,(0xC0 + 11));
  8645     130E  1283               	bcf	3,5	;RP0=0, select bank0
  8646     130F  1303               	bcf	3,6	;RP1=0, select bank0
  8647     1310  0825               	movf	display_dashboard@event,w
  8648     1311  00F6               	movwf	clcd_print@str
  8649     1312  3001               	movlw	1
  8650     1313  00F7               	movwf	clcd_print@str+1
  8651     1314  30CB               	movlw	203
  8652     1315  00F8               	movwf	clcd_print@addr
  8653     1316  160A  158A  273C  160A  118A  	fcall	_clcd_print
  8654                           
  8655                           ;car_black_box.c: 70:     clcd_putch(speed/10+'0',(0xC0 + 14));
  8656     131B  30CE               	movlw	206
  8657     131C  1283               	bcf	3,5	;RP0=0, select bank0
  8658     131D  1303               	bcf	3,6	;RP1=0, select bank0
  8659     131E  00A4               	movwf	clcd_putch@addr
  8660     131F  300A               	movlw	10
  8661     1320  00F2               	movwf	___awdiv@divisor
  8662     1321  3000               	movlw	0
  8663     1322  00F3               	movwf	___awdiv@divisor+1
  8664     1323  0826               	movf	display_dashboard@speed,w
  8665     1324  00A7               	movwf	??_display_dashboard
  8666     1325  01A8               	clrf	??_display_dashboard+1
  8667     1326  0827               	movf	??_display_dashboard,w
  8668     1327  00F4               	movwf	___awdiv@dividend
  8669     1328  0828               	movf	??_display_dashboard+1,w
  8670     1329  00F5               	movwf	___awdiv@dividend+1
  8671     132A  160A  118A  24C8  160A  118A  	fcall	___awdiv
  8672     132F  0872               	movf	?___awdiv,w
  8673     1330  3E30               	addlw	48
  8674     1331  160A  158A  25AA  160A  118A  	fcall	_clcd_putch
  8675                           
  8676                           ;car_black_box.c: 71:     clcd_putch(speed%10+'0',(0xC0 + 15));
  8677     1336  30CF               	movlw	207
  8678     1337  1283               	bcf	3,5	;RP0=0, select bank0
  8679     1338  1303               	bcf	3,6	;RP1=0, select bank0
  8680     1339  00A4               	movwf	clcd_putch@addr
  8681     133A  300A               	movlw	10
  8682     133B  00F2               	movwf	___awmod@divisor
  8683     133C  3000               	movlw	0
  8684     133D  00F3               	movwf	___awmod@divisor+1
  8685     133E  0826               	movf	display_dashboard@speed,w
  8686     133F  00A7               	movwf	??_display_dashboard
  8687     1340  01A8               	clrf	??_display_dashboard+1
  8688     1341  0827               	movf	??_display_dashboard,w
  8689     1342  00F4               	movwf	___awmod@dividend
  8690     1343  0828               	movf	??_display_dashboard+1,w
  8691     1344  00F5               	movwf	___awmod@dividend+1
  8692     1345  160A  118A  2352  160A  118A  	fcall	___awmod
  8693     134A  0872               	movf	?___awmod,w
  8694     134B  3E30               	addlw	48
  8695     134C  160A  158A  25AA  160A  118A  	fcall	_clcd_putch
  8696     1351                     l326:
  8697     1351  0008               	return
  8698     1352                     __end_of_display_dashboard:
  8699                           
  8700                           	psect	text29
  8701     1403                     __ptext29:	
  8702 ;; *************** function _display_time *****************
  8703 ;; Defined at:
  8704 ;;		line 49 in file "car_black_box.c"
  8705 ;; Parameters:    Size  Location     Type
  8706 ;;		None
  8707 ;; Auto vars:     Size  Location     Type
  8708 ;;		None
  8709 ;; Return value:  Size  Location     Type
  8710 ;;                  1    wreg      void 
  8711 ;; Registers used:
  8712 ;;		wreg, status,2, status,0, pclath, cstack
  8713 ;; Tracked objects:
  8714 ;;		On entry : 0/0
  8715 ;;		On exit  : 0/0
  8716 ;;		Unchanged: 0/0
  8717 ;; Data sizes:     COMMON   BANK0   BANK1   BANK3   BANK2
  8718 ;;      Params:         0       0       0       0       0
  8719 ;;      Locals:         0       0       0       0       0
  8720 ;;      Temps:          0       0       0       0       0
  8721 ;;      Totals:         0       0       0       0       0
  8722 ;;Total ram usage:        0 bytes
  8723 ;; Hardware stack levels used: 1
  8724 ;; Hardware stack levels required when called: 6
  8725 ;; This function calls:
  8726 ;;		_clcd_putch
  8727 ;;		_get_time
  8728 ;; This function is called by:
  8729 ;;		_display_dashboard
  8730 ;; This function uses a non-reentrant model
  8731 ;;
  8732                           
  8733     1403                     _display_time:	
  8734                           ;psect for function _display_time
  8735                           
  8736     1403                     l4480:	
  8737                           ;incstack = 0
  8738                           ; Regs used in _display_time: [wreg+status,2+status,0+pclath+cstack]
  8739                           
  8740                           
  8741                           ;car_black_box.c: 51:     get_time();
  8742     1403  160A  118A  22B1  160A  118A  	fcall	_get_time
  8743                           
  8744                           ;car_black_box.c: 52:     clcd_putch(time[0],(0xC0 + 2));
  8745     1408  30C2               	movlw	194
  8746     1409  1283               	bcf	3,5	;RP0=0, select bank0
  8747     140A  1303               	bcf	3,6	;RP1=0, select bank0
  8748     140B  00A4               	movwf	clcd_putch@addr
  8749     140C  1683               	bsf	3,5	;RP0=1, select bank1
  8750     140D  1303               	bcf	3,6	;RP1=0, select bank1
  8751     140E  0846               	movf	_time^(0+128),w
  8752     140F  160A  158A  25AA  160A  118A  	fcall	_clcd_putch
  8753                           
  8754                           ;car_black_box.c: 53:     clcd_putch(time[1],(0xC0 + 3));
  8755     1414  30C3               	movlw	195
  8756     1415  1283               	bcf	3,5	;RP0=0, select bank0
  8757     1416  1303               	bcf	3,6	;RP1=0, select bank0
  8758     1417  00A4               	movwf	clcd_putch@addr
  8759     1418  1683               	bsf	3,5	;RP0=1, select bank1
  8760     1419  1303               	bcf	3,6	;RP1=0, select bank1
  8761     141A  0847               	movf	(_time^(0+128)+1),w
  8762     141B  160A  158A  25AA  160A  118A  	fcall	_clcd_putch
  8763                           
  8764                           ;car_black_box.c: 54:     clcd_putch(':',(0xC0 + 4));
  8765     1420  30C4               	movlw	196
  8766     1421  1283               	bcf	3,5	;RP0=0, select bank0
  8767     1422  1303               	bcf	3,6	;RP1=0, select bank0
  8768     1423  00A4               	movwf	clcd_putch@addr
  8769     1424  303A               	movlw	58
  8770     1425  160A  158A  25AA  160A  118A  	fcall	_clcd_putch
  8771                           
  8772                           ;car_black_box.c: 55:     clcd_putch(time[2],(0xC0 + 5));
  8773     142A  30C5               	movlw	197
  8774     142B  1283               	bcf	3,5	;RP0=0, select bank0
  8775     142C  1303               	bcf	3,6	;RP1=0, select bank0
  8776     142D  00A4               	movwf	clcd_putch@addr
  8777     142E  1683               	bsf	3,5	;RP0=1, select bank1
  8778     142F  1303               	bcf	3,6	;RP1=0, select bank1
  8779     1430  0848               	movf	(_time^(0+128)+2),w
  8780     1431  160A  158A  25AA  160A  118A  	fcall	_clcd_putch
  8781                           
  8782                           ;car_black_box.c: 56:     clcd_putch(time[3],(0xC0 + 6));
  8783     1436  30C6               	movlw	198
  8784     1437  1283               	bcf	3,5	;RP0=0, select bank0
  8785     1438  1303               	bcf	3,6	;RP1=0, select bank0
  8786     1439  00A4               	movwf	clcd_putch@addr
  8787     143A  1683               	bsf	3,5	;RP0=1, select bank1
  8788     143B  1303               	bcf	3,6	;RP1=0, select bank1
  8789     143C  0849               	movf	(_time^(0+128)+3),w
  8790     143D  160A  158A  25AA  160A  118A  	fcall	_clcd_putch
  8791                           
  8792                           ;car_black_box.c: 57:     clcd_putch(':',(0xC0 + 7));
  8793     1442  30C7               	movlw	199
  8794     1443  1283               	bcf	3,5	;RP0=0, select bank0
  8795     1444  1303               	bcf	3,6	;RP1=0, select bank0
  8796     1445  00A4               	movwf	clcd_putch@addr
  8797     1446  303A               	movlw	58
  8798     1447  160A  158A  25AA  160A  118A  	fcall	_clcd_putch
  8799                           
  8800                           ;car_black_box.c: 58:     clcd_putch(time[4],(0xC0 + 8));
  8801     144C  30C8               	movlw	200
  8802     144D  1283               	bcf	3,5	;RP0=0, select bank0
  8803     144E  1303               	bcf	3,6	;RP1=0, select bank0
  8804     144F  00A4               	movwf	clcd_putch@addr
  8805     1450  1683               	bsf	3,5	;RP0=1, select bank1
  8806     1451  1303               	bcf	3,6	;RP1=0, select bank1
  8807     1452  084A               	movf	(_time^(0+128)+4),w
  8808     1453  160A  158A  25AA  160A  118A  	fcall	_clcd_putch
  8809                           
  8810                           ;car_black_box.c: 59:     clcd_putch(time[5],(0xC0 + 9));
  8811     1458  30C9               	movlw	201
  8812     1459  1283               	bcf	3,5	;RP0=0, select bank0
  8813     145A  1303               	bcf	3,6	;RP1=0, select bank0
  8814     145B  00A4               	movwf	clcd_putch@addr
  8815     145C  1683               	bsf	3,5	;RP0=1, select bank1
  8816     145D  1303               	bcf	3,6	;RP1=0, select bank1
  8817     145E  084B               	movf	(_time^(0+128)+5),w
  8818     145F  160A  158A  25AA  160A  118A  	fcall	_clcd_putch
  8819     1464                     l323:
  8820     1464  0008               	return
  8821     1465                     __end_of_display_time:
  8822                           
  8823                           	psect	text30
  8824     12B1                     __ptext30:	
  8825 ;; *************** function _get_time *****************
  8826 ;; Defined at:
  8827 ;;		line 20 in file "car_black_box.c"
  8828 ;; Parameters:    Size  Location     Type
  8829 ;;		None
  8830 ;; Auto vars:     Size  Location     Type
  8831 ;;		None
  8832 ;; Return value:  Size  Location     Type
  8833 ;;                  1    wreg      void 
  8834 ;; Registers used:
  8835 ;;		wreg, status,2, status,0, pclath, cstack
  8836 ;; Tracked objects:
  8837 ;;		On entry : 0/0
  8838 ;;		On exit  : 0/0
  8839 ;;		Unchanged: 0/0
  8840 ;; Data sizes:     COMMON   BANK0   BANK1   BANK3   BANK2
  8841 ;;      Params:         0       0       0       0       0
  8842 ;;      Locals:         0       0       0       0       0
  8843 ;;      Temps:          1       0       0       0       0
  8844 ;;      Totals:         1       0       0       0       0
  8845 ;;Total ram usage:        1 bytes
  8846 ;; Hardware stack levels used: 1
  8847 ;; Hardware stack levels required when called: 5
  8848 ;; This function calls:
  8849 ;;		_read_ds1307
  8850 ;; This function is called by:
  8851 ;;		_display_time
  8852 ;;		_log_event
  8853 ;; This function uses a non-reentrant model
  8854 ;;
  8855                           
  8856     12B1                     _get_time:	
  8857                           ;psect for function _get_time
  8858                           
  8859     12B1                     l4382:	
  8860                           ;incstack = 0
  8861                           ; Regs used in _get_time: [wreg+status,2+status,0+pclath+cstack]
  8862                           
  8863                           
  8864                           ;car_black_box.c: 22:     clock_reg[0] = read_ds1307(0x02);
  8865     12B1  3002               	movlw	2
  8866     12B2  160A  158A  26E6  160A  118A  	fcall	_read_ds1307
  8867     12B7  1683               	bsf	3,5	;RP0=1, select bank1
  8868     12B8  1303               	bcf	3,6	;RP1=0, select bank1
  8869     12B9  00A0               	movwf	_clock_reg^(0+128)
  8870                           
  8871                           ;car_black_box.c: 23:     clock_reg[1] = read_ds1307(0x01);
  8872     12BA  3001               	movlw	1
  8873     12BB  160A  158A  26E6  160A  118A  	fcall	_read_ds1307
  8874     12C0  1683               	bsf	3,5	;RP0=1, select bank1
  8875     12C1  1303               	bcf	3,6	;RP1=0, select bank1
  8876     12C2  00A1               	movwf	(_clock_reg^(0+128)+1)
  8877                           
  8878                           ;car_black_box.c: 24:     clock_reg[2] = read_ds1307(0x00);
  8879     12C3  3000               	movlw	0
  8880     12C4  160A  158A  26E6  160A  118A  	fcall	_read_ds1307
  8881     12C9  1683               	bsf	3,5	;RP0=1, select bank1
  8882     12CA  1303               	bcf	3,6	;RP1=0, select bank1
  8883     12CB  00A2               	movwf	(_clock_reg^(0+128)+2)
  8884     12CC                     l4384:
  8885                           
  8886                           ;car_black_box.c: 34:     time[0] = ((clock_reg[0] >> 4) & 0x03) + '0';
  8887     12CC  0820               	movf	_clock_reg^(0+128),w
  8888     12CD  00F6               	movwf	??_get_time
  8889     12CE  3004               	movlw	4
  8890     12CF                     u4995:
  8891     12CF  1003               	clrc
  8892     12D0  0CF6               	rrf	??_get_time,f
  8893     12D1  3EFF               	addlw	-1
  8894     12D2  1D03               	skipz
  8895     12D3  2ACF               	goto	u4995
  8896     12D4  0876               	movf	??_get_time,w
  8897     12D5  3903               	andlw	3
  8898     12D6  3E30               	addlw	48
  8899     12D7  00C6               	movwf	_time^(0+128)
  8900     12D8                     l4386:
  8901                           
  8902                           ;car_black_box.c: 35:     time[1] = (clock_reg[0] & 0x0F) + '0';
  8903     12D8  0820               	movf	_clock_reg^(0+128),w
  8904     12D9  390F               	andlw	15
  8905     12DA  3E30               	addlw	48
  8906     12DB  00C7               	movwf	(_time^(0+128)+1)
  8907     12DC                     l4388:
  8908                           
  8909                           ;car_black_box.c: 39:     time[2] = ((clock_reg[1] >> 4) & 0x07) + '0';
  8910     12DC  0821               	movf	(_clock_reg^(0+128)+1),w
  8911     12DD  00F6               	movwf	??_get_time
  8912     12DE  3004               	movlw	4
  8913     12DF                     u5005:
  8914     12DF  1003               	clrc
  8915     12E0  0CF6               	rrf	??_get_time,f
  8916     12E1  3EFF               	addlw	-1
  8917     12E2  1D03               	skipz
  8918     12E3  2ADF               	goto	u5005
  8919     12E4  0876               	movf	??_get_time,w
  8920     12E5  3907               	andlw	7
  8921     12E6  3E30               	addlw	48
  8922     12E7  00C8               	movwf	(_time^(0+128)+2)
  8923     12E8                     l4390:
  8924                           
  8925                           ;car_black_box.c: 40:     time[3] = (clock_reg[1] & 0x0F) + '0';
  8926     12E8  0821               	movf	(_clock_reg^(0+128)+1),w
  8927     12E9  390F               	andlw	15
  8928     12EA  3E30               	addlw	48
  8929     12EB  00C9               	movwf	(_time^(0+128)+3)
  8930     12EC                     l4392:
  8931                           
  8932                           ;car_black_box.c: 44:     time[4] = ((clock_reg[2] >> 4) & 0x07) + '0';
  8933     12EC  0822               	movf	(_clock_reg^(0+128)+2),w
  8934     12ED  00F6               	movwf	??_get_time
  8935     12EE  3004               	movlw	4
  8936     12EF                     u5015:
  8937     12EF  1003               	clrc
  8938     12F0  0CF6               	rrf	??_get_time,f
  8939     12F1  3EFF               	addlw	-1
  8940     12F2  1D03               	skipz
  8941     12F3  2AEF               	goto	u5015
  8942     12F4  0876               	movf	??_get_time,w
  8943     12F5  3907               	andlw	7
  8944     12F6  3E30               	addlw	48
  8945     12F7  00CA               	movwf	(_time^(0+128)+4)
  8946     12F8                     l4394:
  8947                           
  8948                           ;car_black_box.c: 45:     time[5] = (clock_reg[2] & 0x0F) + '0';
  8949     12F8  0822               	movf	(_clock_reg^(0+128)+2),w
  8950     12F9  390F               	andlw	15
  8951     12FA  3E30               	addlw	48
  8952     12FB  00CB               	movwf	(_time^(0+128)+5)
  8953     12FC                     l4396:
  8954                           
  8955                           ;car_black_box.c: 46:     time[6] = '\0';
  8956     12FC  01CC               	clrf	(_time^(0+128)+6)
  8957     12FD                     l320:
  8958     12FD  0008               	return
  8959     12FE                     __end_of_get_time:
  8960                           
  8961                           	psect	text31
  8962     1EE6                     __ptext31:	
  8963 ;; *************** function _read_ds1307 *****************
  8964 ;; Defined at:
  8965 ;;		line 19 in file "ds1307.c"
  8966 ;; Parameters:    Size  Location     Type
  8967 ;;  addr            1    wreg     unsigned char 
  8968 ;; Auto vars:     Size  Location     Type
  8969 ;;  addr            1    4[COMMON] unsigned char 
  8970 ;;  data            1    5[COMMON] unsigned char 
  8971 ;; Return value:  Size  Location     Type
  8972 ;;                  1    wreg      unsigned char 
  8973 ;; Registers used:
  8974 ;;		wreg, status,2, status,0, pclath, cstack
  8975 ;; Tracked objects:
  8976 ;;		On entry : 0/0
  8977 ;;		On exit  : 0/0
  8978 ;;		Unchanged: 0/0
  8979 ;; Data sizes:     COMMON   BANK0   BANK1   BANK3   BANK2
  8980 ;;      Params:         0       0       0       0       0
  8981 ;;      Locals:         2       0       0       0       0
  8982 ;;      Temps:          0       0       0       0       0
  8983 ;;      Totals:         2       0       0       0       0
  8984 ;;Total ram usage:        2 bytes
  8985 ;; Hardware stack levels used: 1
  8986 ;; Hardware stack levels required when called: 4
  8987 ;; This function calls:
  8988 ;;		_i2c_read
  8989 ;;		_i2c_rep_start
  8990 ;;		_i2c_start
  8991 ;;		_i2c_stop
  8992 ;;		_i2c_write
  8993 ;; This function is called by:
  8994 ;;		_init_ds1307
  8995 ;;		_get_time
  8996 ;; This function uses a non-reentrant model
  8997 ;;
  8998                           
  8999     1EE6                     _read_ds1307:	
  9000                           ;psect for function _read_ds1307
  9001                           
  9002                           
  9003                           ;incstack = 0
  9004                           ; Regs used in _read_ds1307: [wreg+status,2+status,0+pclath+cstack]
  9005                           ;read_ds1307@addr stored from wreg
  9006     1EE6  00F4               	movwf	read_ds1307@addr
  9007     1EE7                     l4336:
  9008                           
  9009                           ;ds1307.c: 19: unsigned char read_ds1307(unsigned char addr);ds1307.c: 20: {;ds1307.c: 2
      +                          1:     unsigned char data;;ds1307.c: 23:     i2c_start();
  9010     1EE7  160A  158A  250C  160A  158A  	fcall	_i2c_start
  9011                           
  9012                           ;ds1307.c: 24:     i2c_write(0b11010000);
  9013     1EEC  30D0               	movlw	208
  9014     1EED  160A  158A  2515  160A  158A  	fcall	_i2c_write
  9015                           
  9016                           ;ds1307.c: 25:     i2c_write(addr);
  9017     1EF2  0874               	movf	read_ds1307@addr,w
  9018     1EF3  160A  158A  2515  160A  158A  	fcall	_i2c_write
  9019                           
  9020                           ;ds1307.c: 26:     i2c_rep_start();
  9021     1EF8  160A  158A  2520  160A  158A  	fcall	_i2c_rep_start
  9022                           
  9023                           ;ds1307.c: 27:     i2c_write(0b11010001);
  9024     1EFD  30D1               	movlw	209
  9025     1EFE  160A  158A  2515  160A  158A  	fcall	_i2c_write
  9026                           
  9027                           ;ds1307.c: 28:     data = i2c_read(0);
  9028     1F03  3000               	movlw	0
  9029     1F04  160A  158A  2629  160A  158A  	fcall	_i2c_read
  9030     1F09  00F5               	movwf	read_ds1307@data
  9031                           
  9032                           ;ds1307.c: 29:     i2c_stop();
  9033     1F0A  120A  118A  27F7  160A  158A  	fcall	_i2c_stop
  9034     1F0F                     l4338:
  9035                           
  9036                           ;ds1307.c: 31:     return data;
  9037     1F0F  0875               	movf	read_ds1307@data,w
  9038     1F10                     l52:
  9039     1F10  0008               	return
  9040     1F11                     __end_of_read_ds1307:
  9041                           
  9042                           	psect	text32
  9043     1D20                     __ptext32:	
  9044 ;; *************** function _i2c_rep_start *****************
  9045 ;; Defined at:
  9046 ;;		line 33 in file "i2c.c"
  9047 ;; Parameters:    Size  Location     Type
  9048 ;;		None
  9049 ;; Auto vars:     Size  Location     Type
  9050 ;;		None
  9051 ;; Return value:  Size  Location     Type
  9052 ;;                  1    wreg      void 
  9053 ;; Registers used:
  9054 ;;		wreg, status,2, status,0, pclath, cstack
  9055 ;; Tracked objects:
  9056 ;;		On entry : 0/0
  9057 ;;		On exit  : 0/0
  9058 ;;		Unchanged: 0/0
  9059 ;; Data sizes:     COMMON   BANK0   BANK1   BANK3   BANK2
  9060 ;;      Params:         0       0       0       0       0
  9061 ;;      Locals:         0       0       0       0       0
  9062 ;;      Temps:          0       0       0       0       0
  9063 ;;      Totals:         0       0       0       0       0
  9064 ;;Total ram usage:        0 bytes
  9065 ;; Hardware stack levels used: 1
  9066 ;; Hardware stack levels required when called: 3
  9067 ;; This function calls:
  9068 ;;		_i2c_start
  9069 ;;		_i2c_stop
  9070 ;; This function is called by:
  9071 ;;		_read_ds1307
  9072 ;;		_read_externaleeprom
  9073 ;; This function uses a non-reentrant model
  9074 ;;
  9075                           
  9076     1D20                     _i2c_rep_start:	
  9077                           ;psect for function _i2c_rep_start
  9078                           
  9079     1D20                     l4300:	
  9080                           ;incstack = 0
  9081                           ; Regs used in _i2c_rep_start: [wreg+status,2+status,0+pclath+cstack]
  9082                           
  9083                           
  9084                           ;i2c.c: 35:     i2c_stop();
  9085     1D20  120A  118A  27F7  160A  158A  	fcall	_i2c_stop
  9086                           
  9087                           ;i2c.c: 36:     i2c_start();
  9088     1D25  160A  158A  250C  160A  158A  	fcall	_i2c_start
  9089     1D2A                     l96:
  9090     1D2A  0008               	return
  9091     1D2B                     __end_of_i2c_rep_start:
  9092                           
  9093                           	psect	text33
  9094     1E29                     __ptext33:	
  9095 ;; *************** function _i2c_read *****************
  9096 ;; Defined at:
  9097 ;;		line 46 in file "i2c.c"
  9098 ;; Parameters:    Size  Location     Type
  9099 ;;  ack             1    wreg     unsigned char 
  9100 ;; Auto vars:     Size  Location     Type
  9101 ;;  ack             1    2[COMMON] unsigned char 
  9102 ;;  data            1    3[COMMON] unsigned char 
  9103 ;; Return value:  Size  Location     Type
  9104 ;;                  1    wreg      unsigned char 
  9105 ;; Registers used:
  9106 ;;		wreg, status,2, status,0, pclath, cstack
  9107 ;; Tracked objects:
  9108 ;;		On entry : 0/0
  9109 ;;		On exit  : 0/0
  9110 ;;		Unchanged: 0/0
  9111 ;; Data sizes:     COMMON   BANK0   BANK1   BANK3   BANK2
  9112 ;;      Params:         0       0       0       0       0
  9113 ;;      Locals:         2       0       0       0       0
  9114 ;;      Temps:          0       0       0       0       0
  9115 ;;      Totals:         2       0       0       0       0
  9116 ;;Total ram usage:        2 bytes
  9117 ;; Hardware stack levels used: 1
  9118 ;; Hardware stack levels required when called: 2
  9119 ;; This function calls:
  9120 ;;		_i2c_wait_for_idle
  9121 ;; This function is called by:
  9122 ;;		_read_ds1307
  9123 ;;		_read_externaleeprom
  9124 ;; This function uses a non-reentrant model
  9125 ;;
  9126                           
  9127     1E29                     _i2c_read:	
  9128                           ;psect for function _i2c_read
  9129                           
  9130                           
  9131                           ;incstack = 0
  9132                           ; Regs used in _i2c_read: [wreg+status,2+status,0+pclath+cstack]
  9133                           ;i2c_read@ack stored from wreg
  9134     1E29  00F2               	movwf	i2c_read@ack
  9135     1E2A                     l4302:
  9136                           
  9137                           ;i2c.c: 46: unsigned char i2c_read(unsigned char ack);i2c.c: 47: {;i2c.c: 48:     unsign
      +                          ed char data;;i2c.c: 50:     i2c_wait_for_idle();
  9138     1E2A  160A  158A  254D  160A  158A  	fcall	_i2c_wait_for_idle
  9139     1E2F                     l4304:
  9140                           
  9141                           ;i2c.c: 51:     RCEN = 1;
  9142     1E2F  1683               	bsf	3,5	;RP0=1, select bank1
  9143     1E30  1303               	bcf	3,6	;RP1=0, select bank1
  9144     1E31  1591               	bsf	17,3	;volatile
  9145                           
  9146                           ;i2c.c: 53:     i2c_wait_for_idle();
  9147     1E32  160A  158A  254D  160A  158A  	fcall	_i2c_wait_for_idle
  9148     1E37                     l4306:
  9149                           
  9150                           ;i2c.c: 54:     data = SSPBUF;
  9151     1E37  1283               	bcf	3,5	;RP0=0, select bank0
  9152     1E38  1303               	bcf	3,6	;RP1=0, select bank0
  9153     1E39  0813               	movf	19,w	;volatile
  9154     1E3A  00F3               	movwf	i2c_read@data
  9155     1E3B                     l4308:
  9156                           
  9157                           ;i2c.c: 56:     if (ack == 1)
  9158     1E3B  0372               	decf	i2c_read@ack,w
  9159     1E3C  1D03               	btfss	3,2
  9160     1E3D  2E3F               	goto	u4941
  9161     1E3E  2E40               	goto	u4940
  9162     1E3F                     u4941:
  9163     1E3F  2E44               	goto	l102
  9164     1E40                     u4940:
  9165     1E40                     l4310:
  9166                           
  9167                           ;i2c.c: 57:     {;i2c.c: 58:         ACKDT = 1;
  9168     1E40  1683               	bsf	3,5	;RP0=1, select bank1
  9169     1E41  1303               	bcf	3,6	;RP1=0, select bank1
  9170     1E42  1691               	bsf	17,5	;volatile
  9171                           
  9172                           ;i2c.c: 59:     }
  9173     1E43  2E47               	goto	l103
  9174     1E44                     l102:	
  9175                           ;i2c.c: 60:     else
  9176                           
  9177                           
  9178                           ;i2c.c: 61:     {;i2c.c: 62:         ACKDT = 0;
  9179     1E44  1683               	bsf	3,5	;RP0=1, select bank1
  9180     1E45  1303               	bcf	3,6	;RP1=0, select bank1
  9181     1E46  1291               	bcf	17,5	;volatile
  9182     1E47                     l103:	
  9183                           ;i2c.c: 63:     }
  9184                           
  9185                           
  9186                           ;i2c.c: 65:     ACKEN = 1;
  9187     1E47  1611               	bsf	17,4	;volatile
  9188     1E48                     l4312:
  9189                           
  9190                           ;i2c.c: 67:     return data;
  9191     1E48  0873               	movf	i2c_read@data,w
  9192     1E49                     l104:
  9193     1E49  0008               	return
  9194     1E4A                     __end_of_i2c_read:
  9195                           
  9196                           	psect	text34
  9197     1352                     __ptext34:	
  9198 ;; *************** function ___awmod *****************
  9199 ;; Defined at:
  9200 ;;		line 5 in file "C:\Program Files\Microchip\xc8\v2.50\pic\sources\c99\common\awmod.c"
  9201 ;; Parameters:    Size  Location     Type
  9202 ;;  divisor         2    2[COMMON] int 
  9203 ;;  dividend        2    4[COMMON] int 
  9204 ;; Auto vars:     Size  Location     Type
  9205 ;;  sign            1    7[COMMON] unsigned char 
  9206 ;;  counter         1    6[COMMON] unsigned char 
  9207 ;; Return value:  Size  Location     Type
  9208 ;;                  2    2[COMMON] int 
  9209 ;; Registers used:
  9210 ;;		wreg, status,2, status,0
  9211 ;; Tracked objects:
  9212 ;;		On entry : 0/0
  9213 ;;		On exit  : 0/0
  9214 ;;		Unchanged: 0/0
  9215 ;; Data sizes:     COMMON   BANK0   BANK1   BANK3   BANK2
  9216 ;;      Params:         4       0       0       0       0
  9217 ;;      Locals:         2       0       0       0       0
  9218 ;;      Temps:          0       0       0       0       0
  9219 ;;      Totals:         6       0       0       0       0
  9220 ;;Total ram usage:        6 bytes
  9221 ;; Hardware stack levels used: 1
  9222 ;; Hardware stack levels required when called: 1
  9223 ;; This function calls:
  9224 ;;		Nothing
  9225 ;; This function is called by:
  9226 ;;		_display_dashboard
  9227 ;;		_login_screen
  9228 ;;		_log_event
  9229 ;; This function uses a non-reentrant model
  9230 ;;
  9231                           
  9232     1352                     ___awmod:	
  9233                           ;psect for function ___awmod
  9234                           
  9235     1352                     l4604:	
  9236                           ;incstack = 0
  9237                           ; Regs used in ___awmod: [wreg+status,2+status,0]
  9238                           
  9239     1352  01F7               	clrf	___awmod@sign
  9240     1353                     l4606:
  9241     1353  1FF5               	btfss	___awmod@dividend+1,7
  9242     1354  2B56               	goto	u5391
  9243     1355  2B57               	goto	u5390
  9244     1356                     u5391:
  9245     1356  2B5E               	goto	l4612
  9246     1357                     u5390:
  9247     1357                     l4608:
  9248     1357  09F4               	comf	___awmod@dividend,f
  9249     1358  09F5               	comf	___awmod@dividend+1,f
  9250     1359  0AF4               	incf	___awmod@dividend,f
  9251     135A  1903               	skipnz
  9252     135B  0AF5               	incf	___awmod@dividend+1,f
  9253     135C                     l4610:
  9254     135C  3001               	movlw	1
  9255     135D  00F7               	movwf	___awmod@sign
  9256     135E                     l4612:
  9257     135E  1FF3               	btfss	___awmod@divisor+1,7
  9258     135F  2B61               	goto	u5401
  9259     1360  2B62               	goto	u5400
  9260     1361                     u5401:
  9261     1361  2B67               	goto	l4616
  9262     1362                     u5400:
  9263     1362                     l4614:
  9264     1362  09F2               	comf	___awmod@divisor,f
  9265     1363  09F3               	comf	___awmod@divisor+1,f
  9266     1364  0AF2               	incf	___awmod@divisor,f
  9267     1365  1903               	skipnz
  9268     1366  0AF3               	incf	___awmod@divisor+1,f
  9269     1367                     l4616:
  9270     1367  0872               	movf	___awmod@divisor,w
  9271     1368  0473               	iorwf	___awmod@divisor+1,w
  9272     1369  1903               	btfsc	3,2
  9273     136A  2B6C               	goto	u5411
  9274     136B  2B6D               	goto	u5410
  9275     136C                     u5411:
  9276     136C  2B9A               	goto	l4634
  9277     136D                     u5410:
  9278     136D                     l4618:
  9279     136D  3001               	movlw	1
  9280     136E  00F6               	movwf	___awmod@counter
  9281     136F  2B79               	goto	l4624
  9282     1370                     l4620:
  9283     1370  3001               	movlw	1
  9284     1371                     u5425:
  9285     1371  1003               	clrc
  9286     1372  0DF2               	rlf	___awmod@divisor,f
  9287     1373  0DF3               	rlf	___awmod@divisor+1,f
  9288     1374  3EFF               	addlw	-1
  9289     1375  1D03               	skipz
  9290     1376  2B71               	goto	u5425
  9291     1377                     l4622:
  9292     1377  3001               	movlw	1
  9293     1378  07F6               	addwf	___awmod@counter,f
  9294     1379                     l4624:
  9295     1379  1FF3               	btfss	___awmod@divisor+1,7
  9296     137A  2B7C               	goto	u5431
  9297     137B  2B7D               	goto	u5430
  9298     137C                     u5431:
  9299     137C  2B70               	goto	l4620
  9300     137D                     u5430:
  9301     137D                     l4626:
  9302     137D  0873               	movf	___awmod@divisor+1,w
  9303     137E  0275               	subwf	___awmod@dividend+1,w
  9304     137F  1D03               	skipz
  9305     1380  2B83               	goto	u5445
  9306     1381  0872               	movf	___awmod@divisor,w
  9307     1382  0274               	subwf	___awmod@dividend,w
  9308     1383                     u5445:
  9309     1383  1C03               	skipc
  9310     1384  2B86               	goto	u5441
  9311     1385  2B87               	goto	u5440
  9312     1386                     u5441:
  9313     1386  2B8D               	goto	l4630
  9314     1387                     u5440:
  9315     1387                     l4628:
  9316     1387  0872               	movf	___awmod@divisor,w
  9317     1388  02F4               	subwf	___awmod@dividend,f
  9318     1389  0873               	movf	___awmod@divisor+1,w
  9319     138A  1C03               	skipc
  9320     138B  03F5               	decf	___awmod@dividend+1,f
  9321     138C  02F5               	subwf	___awmod@dividend+1,f
  9322     138D                     l4630:
  9323     138D  3001               	movlw	1
  9324     138E                     u5455:
  9325     138E  1003               	clrc
  9326     138F  0CF3               	rrf	___awmod@divisor+1,f
  9327     1390  0CF2               	rrf	___awmod@divisor,f
  9328     1391  3EFF               	addlw	-1
  9329     1392  1D03               	skipz
  9330     1393  2B8E               	goto	u5455
  9331     1394                     l4632:
  9332     1394  3001               	movlw	1
  9333     1395  02F6               	subwf	___awmod@counter,f
  9334     1396  1D03               	btfss	3,2
  9335     1397  2B99               	goto	u5461
  9336     1398  2B9A               	goto	u5460
  9337     1399                     u5461:
  9338     1399  2B7D               	goto	l4626
  9339     139A                     u5460:
  9340     139A                     l4634:
  9341     139A  0877               	movf	___awmod@sign,w
  9342     139B  1903               	btfsc	3,2
  9343     139C  2B9E               	goto	u5471
  9344     139D  2B9F               	goto	u5470
  9345     139E                     u5471:
  9346     139E  2BA4               	goto	l4638
  9347     139F                     u5470:
  9348     139F                     l4636:
  9349     139F  09F4               	comf	___awmod@dividend,f
  9350     13A0  09F5               	comf	___awmod@dividend+1,f
  9351     13A1  0AF4               	incf	___awmod@dividend,f
  9352     13A2  1903               	skipnz
  9353     13A3  0AF5               	incf	___awmod@dividend+1,f
  9354     13A4                     l4638:
  9355     13A4  0875               	movf	___awmod@dividend+1,w
  9356     13A5  00F3               	movwf	?___awmod+1
  9357     13A6  0874               	movf	___awmod@dividend,w
  9358     13A7  00F2               	movwf	?___awmod
  9359     13A8                     l839:
  9360     13A8  0008               	return
  9361     13A9                     __end_of___awmod:
  9362                           
  9363                           	psect	text35
  9364     14C8                     __ptext35:	
  9365 ;; *************** function ___awdiv *****************
  9366 ;; Defined at:
  9367 ;;		line 5 in file "C:\Program Files\Microchip\xc8\v2.50\pic\sources\c99\common\awdiv.c"
  9368 ;; Parameters:    Size  Location     Type
  9369 ;;  divisor         2    2[COMMON] int 
  9370 ;;  dividend        2    4[COMMON] int 
  9371 ;; Auto vars:     Size  Location     Type
  9372 ;;  quotient        2    2[BANK0 ] int 
  9373 ;;  sign            1    1[BANK0 ] unsigned char 
  9374 ;;  counter         1    0[BANK0 ] unsigned char 
  9375 ;; Return value:  Size  Location     Type
  9376 ;;                  2    2[COMMON] int 
  9377 ;; Registers used:
  9378 ;;		wreg, status,2, status,0
  9379 ;; Tracked objects:
  9380 ;;		On entry : 0/0
  9381 ;;		On exit  : 0/0
  9382 ;;		Unchanged: 0/0
  9383 ;; Data sizes:     COMMON   BANK0   BANK1   BANK3   BANK2
  9384 ;;      Params:         4       0       0       0       0
  9385 ;;      Locals:         0       4       0       0       0
  9386 ;;      Temps:          0       0       0       0       0
  9387 ;;      Totals:         4       4       0       0       0
  9388 ;;Total ram usage:        8 bytes
  9389 ;; Hardware stack levels used: 1
  9390 ;; Hardware stack levels required when called: 1
  9391 ;; This function calls:
  9392 ;;		Nothing
  9393 ;; This function is called by:
  9394 ;;		_display_dashboard
  9395 ;;		_login_screen
  9396 ;;		_log_event
  9397 ;; This function uses a non-reentrant model
  9398 ;;
  9399                           
  9400     14C8                     ___awdiv:	
  9401                           ;psect for function ___awdiv
  9402                           
  9403     14C8                     l4560:	
  9404                           ;incstack = 0
  9405                           ; Regs used in ___awdiv: [wreg+status,2+status,0]
  9406                           
  9407     14C8  1283               	bcf	3,5	;RP0=0, select bank0
  9408     14C9  1303               	bcf	3,6	;RP1=0, select bank0
  9409     14CA  01A1               	clrf	___awdiv@sign
  9410     14CB                     l4562:
  9411     14CB  1FF3               	btfss	___awdiv@divisor+1,7
  9412     14CC  2CCE               	goto	u5291
  9413     14CD  2CCF               	goto	u5290
  9414     14CE                     u5291:
  9415     14CE  2CD6               	goto	l4568
  9416     14CF                     u5290:
  9417     14CF                     l4564:
  9418     14CF  09F2               	comf	___awdiv@divisor,f
  9419     14D0  09F3               	comf	___awdiv@divisor+1,f
  9420     14D1  0AF2               	incf	___awdiv@divisor,f
  9421     14D2  1903               	skipnz
  9422     14D3  0AF3               	incf	___awdiv@divisor+1,f
  9423     14D4                     l4566:
  9424     14D4  3001               	movlw	1
  9425     14D5  00A1               	movwf	___awdiv@sign
  9426     14D6                     l4568:
  9427     14D6  1FF5               	btfss	___awdiv@dividend+1,7
  9428     14D7  2CD9               	goto	u5301
  9429     14D8  2CDA               	goto	u5300
  9430     14D9                     u5301:
  9431     14D9  2CE1               	goto	l4574
  9432     14DA                     u5300:
  9433     14DA                     l4570:
  9434     14DA  09F4               	comf	___awdiv@dividend,f
  9435     14DB  09F5               	comf	___awdiv@dividend+1,f
  9436     14DC  0AF4               	incf	___awdiv@dividend,f
  9437     14DD  1903               	skipnz
  9438     14DE  0AF5               	incf	___awdiv@dividend+1,f
  9439     14DF                     l4572:
  9440     14DF  3001               	movlw	1
  9441     14E0  06A1               	xorwf	___awdiv@sign,f
  9442     14E1                     l4574:
  9443     14E1  01A2               	clrf	___awdiv@quotient
  9444     14E2  01A3               	clrf	___awdiv@quotient+1
  9445     14E3                     l4576:
  9446     14E3  0872               	movf	___awdiv@divisor,w
  9447     14E4  0473               	iorwf	___awdiv@divisor+1,w
  9448     14E5  1903               	btfsc	3,2
  9449     14E6  2CE8               	goto	u5311
  9450     14E7  2CE9               	goto	u5310
  9451     14E8                     u5311:
  9452     14E8  2D1E               	goto	l4596
  9453     14E9                     u5310:
  9454     14E9                     l4578:
  9455     14E9  3001               	movlw	1
  9456     14EA  00A0               	movwf	___awdiv@counter
  9457     14EB  2CF5               	goto	l4584
  9458     14EC                     l4580:
  9459     14EC  3001               	movlw	1
  9460     14ED                     u5325:
  9461     14ED  1003               	clrc
  9462     14EE  0DF2               	rlf	___awdiv@divisor,f
  9463     14EF  0DF3               	rlf	___awdiv@divisor+1,f
  9464     14F0  3EFF               	addlw	-1
  9465     14F1  1D03               	skipz
  9466     14F2  2CED               	goto	u5325
  9467     14F3                     l4582:
  9468     14F3  3001               	movlw	1
  9469     14F4  07A0               	addwf	___awdiv@counter,f
  9470     14F5                     l4584:
  9471     14F5  1FF3               	btfss	___awdiv@divisor+1,7
  9472     14F6  2CF8               	goto	u5331
  9473     14F7  2CF9               	goto	u5330
  9474     14F8                     u5331:
  9475     14F8  2CEC               	goto	l4580
  9476     14F9                     u5330:
  9477     14F9                     l4586:
  9478     14F9  3001               	movlw	1
  9479     14FA                     u5345:
  9480     14FA  1003               	clrc
  9481     14FB  0DA2               	rlf	___awdiv@quotient,f
  9482     14FC  0DA3               	rlf	___awdiv@quotient+1,f
  9483     14FD  3EFF               	addlw	-1
  9484     14FE  1D03               	skipz
  9485     14FF  2CFA               	goto	u5345
  9486     1500  0873               	movf	___awdiv@divisor+1,w
  9487     1501  0275               	subwf	___awdiv@dividend+1,w
  9488     1502  1D03               	skipz
  9489     1503  2D06               	goto	u5355
  9490     1504  0872               	movf	___awdiv@divisor,w
  9491     1505  0274               	subwf	___awdiv@dividend,w
  9492     1506                     u5355:
  9493     1506  1C03               	skipc
  9494     1507  2D09               	goto	u5351
  9495     1508  2D0A               	goto	u5350
  9496     1509                     u5351:
  9497     1509  2D11               	goto	l4592
  9498     150A                     u5350:
  9499     150A                     l4588:
  9500     150A  0872               	movf	___awdiv@divisor,w
  9501     150B  02F4               	subwf	___awdiv@dividend,f
  9502     150C  0873               	movf	___awdiv@divisor+1,w
  9503     150D  1C03               	skipc
  9504     150E  03F5               	decf	___awdiv@dividend+1,f
  9505     150F  02F5               	subwf	___awdiv@dividend+1,f
  9506     1510                     l4590:
  9507     1510  1422               	bsf	___awdiv@quotient,0
  9508     1511                     l4592:
  9509     1511  3001               	movlw	1
  9510     1512                     u5365:
  9511     1512  1003               	clrc
  9512     1513  0CF3               	rrf	___awdiv@divisor+1,f
  9513     1514  0CF2               	rrf	___awdiv@divisor,f
  9514     1515  3EFF               	addlw	-1
  9515     1516  1D03               	skipz
  9516     1517  2D12               	goto	u5365
  9517     1518                     l4594:
  9518     1518  3001               	movlw	1
  9519     1519  02A0               	subwf	___awdiv@counter,f
  9520     151A  1D03               	btfss	3,2
  9521     151B  2D1D               	goto	u5371
  9522     151C  2D1E               	goto	u5370
  9523     151D                     u5371:
  9524     151D  2CF9               	goto	l4586
  9525     151E                     u5370:
  9526     151E                     l4596:
  9527     151E  0821               	movf	___awdiv@sign,w
  9528     151F  1903               	btfsc	3,2
  9529     1520  2D22               	goto	u5381
  9530     1521  2D23               	goto	u5380
  9531     1522                     u5381:
  9532     1522  2D28               	goto	l4600
  9533     1523                     u5380:
  9534     1523                     l4598:
  9535     1523  09A2               	comf	___awdiv@quotient,f
  9536     1524  09A3               	comf	___awdiv@quotient+1,f
  9537     1525  0AA2               	incf	___awdiv@quotient,f
  9538     1526  1903               	skipnz
  9539     1527  0AA3               	incf	___awdiv@quotient+1,f
  9540     1528                     l4600:
  9541     1528  0823               	movf	___awdiv@quotient+1,w
  9542     1529  00F3               	movwf	?___awdiv+1
  9543     152A  0822               	movf	___awdiv@quotient,w
  9544     152B  00F2               	movwf	?___awdiv
  9545     152C                     l826:
  9546     152C  0008               	return
  9547     152D                     __end_of___awdiv:
  9548                           
  9549                           	psect	text36
  9550     1DD0                     __ptext36:	
  9551 ;; *************** function _clear_log *****************
  9552 ;; Defined at:
  9553 ;;		line 164 in file "car_black_box.c"
  9554 ;; Parameters:    Size  Location     Type
  9555 ;;		None
  9556 ;; Auto vars:     Size  Location     Type
  9557 ;;		None
  9558 ;; Return value:  Size  Location     Type
  9559 ;;                  1    wreg      void 
  9560 ;; Registers used:
  9561 ;;		wreg, fsr0l, fsr0h, status,2, status,0, btemp+1, pclath, cstack
  9562 ;; Tracked objects:
  9563 ;;		On entry : 0/0
  9564 ;;		On exit  : 0/0
  9565 ;;		Unchanged: 0/0
  9566 ;; Data sizes:     COMMON   BANK0   BANK1   BANK3   BANK2
  9567 ;;      Params:         0       0       0       0       0
  9568 ;;      Locals:         0       0       0       0       0
  9569 ;;      Temps:          0       0       0       0       0
  9570 ;;      Totals:         0       0       0       0       0
  9571 ;;Total ram usage:        0 bytes
  9572 ;; Hardware stack levels used: 1
  9573 ;; Hardware stack levels required when called: 3
  9574 ;; This function calls:
  9575 ;;		_clcd_print
  9576 ;; This function is called by:
  9577 ;;		_main
  9578 ;; This function uses a non-reentrant model
  9579 ;;
  9580                           
  9581     1DD0                     _clear_log:	
  9582                           ;psect for function _clear_log
  9583                           
  9584     1DD0                     l4952:	
  9585                           ;incstack = 0
  9586                           ; Regs used in _clear_log: [wreg-fsr0h+status,2+status,0+btemp+1+pclath+cstack]
  9587                           
  9588                           
  9589                           ;car_black_box.c: 166:     pos=-1;
  9590     1DD0  30FF               	movlw	255
  9591     1DD1  1283               	bcf	3,5	;RP0=0, select bank0
  9592     1DD2  1303               	bcf	3,6	;RP1=0, select bank0
  9593     1DD3  00D8               	movwf	_pos
  9594     1DD4  30FF               	movlw	255
  9595     1DD5  00D9               	movwf	_pos+1
  9596     1DD6                     l4954:
  9597                           
  9598                           ;car_black_box.c: 167:     clcd_print ("Logs Cleared",(0x80 + 2));
  9599     1DD6  30DB               	movlw	low (STR_23| (0+32768))
  9600     1DD7  00F6               	movwf	clcd_print@str
  9601     1DD8  3090               	movlw	high (STR_23| (0+32768))
  9602     1DD9  00F7               	movwf	clcd_print@str+1
  9603     1DDA  3082               	movlw	130
  9604     1DDB  00F8               	movwf	clcd_print@addr
  9605     1DDC  160A  158A  273C  160A  158A  	fcall	_clcd_print
  9606     1DE1                     l4956:
  9607                           
  9608                           ;car_black_box.c: 168:     clcd_print ("Successfully",(0xC0 + 2));
  9609     1DE1  30F5               	movlw	low (STR_24| (0+32768))
  9610     1DE2  00F6               	movwf	clcd_print@str
  9611     1DE3  3090               	movlw	high (STR_24| (0+32768))
  9612     1DE4  00F7               	movwf	clcd_print@str+1
  9613     1DE5  30C2               	movlw	194
  9614     1DE6  00F8               	movwf	clcd_print@addr
  9615     1DE7  160A  158A  273C  160A  158A  	fcall	_clcd_print
  9616     1DEC                     l364:
  9617     1DEC  0008               	return
  9618     1DED                     __end_of_clear_log:
  9619                           
  9620                           	psect	text37
  9621     045E                     __ptext37:	
  9622 ;; *************** function _change_password *****************
  9623 ;; Defined at:
  9624 ;;		line 412 in file "car_black_box.c"
  9625 ;; Parameters:    Size  Location     Type
  9626 ;;  key             1    wreg     unsigned char 
  9627 ;;  reset_flag      1    5[BANK0 ] unsigned char 
  9628 ;; Auto vars:     Size  Location     Type
  9629 ;;  key             1    9[BANK0 ] unsigned char 
  9630 ;; Return value:  Size  Location     Type
  9631 ;;                  1    wreg      unsigned char 
  9632 ;; Registers used:
  9633 ;;		wreg, fsr0l, fsr0h, status,2, status,0, btemp+1, pclath, cstack
  9634 ;; Tracked objects:
  9635 ;;		On entry : 0/0
  9636 ;;		On exit  : 0/0
  9637 ;;		Unchanged: 0/0
  9638 ;; Data sizes:     COMMON   BANK0   BANK1   BANK3   BANK2
  9639 ;;      Params:         0       1       0       0       0
  9640 ;;      Locals:         0       1       0       0       0
  9641 ;;      Temps:          0       3       0       0       0
  9642 ;;      Totals:         0       5       0       0       0
  9643 ;;Total ram usage:        5 bytes
  9644 ;; Hardware stack levels used: 1
  9645 ;; Hardware stack levels required when called: 5
  9646 ;; This function calls:
  9647 ;;		_clcd_print
  9648 ;;		_clcd_putch
  9649 ;;		_clcd_write
  9650 ;;		_clear_screen
  9651 ;;		_str_write_externaleeprom
  9652 ;;		_strncmp
  9653 ;; This function is called by:
  9654 ;;		_main
  9655 ;; This function uses a non-reentrant model
  9656 ;;
  9657                           
  9658     045E                     _change_password:	
  9659                           ;psect for function _change_password
  9660                           
  9661                           
  9662                           ;incstack = 0
  9663                           ; Regs used in _change_password: [wreg-fsr0h+status,2+status,0+btemp+1+pclath+cstack]
  9664                           ;change_password@key stored from wreg
  9665     045E  1283               	bcf	3,5	;RP0=0, select bank0
  9666     045F  1303               	bcf	3,6	;RP1=0, select bank0
  9667     0460  00A9               	movwf	change_password@key
  9668     0461                     l5226:
  9669                           
  9670                           ;car_black_box.c: 412: unsigned char change_password(unsigned char key,unsigned char res
      +                          et_flag);car_black_box.c: 413: {;car_black_box.c: 414:     static char new_passwd[4],re_
      +                          passwd[4];;car_black_box.c: 415:     static int once,p=0,q=0;;car_black_box.c: 416:     
      +                          if(reset_flag==0x34)
  9671     0461  3034               	movlw	52
  9672     0462  0625               	xorwf	change_password@reset_flag,w
  9673     0463  1D03               	btfss	3,2
  9674     0464  2C66               	goto	u6401
  9675     0465  2C67               	goto	u6400
  9676     0466                     u6401:
  9677     0466  2C71               	goto	l5238
  9678     0467                     u6400:
  9679     0467                     l5228:
  9680                           
  9681                           ;car_black_box.c: 417:     {;car_black_box.c: 418:         once=1;
  9682     0467  3001               	movlw	1
  9683     0468  1683               	bsf	3,5	;RP0=1, select bank1
  9684     0469  1303               	bcf	3,6	;RP1=0, select bank1
  9685     046A  00A9               	movwf	change_password@once^(0+128)
  9686     046B  3000               	movlw	0
  9687     046C  00AA               	movwf	(change_password@once^(0+128)+1)
  9688     046D                     l5230:
  9689                           
  9690                           ;car_black_box.c: 419:         new_passwd[0]='\0';
  9691     046D  01D5               	clrf	change_password@new_passwd^(0+128)
  9692     046E                     l5232:
  9693                           
  9694                           ;car_black_box.c: 420:         new_passwd[1]='\0';
  9695     046E  01D6               	clrf	(change_password@new_passwd^(0+128)+1)
  9696     046F                     l5234:
  9697                           
  9698                           ;car_black_box.c: 421:         new_passwd[2]='\0';
  9699     046F  01D7               	clrf	(change_password@new_passwd^(0+128)+2)
  9700     0470                     l5236:
  9701                           
  9702                           ;car_black_box.c: 422:         new_passwd[3]='\0';
  9703     0470  01D8               	clrf	(change_password@new_passwd^(0+128)+3)
  9704     0471                     l5238:
  9705                           
  9706                           ;car_black_box.c: 425:     if(key == 0x37 && p <4)
  9707     0471  3037               	movlw	55
  9708     0472  1283               	bcf	3,5	;RP0=0, select bank0
  9709     0473  0629               	xorwf	change_password@key,w
  9710     0474  1D03               	btfss	3,2
  9711     0475  2C77               	goto	u6411
  9712     0476  2C78               	goto	u6410
  9713     0477                     u6411:
  9714     0477  2CA1               	goto	l5248
  9715     0478                     u6410:
  9716     0478                     l5240:
  9717     0478  1683               	bsf	3,5	;RP0=1, select bank1
  9718     0479  1303               	bcf	3,6	;RP1=0, select bank1
  9719     047A  0828               	movf	(change_password@p+1)^(0+128),w
  9720     047B  3A80               	xorlw	128
  9721     047C  00FF               	movwf	btemp+1
  9722     047D  3080               	movlw	128
  9723     047E  027F               	subwf	btemp+1,w
  9724     047F  1D03               	skipz
  9725     0480  2C83               	goto	u6425
  9726     0481  3004               	movlw	4
  9727     0482  0227               	subwf	change_password@p^(0+128),w
  9728     0483                     u6425:
  9729     0483  1803               	skipnc
  9730     0484  2C86               	goto	u6421
  9731     0485  2C87               	goto	u6420
  9732     0486                     u6421:
  9733     0486  2CA1               	goto	l5248
  9734     0487                     u6420:
  9735     0487                     l5242:
  9736                           
  9737                           ;car_black_box.c: 426:     {;car_black_box.c: 427:         new_passwd[p]='1';
  9738     0487  1683               	bsf	3,5	;RP0=1, select bank1
  9739     0488  1303               	bcf	3,6	;RP1=0, select bank1
  9740     0489  0827               	movf	change_password@p^(0+128),w
  9741     048A  3ED5               	addlw	(low (change_password@new_passwd| 0))& (0+255)
  9742     048B  0084               	movwf	4
  9743     048C  3031               	movlw	49
  9744     048D  1383               	bcf	3,7	;select IRP bank1
  9745     048E  0080               	movwf	0
  9746     048F                     l5244:
  9747                           
  9748                           ;car_black_box.c: 428:         p++;
  9749     048F  3001               	movlw	1
  9750     0490  07A7               	addwf	change_password@p^(0+128),f
  9751     0491  1803               	skipnc
  9752     0492  0AA8               	incf	(change_password@p+1)^(0+128),f
  9753     0493  3000               	movlw	0
  9754     0494  07A8               	addwf	(change_password@p+1)^(0+128),f
  9755     0495                     l5246:
  9756                           
  9757                           ;car_black_box.c: 429:         clcd_putch('*',(0xC0 + p+4));
  9758     0495  0827               	movf	change_password@p^(0+128),w
  9759     0496  3EC4               	addlw	196
  9760     0497  1283               	bcf	3,5	;RP0=0, select bank0
  9761     0498  1303               	bcf	3,6	;RP1=0, select bank0
  9762     0499  00A4               	movwf	clcd_putch@addr
  9763     049A  302A               	movlw	42
  9764     049B  160A  158A  25AA  120A  118A  	fcall	_clcd_putch
  9765                           
  9766                           ;car_black_box.c: 430:     }
  9767     04A0  2CD1               	goto	l5258
  9768     04A1                     l5248:
  9769     04A1  302F               	movlw	47
  9770     04A2  1283               	bcf	3,5	;RP0=0, select bank0
  9771     04A3  1303               	bcf	3,6	;RP1=0, select bank0
  9772     04A4  0629               	xorwf	change_password@key,w
  9773     04A5  1D03               	btfss	3,2
  9774     04A6  2CA8               	goto	u6431
  9775     04A7  2CA9               	goto	u6430
  9776     04A8                     u6431:
  9777     04A8  2CD1               	goto	l5258
  9778     04A9                     u6430:
  9779     04A9                     l5250:
  9780     04A9  1683               	bsf	3,5	;RP0=1, select bank1
  9781     04AA  1303               	bcf	3,6	;RP1=0, select bank1
  9782     04AB  0828               	movf	(change_password@p+1)^(0+128),w
  9783     04AC  3A80               	xorlw	128
  9784     04AD  00FF               	movwf	btemp+1
  9785     04AE  3080               	movlw	128
  9786     04AF  027F               	subwf	btemp+1,w
  9787     04B0  1D03               	skipz
  9788     04B1  2CB4               	goto	u6445
  9789     04B2  3004               	movlw	4
  9790     04B3  0227               	subwf	change_password@p^(0+128),w
  9791     04B4                     u6445:
  9792     04B4  1803               	skipnc
  9793     04B5  2CB7               	goto	u6441
  9794     04B6  2CB8               	goto	u6440
  9795     04B7                     u6441:
  9796     04B7  2CD1               	goto	l5258
  9797     04B8                     u6440:
  9798     04B8                     l5252:
  9799                           
  9800                           ;car_black_box.c: 432:     {;car_black_box.c: 433:         new_passwd[p]='0';
  9801     04B8  1683               	bsf	3,5	;RP0=1, select bank1
  9802     04B9  1303               	bcf	3,6	;RP1=0, select bank1
  9803     04BA  0827               	movf	change_password@p^(0+128),w
  9804     04BB  3ED5               	addlw	(low (change_password@new_passwd| 0))& (0+255)
  9805     04BC  0084               	movwf	4
  9806     04BD  3030               	movlw	48
  9807     04BE  1383               	bcf	3,7	;select IRP bank1
  9808     04BF  0080               	movwf	0
  9809     04C0                     l5254:
  9810                           
  9811                           ;car_black_box.c: 434:         p++;
  9812     04C0  3001               	movlw	1
  9813     04C1  07A7               	addwf	change_password@p^(0+128),f
  9814     04C2  1803               	skipnc
  9815     04C3  0AA8               	incf	(change_password@p+1)^(0+128),f
  9816     04C4  3000               	movlw	0
  9817     04C5  07A8               	addwf	(change_password@p+1)^(0+128),f
  9818     04C6                     l5256:
  9819                           
  9820                           ;car_black_box.c: 435:         clcd_putch('*',(0xC0 + p+4));
  9821     04C6  0827               	movf	change_password@p^(0+128),w
  9822     04C7  3EC4               	addlw	196
  9823     04C8  1283               	bcf	3,5	;RP0=0, select bank0
  9824     04C9  1303               	bcf	3,6	;RP1=0, select bank0
  9825     04CA  00A4               	movwf	clcd_putch@addr
  9826     04CB  302A               	movlw	42
  9827     04CC  160A  158A  25AA  120A  118A  	fcall	_clcd_putch
  9828     04D1                     l5258:
  9829                           
  9830                           ;car_black_box.c: 437:     if(once==1 && p < 4)
  9831     04D1  1683               	bsf	3,5	;RP0=1, select bank1
  9832     04D2  1303               	bcf	3,6	;RP1=0, select bank1
  9833     04D3  0329               	decf	change_password@once^(0+128),w
  9834     04D4  042A               	iorwf	(change_password@once+1)^(0+128),w
  9835     04D5  1D03               	btfss	3,2
  9836     04D6  2CD8               	goto	u6451
  9837     04D7  2CD9               	goto	u6450
  9838     04D8                     u6451:
  9839     04D8  2D10               	goto	l5274
  9840     04D9                     u6450:
  9841     04D9                     l5260:
  9842     04D9  0828               	movf	(change_password@p+1)^(0+128),w
  9843     04DA  3A80               	xorlw	128
  9844     04DB  00FF               	movwf	btemp+1
  9845     04DC  3080               	movlw	128
  9846     04DD  027F               	subwf	btemp+1,w
  9847     04DE  1D03               	skipz
  9848     04DF  2CE2               	goto	u6465
  9849     04E0  3004               	movlw	4
  9850     04E1  0227               	subwf	change_password@p^(0+128),w
  9851     04E2                     u6465:
  9852     04E2  1803               	skipnc
  9853     04E3  2CE5               	goto	u6461
  9854     04E4  2CE6               	goto	u6460
  9855     04E5                     u6461:
  9856     04E5  2D10               	goto	l5274
  9857     04E6                     u6460:
  9858     04E6                     l5262:
  9859                           
  9860                           ;car_black_box.c: 438:     {;car_black_box.c: 439:         once=0;
  9861     04E6  1683               	bsf	3,5	;RP0=1, select bank1
  9862     04E7  1303               	bcf	3,6	;RP1=0, select bank1
  9863     04E8  01A9               	clrf	change_password@once^(0+128)
  9864     04E9  01AA               	clrf	(change_password@once+1)^(0+128)
  9865     04EA                     l5264:
  9866                           
  9867                           ;car_black_box.c: 441:         clear_screen();
  9868     04EA  160A  158A  2575  120A  118A  	fcall	_clear_screen
  9869     04EF                     l5266:
  9870                           
  9871                           ;car_black_box.c: 442:         clcd_print ("Enter new Passwd",(0x80 + 0));
  9872     04EF  3034               	movlw	low (STR_32| (0+32768))
  9873     04F0  00F6               	movwf	clcd_print@str
  9874     04F1  3090               	movlw	high (STR_32| (0+32768))
  9875     04F2  00F7               	movwf	clcd_print@str+1
  9876     04F3  3080               	movlw	128
  9877     04F4  00F8               	movwf	clcd_print@addr
  9878     04F5  160A  158A  273C  120A  118A  	fcall	_clcd_print
  9879     04FA                     l5268:
  9880                           
  9881                           ;car_black_box.c: 443:         clcd_write((0xC0 + 4), 0);
  9882     04FA  01F2               	clrf	clcd_write@mode
  9883     04FB  30C4               	movlw	196
  9884     04FC  160A  118A  21B5  120A  118A  	fcall	_clcd_write
  9885     0501                     l5270:
  9886                           
  9887                           ;car_black_box.c: 444:         clcd_write(0x0F,0);
  9888     0501  01F2               	clrf	clcd_write@mode
  9889     0502  300F               	movlw	15
  9890     0503  160A  118A  21B5  120A  118A  	fcall	_clcd_write
  9891     0508                     l5272:
  9892                           
  9893                           ;car_black_box.c: 445:         _delay((unsigned long)((100)*(20000000/4000000.0)));
  9894     0508  30A5               	movlw	165
  9895     0509  1283               	bcf	3,5	;RP0=0, select bank0
  9896     050A  1303               	bcf	3,6	;RP1=0, select bank0
  9897     050B  00A6               	movwf	??_change_password
  9898     050C                     u7907:
  9899     050C  0BA6               	decfsz	??_change_password,f
  9900     050D  2D0C               	goto	u7907
  9901     050E  2D0F               	nop2
  9902                           
  9903                           ;car_black_box.c: 446:     }
  9904     050F  2D47               	goto	l5288
  9905     0510                     l5274:
  9906     0510  3004               	movlw	4
  9907     0511  1683               	bsf	3,5	;RP0=1, select bank1
  9908     0512  1303               	bcf	3,6	;RP1=0, select bank1
  9909     0513  0627               	xorwf	change_password@p^(0+128),w
  9910     0514  0428               	iorwf	(change_password@p+1)^(0+128),w
  9911     0515  1D03               	btfss	3,2
  9912     0516  2D18               	goto	u6471
  9913     0517  2D19               	goto	u6470
  9914     0518                     u6471:
  9915     0518  2D47               	goto	l5288
  9916     0519                     u6470:
  9917     0519                     l5276:
  9918     0519  0829               	movf	change_password@once^(0+128),w
  9919     051A  042A               	iorwf	(change_password@once+1)^(0+128),w
  9920     051B  1D03               	btfss	3,2
  9921     051C  2D1E               	goto	u6481
  9922     051D  2D1F               	goto	u6480
  9923     051E                     u6481:
  9924     051E  2D47               	goto	l5288
  9925     051F                     u6480:
  9926     051F                     l5278:
  9927                           
  9928                           ;car_black_box.c: 448:     {;car_black_box.c: 449:         key=0x3F;
  9929     051F  303F               	movlw	63
  9930     0520  1283               	bcf	3,5	;RP0=0, select bank0
  9931     0521  1303               	bcf	3,6	;RP1=0, select bank0
  9932     0522  00A9               	movwf	change_password@key
  9933     0523                     l5280:
  9934                           
  9935                           ;car_black_box.c: 450:         once=2;
  9936     0523  3002               	movlw	2
  9937     0524  1683               	bsf	3,5	;RP0=1, select bank1
  9938     0525  1303               	bcf	3,6	;RP1=0, select bank1
  9939     0526  00A9               	movwf	change_password@once^(0+128)
  9940     0527  3000               	movlw	0
  9941     0528  00AA               	movwf	(change_password@once^(0+128)+1)
  9942     0529                     l5282:
  9943                           
  9944                           ;car_black_box.c: 451:         clear_screen();
  9945     0529  160A  158A  2575  120A  118A  	fcall	_clear_screen
  9946     052E                     l5284:
  9947                           
  9948                           ;car_black_box.c: 452:         clcd_write(0x0F, 0);
  9949     052E  01F2               	clrf	clcd_write@mode
  9950     052F  300F               	movlw	15
  9951     0530  160A  118A  21B5  120A  118A  	fcall	_clcd_write
  9952                           
  9953                           ;car_black_box.c: 453:         _delay((unsigned long)((100)*(20000000/4000000.0)));
  9954     0535  30A5               	movlw	165
  9955     0536  1283               	bcf	3,5	;RP0=0, select bank0
  9956     0537  1303               	bcf	3,6	;RP1=0, select bank0
  9957     0538  00A6               	movwf	??_change_password
  9958     0539                     u7917:
  9959     0539  0BA6               	decfsz	??_change_password,f
  9960     053A  2D39               	goto	u7917
  9961     053B  2D3C               	nop2
  9962     053C                     l5286:
  9963                           
  9964                           ;car_black_box.c: 454:         clcd_print ("Re Enter new Pas",(0x80 + 0));
  9965     053C  3045               	movlw	low (STR_33| (0+32768))
  9966     053D  00F6               	movwf	clcd_print@str
  9967     053E  3090               	movlw	high (STR_33| (0+32768))
  9968     053F  00F7               	movwf	clcd_print@str+1
  9969     0540  3080               	movlw	128
  9970     0541  00F8               	movwf	clcd_print@addr
  9971     0542  160A  158A  273C  120A  118A  	fcall	_clcd_print
  9972     0547                     l5288:
  9973                           
  9974                           ;car_black_box.c: 456:     if(key == 0x37 && q <4 && once==2)
  9975     0547  3037               	movlw	55
  9976     0548  1283               	bcf	3,5	;RP0=0, select bank0
  9977     0549  1303               	bcf	3,6	;RP1=0, select bank0
  9978     054A  0629               	xorwf	change_password@key,w
  9979     054B  1D03               	btfss	3,2
  9980     054C  2D4E               	goto	u6491
  9981     054D  2D4F               	goto	u6490
  9982     054E                     u6491:
  9983     054E  2D7F               	goto	l5300
  9984     054F                     u6490:
  9985     054F                     l5290:
  9986     054F  1683               	bsf	3,5	;RP0=1, select bank1
  9987     0550  1303               	bcf	3,6	;RP1=0, select bank1
  9988     0551  0826               	movf	(change_password@q+1)^(0+128),w
  9989     0552  3A80               	xorlw	128
  9990     0553  00FF               	movwf	btemp+1
  9991     0554  3080               	movlw	128
  9992     0555  027F               	subwf	btemp+1,w
  9993     0556  1D03               	skipz
  9994     0557  2D5A               	goto	u6505
  9995     0558  3004               	movlw	4
  9996     0559  0225               	subwf	change_password@q^(0+128),w
  9997     055A                     u6505:
  9998     055A  1803               	skipnc
  9999     055B  2D5D               	goto	u6501
 10000     055C  2D5E               	goto	u6500
 10001     055D                     u6501:
 10002     055D  2D7F               	goto	l5300
 10003     055E                     u6500:
 10004     055E                     l5292:
 10005     055E  3002               	movlw	2
 10006     055F  1683               	bsf	3,5	;RP0=1, select bank1
 10007     0560  1303               	bcf	3,6	;RP1=0, select bank1
 10008     0561  0629               	xorwf	change_password@once^(0+128),w
 10009     0562  042A               	iorwf	(change_password@once+1)^(0+128),w
 10010     0563  1D03               	btfss	3,2
 10011     0564  2D66               	goto	u6511
 10012     0565  2D67               	goto	u6510
 10013     0566                     u6511:
 10014     0566  2D7F               	goto	l5300
 10015     0567                     u6510:
 10016     0567                     l5294:
 10017                           
 10018                           ;car_black_box.c: 457:     {;car_black_box.c: 458:         re_passwd[q]='1';
 10019     0567  0825               	movf	change_password@q^(0+128),w
 10020     0568  3ED1               	addlw	(low (change_password@re_passwd| 0))& (0+255)
 10021     0569  0084               	movwf	4
 10022     056A  3031               	movlw	49
 10023     056B  1383               	bcf	3,7	;select IRP bank1
 10024     056C  0080               	movwf	0
 10025     056D                     l5296:
 10026                           
 10027                           ;car_black_box.c: 459:         q++;
 10028     056D  3001               	movlw	1
 10029     056E  07A5               	addwf	change_password@q^(0+128),f
 10030     056F  1803               	skipnc
 10031     0570  0AA6               	incf	(change_password@q+1)^(0+128),f
 10032     0571  3000               	movlw	0
 10033     0572  07A6               	addwf	(change_password@q+1)^(0+128),f
 10034     0573                     l5298:
 10035                           
 10036                           ;car_black_box.c: 460:         clcd_putch('*',(0xC0 + q+4));
 10037     0573  0825               	movf	change_password@q^(0+128),w
 10038     0574  3EC4               	addlw	196
 10039     0575  1283               	bcf	3,5	;RP0=0, select bank0
 10040     0576  1303               	bcf	3,6	;RP1=0, select bank0
 10041     0577  00A4               	movwf	clcd_putch@addr
 10042     0578  302A               	movlw	42
 10043     0579  160A  158A  25AA  120A  118A  	fcall	_clcd_putch
 10044                           
 10045                           ;car_black_box.c: 461:     }
 10046     057E  2DB6               	goto	l5312
 10047     057F                     l5300:
 10048     057F  302F               	movlw	47
 10049     0580  1283               	bcf	3,5	;RP0=0, select bank0
 10050     0581  1303               	bcf	3,6	;RP1=0, select bank0
 10051     0582  0629               	xorwf	change_password@key,w
 10052     0583  1D03               	btfss	3,2
 10053     0584  2D86               	goto	u6521
 10054     0585  2D87               	goto	u6520
 10055     0586                     u6521:
 10056     0586  2DB6               	goto	l5312
 10057     0587                     u6520:
 10058     0587                     l5302:
 10059     0587  1683               	bsf	3,5	;RP0=1, select bank1
 10060     0588  1303               	bcf	3,6	;RP1=0, select bank1
 10061     0589  0826               	movf	(change_password@q+1)^(0+128),w
 10062     058A  3A80               	xorlw	128
 10063     058B  00FF               	movwf	btemp+1
 10064     058C  3080               	movlw	128
 10065     058D  027F               	subwf	btemp+1,w
 10066     058E  1D03               	skipz
 10067     058F  2D92               	goto	u6535
 10068     0590  3004               	movlw	4
 10069     0591  0225               	subwf	change_password@q^(0+128),w
 10070     0592                     u6535:
 10071     0592  1803               	skipnc
 10072     0593  2D95               	goto	u6531
 10073     0594  2D96               	goto	u6530
 10074     0595                     u6531:
 10075     0595  2DB6               	goto	l5312
 10076     0596                     u6530:
 10077     0596                     l5304:
 10078     0596  3002               	movlw	2
 10079     0597  1683               	bsf	3,5	;RP0=1, select bank1
 10080     0598  1303               	bcf	3,6	;RP1=0, select bank1
 10081     0599  0629               	xorwf	change_password@once^(0+128),w
 10082     059A  042A               	iorwf	(change_password@once+1)^(0+128),w
 10083     059B  1D03               	btfss	3,2
 10084     059C  2D9E               	goto	u6541
 10085     059D  2D9F               	goto	u6540
 10086     059E                     u6541:
 10087     059E  2DB6               	goto	l5312
 10088     059F                     u6540:
 10089     059F                     l5306:
 10090                           
 10091                           ;car_black_box.c: 463:     {;car_black_box.c: 464:         re_passwd[q]='0';
 10092     059F  0825               	movf	change_password@q^(0+128),w
 10093     05A0  3ED1               	addlw	(low (change_password@re_passwd| 0))& (0+255)
 10094     05A1  0084               	movwf	4
 10095     05A2  3030               	movlw	48
 10096     05A3  1383               	bcf	3,7	;select IRP bank1
 10097     05A4  0080               	movwf	0
 10098     05A5                     l5308:
 10099                           
 10100                           ;car_black_box.c: 465:         q++;
 10101     05A5  3001               	movlw	1
 10102     05A6  07A5               	addwf	change_password@q^(0+128),f
 10103     05A7  1803               	skipnc
 10104     05A8  0AA6               	incf	(change_password@q+1)^(0+128),f
 10105     05A9  3000               	movlw	0
 10106     05AA  07A6               	addwf	(change_password@q+1)^(0+128),f
 10107     05AB                     l5310:
 10108                           
 10109                           ;car_black_box.c: 466:         clcd_putch('*',(0xC0 + q+4));
 10110     05AB  0825               	movf	change_password@q^(0+128),w
 10111     05AC  3EC4               	addlw	196
 10112     05AD  1283               	bcf	3,5	;RP0=0, select bank0
 10113     05AE  1303               	bcf	3,6	;RP1=0, select bank0
 10114     05AF  00A4               	movwf	clcd_putch@addr
 10115     05B0  302A               	movlw	42
 10116     05B1  160A  158A  25AA  120A  118A  	fcall	_clcd_putch
 10117     05B6                     l5312:
 10118                           
 10119                           ;car_black_box.c: 468:     if(q == 4)
 10120     05B6  3004               	movlw	4
 10121     05B7  1683               	bsf	3,5	;RP0=1, select bank1
 10122     05B8  1303               	bcf	3,6	;RP1=0, select bank1
 10123     05B9  0625               	xorwf	change_password@q^(0+128),w
 10124     05BA  0426               	iorwf	(change_password@q+1)^(0+128),w
 10125     05BB  1D03               	btfss	3,2
 10126     05BC  2DBE               	goto	u6551
 10127     05BD  2DBF               	goto	u6550
 10128     05BE                     u6551:
 10129     05BE  2E47               	goto	l5348
 10130     05BF                     u6550:
 10131     05BF                     l5314:
 10132                           
 10133                           ;car_black_box.c: 469:     {;car_black_box.c: 470:         p=0,q=0;
 10134     05BF  01A7               	clrf	change_password@p^(0+128)
 10135     05C0  01A8               	clrf	(change_password@p+1)^(0+128)
 10136     05C1  01A5               	clrf	change_password@q^(0+128)
 10137     05C2  01A6               	clrf	(change_password@q+1)^(0+128)
 10138     05C3                     l5316:
 10139                           
 10140                           ;car_black_box.c: 471:         if(strncmp(re_passwd,new_passwd,4)==0)
 10141     05C3  30D1               	movlw	(low (change_password@re_passwd| 0))& (0+255)
 10142     05C4  00F2               	movwf	strncmp@l
 10143     05C5  30D5               	movlw	(low (change_password@new_passwd| 0))& (0+255)
 10144     05C6  00F3               	movwf	strncmp@r
 10145     05C7  3004               	movlw	4
 10146     05C8  00F4               	movwf	strncmp@n
 10147     05C9  3000               	movlw	0
 10148     05CA  00F5               	movwf	strncmp@n+1
 10149     05CB  160A  118A  2266  120A  118A  	fcall	_strncmp
 10150     05D0  0872               	movf	?_strncmp,w
 10151     05D1  0473               	iorwf	?_strncmp+1,w
 10152     05D2  1D03               	btfss	3,2
 10153     05D3  2DD5               	goto	u6561
 10154     05D4  2DD6               	goto	u6560
 10155     05D5                     u6561:
 10156     05D5  2E19               	goto	l5336
 10157     05D6                     u6560:
 10158     05D6                     l5318:
 10159                           
 10160                           ;car_black_box.c: 472:         {;car_black_box.c: 473:             clear_screen();
 10161     05D6  160A  158A  2575  120A  118A  	fcall	_clear_screen
 10162                           
 10163                           ;car_black_box.c: 474:             clcd_write(0x0C, 0);
 10164     05DB  01F2               	clrf	clcd_write@mode
 10165     05DC  300C               	movlw	12
 10166     05DD  160A  118A  21B5  120A  118A  	fcall	_clcd_write
 10167     05E2                     l5320:
 10168                           
 10169                           ;car_black_box.c: 475:             _delay((unsigned long)((100)*(20000000/4000000.0)));
 10170     05E2  30A5               	movlw	165
 10171     05E3  1283               	bcf	3,5	;RP0=0, select bank0
 10172     05E4  1303               	bcf	3,6	;RP1=0, select bank0
 10173     05E5  00A6               	movwf	??_change_password
 10174     05E6                     u7927:
 10175     05E6  0BA6               	decfsz	??_change_password,f
 10176     05E7  2DE6               	goto	u7927
 10177     05E8  2DE9               	nop2
 10178     05E9                     l5322:
 10179                           
 10180                           ;car_black_box.c: 476:             str_write_externaleeprom(0x00,new_passwd);
 10181     05E9  30D5               	movlw	(low (change_password@new_passwd| 0))& (0+255)
 10182     05EA  00F5               	movwf	str_write_externaleeprom@data
 10183     05EB  3000               	movlw	0
 10184     05EC  00F6               	movwf	str_write_externaleeprom@data+1
 10185     05ED  3000               	movlw	0
 10186     05EE  160A  158A  26BB  120A  118A  	fcall	_str_write_externaleeprom
 10187     05F3                     l5324:
 10188                           
 10189                           ;car_black_box.c: 477:             clcd_print ("Password Changed",(0x80 + 0));
 10190     05F3  3023               	movlw	low (STR_34| (0+32768))
 10191     05F4  00F6               	movwf	clcd_print@str
 10192     05F5  3090               	movlw	high (STR_34| (0+32768))
 10193     05F6  00F7               	movwf	clcd_print@str+1
 10194     05F7  3080               	movlw	128
 10195     05F8  00F8               	movwf	clcd_print@addr
 10196     05F9  160A  158A  273C  120A  118A  	fcall	_clcd_print
 10197     05FE                     l5326:
 10198                           
 10199                           ;car_black_box.c: 478:             clcd_print ("Successfully",(0xC0 + 2));
 10200     05FE  30F5               	movlw	low (STR_24| (0+32768))
 10201     05FF  00F6               	movwf	clcd_print@str
 10202     0600  3090               	movlw	high (STR_24| (0+32768))
 10203     0601  00F7               	movwf	clcd_print@str+1
 10204     0602  30C2               	movlw	194
 10205     0603  00F8               	movwf	clcd_print@addr
 10206     0604  160A  158A  273C  120A  118A  	fcall	_clcd_print
 10207     0609                     l5328:
 10208                           
 10209                           ;car_black_box.c: 479:             _delay((unsigned long)((2000)*(20000000/4000.0)));
 10210     0609  3033               	movlw	51
 10211     060A  1283               	bcf	3,5	;RP0=0, select bank0
 10212     060B  1303               	bcf	3,6	;RP1=0, select bank0
 10213     060C  00A8               	movwf	??_change_password+2
 10214     060D  30BB               	movlw	187
 10215     060E  00A7               	movwf	??_change_password+1
 10216     060F  30DF               	movlw	223
 10217     0610  00A6               	movwf	??_change_password
 10218     0611                     u7937:
 10219     0611  0BA6               	decfsz	??_change_password,f
 10220     0612  2E11               	goto	u7937
 10221     0613  0BA7               	decfsz	??_change_password+1,f
 10222     0614  2E11               	goto	u7937
 10223     0615  0BA8               	decfsz	??_change_password+2,f
 10224     0616  2E11               	goto	u7937
 10225     0617                     l5330:
 10226                           
 10227                           ;car_black_box.c: 480:             return 0x33;
 10228     0617  3033               	movlw	51
 10229     0618  2E48               	goto	l464
 10230     0619                     l5336:
 10231                           
 10232                           ;car_black_box.c: 483:         {;car_black_box.c: 484:             clear_screen();
 10233     0619  160A  158A  2575  120A  118A  	fcall	_clear_screen
 10234                           
 10235                           ;car_black_box.c: 485:             clcd_write(0x0C, 0);
 10236     061E  01F2               	clrf	clcd_write@mode
 10237     061F  300C               	movlw	12
 10238     0620  160A  118A  21B5  120A  118A  	fcall	_clcd_write
 10239     0625                     l5338:
 10240                           
 10241                           ;car_black_box.c: 486:              _delay((unsigned long)((100)*(20000000/4000000.0)));
 10242     0625  30A5               	movlw	165
 10243     0626  1283               	bcf	3,5	;RP0=0, select bank0
 10244     0627  1303               	bcf	3,6	;RP1=0, select bank0
 10245     0628  00A6               	movwf	??_change_password
 10246     0629                     u7947:
 10247     0629  0BA6               	decfsz	??_change_password,f
 10248     062A  2E29               	goto	u7947
 10249     062B  2E2C               	nop2
 10250     062C                     l5340:
 10251                           
 10252                           ;car_black_box.c: 487:             clcd_print ("Password Mismatch",(0x80 + 0));
 10253     062C  3000               	movlw	low (STR_36| (0+32768))
 10254     062D  00F6               	movwf	clcd_print@str
 10255     062E  3090               	movlw	high (STR_36| (0+32768))
 10256     062F  00F7               	movwf	clcd_print@str+1
 10257     0630  3080               	movlw	128
 10258     0631  00F8               	movwf	clcd_print@addr
 10259     0632  160A  158A  273C  120A  118A  	fcall	_clcd_print
 10260     0637                     l5342:
 10261                           
 10262                           ;car_black_box.c: 488:              _delay((unsigned long)((1500)*(20000000/4000.0)));
 10263     0637  3027               	movlw	39
 10264     0638  1283               	bcf	3,5	;RP0=0, select bank0
 10265     0639  1303               	bcf	3,6	;RP1=0, select bank0
 10266     063A  00A8               	movwf	??_change_password+2
 10267     063B  300D               	movlw	13
 10268     063C  00A7               	movwf	??_change_password+1
 10269     063D  3025               	movlw	37
 10270     063E  00A6               	movwf	??_change_password
 10271     063F                     u7957:
 10272     063F  0BA6               	decfsz	??_change_password,f
 10273     0640  2E3F               	goto	u7957
 10274     0641  0BA7               	decfsz	??_change_password+1,f
 10275     0642  2E3F               	goto	u7957
 10276     0643  0BA8               	decfsz	??_change_password+2,f
 10277     0644  2E3F               	goto	u7957
 10278     0645  2E46               	nop2
 10279     0646  2E17               	goto	l5330
 10280     0647                     l5348:
 10281                           
 10282                           ;car_black_box.c: 492:     return 0x30;
 10283     0647  3030               	movlw	48
 10284     0648                     l464:
 10285     0648  0008               	return
 10286     0649                     __end_of_change_password:
 10287                           
 10288                           	psect	text38
 10289     1266                     __ptext38:	
 10290 ;; *************** function _strncmp *****************
 10291 ;; Defined at:
 10292 ;;		line 3 in file "C:\Program Files\Microchip\xc8\v2.50\pic\sources\c99\common\strncmp.c"
 10293 ;; Parameters:    Size  Location     Type
 10294 ;;  l               1    2[COMMON] PTR const unsigned char 
 10295 ;;		 -> login_screen@user_passwd(4), change_password@re_passwd(4), 
 10296 ;;  r               1    3[COMMON] PTR const unsigned char 
 10297 ;;		 -> login_screen@spasswd(4), change_password@new_passwd(4), 
 10298 ;;  n               2    4[COMMON] unsigned int 
 10299 ;; Auto vars:     Size  Location     Type
 10300 ;;		None
 10301 ;; Return value:  Size  Location     Type
 10302 ;;                  2    2[COMMON] int 
 10303 ;; Registers used:
 10304 ;;		wreg, fsr0l, fsr0h, status,2, status,0
 10305 ;; Tracked objects:
 10306 ;;		On entry : 0/0
 10307 ;;		On exit  : 0/0
 10308 ;;		Unchanged: 0/0
 10309 ;; Data sizes:     COMMON   BANK0   BANK1   BANK3   BANK2
 10310 ;;      Params:         4       0       0       0       0
 10311 ;;      Locals:         0       0       0       0       0
 10312 ;;      Temps:          2       0       0       0       0
 10313 ;;      Totals:         6       0       0       0       0
 10314 ;;Total ram usage:        6 bytes
 10315 ;; Hardware stack levels used: 1
 10316 ;; Hardware stack levels required when called: 1
 10317 ;; This function calls:
 10318 ;;		Nothing
 10319 ;; This function is called by:
 10320 ;;		_change_password
 10321 ;;		_login_screen
 10322 ;; This function uses a non-reentrant model
 10323 ;;
 10324                           
 10325     1266                     _strncmp:	
 10326                           ;psect for function _strncmp
 10327                           
 10328     1266                     l4496:	
 10329                           ;incstack = 0
 10330                           ; Regs used in _strncmp: [wreg-fsr0h+status,2+status,0]
 10331                           
 10332     1266  3001               	movlw	1
 10333     1267  02F4               	subwf	strncmp@n,f
 10334     1268  3000               	movlw	0
 10335     1269  1C03               	skipc
 10336     126A  03F5               	decf	strncmp@n+1,f
 10337     126B  02F5               	subwf	strncmp@n+1,f
 10338     126C  0A74               	incf	strncmp@n,w
 10339     126D  1D03               	skipz
 10340     126E  2A73               	goto	u5161
 10341     126F  0A75               	incf	strncmp@n+1,w
 10342     1270  1D03               	btfss	3,2
 10343     1271  2A73               	goto	u5161
 10344     1272  2A74               	goto	u5160
 10345     1273                     u5161:
 10346     1273  2A81               	goto	l4506
 10347     1274                     u5160:
 10348     1274                     l4498:
 10349     1274  01F2               	clrf	?_strncmp
 10350     1275  01F3               	clrf	?_strncmp+1
 10351     1276  2AB0               	goto	l1139
 10352     1277                     l4502:
 10353     1277  3001               	movlw	1
 10354     1278  07F2               	addwf	strncmp@l,f
 10355     1279  3001               	movlw	1
 10356     127A  07F3               	addwf	strncmp@r,f
 10357     127B                     l4504:
 10358     127B  3001               	movlw	1
 10359     127C  02F4               	subwf	strncmp@n,f
 10360     127D  3000               	movlw	0
 10361     127E  1C03               	skipc
 10362     127F  03F5               	decf	strncmp@n+1,f
 10363     1280  02F5               	subwf	strncmp@n+1,f
 10364     1281                     l4506:
 10365     1281  0872               	movf	strncmp@l,w
 10366     1282  0084               	movwf	4
 10367     1283  1383               	bcf	3,7	;select IRP bank0
 10368     1284  0800               	movf	0,w
 10369     1285  1903               	btfsc	3,2
 10370     1286  2A88               	goto	u5171
 10371     1287  2A89               	goto	u5170
 10372     1288                     u5171:
 10373     1288  2AA2               	goto	l4514
 10374     1289                     u5170:
 10375     1289                     l4508:
 10376     1289  0873               	movf	strncmp@r,w
 10377     128A  0084               	movwf	4
 10378     128B  0800               	movf	0,w
 10379     128C  1903               	btfsc	3,2
 10380     128D  2A8F               	goto	u5181
 10381     128E  2A90               	goto	u5180
 10382     128F                     u5181:
 10383     128F  2AA2               	goto	l4514
 10384     1290                     u5180:
 10385     1290                     l4510:
 10386     1290  0874               	movf	strncmp@n,w
 10387     1291  0475               	iorwf	strncmp@n+1,w
 10388     1292  1903               	btfsc	3,2
 10389     1293  2A95               	goto	u5191
 10390     1294  2A96               	goto	u5190
 10391     1295                     u5191:
 10392     1295  2AA2               	goto	l4514
 10393     1296                     u5190:
 10394     1296                     l4512:
 10395     1296  0873               	movf	strncmp@r,w
 10396     1297  0084               	movwf	4
 10397     1298  0800               	movf	0,w
 10398     1299  00F6               	movwf	??_strncmp
 10399     129A  0872               	movf	strncmp@l,w
 10400     129B  0084               	movwf	4
 10401     129C  0800               	movf	0,w
 10402     129D  0676               	xorwf	??_strncmp,w
 10403     129E  1903               	skipnz
 10404     129F  2AA1               	goto	u5201
 10405     12A0  2AA2               	goto	u5200
 10406     12A1                     u5201:
 10407     12A1  2A77               	goto	l4502
 10408     12A2                     u5200:
 10409     12A2                     l4514:
 10410     12A2  0873               	movf	strncmp@r,w
 10411     12A3  0084               	movwf	4
 10412     12A4  0800               	movf	0,w
 10413     12A5  00F6               	movwf	??_strncmp
 10414     12A6  0872               	movf	strncmp@l,w
 10415     12A7  0084               	movwf	4
 10416     12A8  0800               	movf	0,w
 10417     12A9  00F7               	movwf	??_strncmp+1
 10418     12AA  0876               	movf	??_strncmp,w
 10419     12AB  0277               	subwf	??_strncmp+1,w
 10420     12AC  00F2               	movwf	?_strncmp
 10421     12AD  01F3               	clrf	?_strncmp+1
 10422     12AE  1C03               	skipc
 10423     12AF  03F3               	decf	?_strncmp+1,f
 10424     12B0                     l1139:
 10425     12B0  0008               	return
 10426     12B1                     __end_of_strncmp:
 10427                           
 10428                           	psect	text39
 10429     1EBB                     __ptext39:	
 10430 ;; *************** function _str_write_externaleeprom *****************
 10431 ;; Defined at:
 10432 ;;		line 35 in file "ExternalEEPROM.c"
 10433 ;; Parameters:    Size  Location     Type
 10434 ;;  addr            1    wreg     unsigned char 
 10435 ;;  data            2    5[COMMON] PTR unsigned char 
 10436 ;;		 -> log(11), change_password@new_passwd(4), STR_7(5), 
 10437 ;; Auto vars:     Size  Location     Type
 10438 ;;  addr            1    7[COMMON] unsigned char 
 10439 ;; Return value:  Size  Location     Type
 10440 ;;                  1    wreg      void 
 10441 ;; Registers used:
 10442 ;;		wreg, fsr0l, fsr0h, status,2, status,0, btemp+1, pclath, cstack
 10443 ;; Tracked objects:
 10444 ;;		On entry : 0/0
 10445 ;;		On exit  : 0/0
 10446 ;;		Unchanged: 0/0
 10447 ;; Data sizes:     COMMON   BANK0   BANK1   BANK3   BANK2
 10448 ;;      Params:         2       0       0       0       0
 10449 ;;      Locals:         1       0       0       0       0
 10450 ;;      Temps:          0       0       0       0       0
 10451 ;;      Totals:         3       0       0       0       0
 10452 ;;Total ram usage:        3 bytes
 10453 ;; Hardware stack levels used: 1
 10454 ;; Hardware stack levels required when called: 4
 10455 ;; This function calls:
 10456 ;;		_write_externaleeprom
 10457 ;; This function is called by:
 10458 ;;		_main
 10459 ;;		_change_password
 10460 ;;		_log_event_eeprom
 10461 ;; This function uses a non-reentrant model
 10462 ;;
 10463                           
 10464     1EBB                     _str_write_externaleeprom:	
 10465                           ;psect for function _str_write_externaleeprom
 10466                           
 10467                           
 10468                           ;incstack = 0
 10469                           ; Regs used in _str_write_externaleeprom: [wreg-fsr0h+status,2+status,0+btemp+1+pclath+c
      +                          stack]
 10470                           ;str_write_externaleeprom@addr stored from wreg
 10471     1EBB  00F7               	movwf	str_write_externaleeprom@addr
 10472     1EBC                     l4372:
 10473                           
 10474                           ;ExternalEEPROM.c: 35: void str_write_externaleeprom(unsigned char addr, char *data);Ext
      +                          ernalEEPROM.c: 36: {;ExternalEEPROM.c: 37:     while(*data!=0)
 10475     1EBC  2ED5               	goto	l4380
 10476     1EBD                     l4374:
 10477                           
 10478                           ;ExternalEEPROM.c: 38:     {;ExternalEEPROM.c: 39:         write_externaleeprom( addr, *
      +                          data);
 10479     1EBD  0876               	movf	str_write_externaleeprom@data+1,w
 10480     1EBE  00FF               	movwf	btemp+1
 10481     1EBF  0875               	movf	str_write_externaleeprom@data,w
 10482     1EC0  0084               	movwf	4
 10483     1EC1  160A  158A  2000  160A  158A  	fcall	stringtab
 10484     1EC6  00F3               	movwf	write_externaleeprom@data
 10485     1EC7  0877               	movf	str_write_externaleeprom@addr,w
 10486     1EC8  160A  158A  25ED  160A  158A  	fcall	_write_externaleeprom
 10487     1ECD                     l4376:
 10488                           
 10489                           ;ExternalEEPROM.c: 40:         data++;
 10490     1ECD  3001               	movlw	1
 10491     1ECE  07F5               	addwf	str_write_externaleeprom@data,f
 10492     1ECF  1803               	skipnc
 10493     1ED0  0AF6               	incf	str_write_externaleeprom@data+1,f
 10494     1ED1  3000               	movlw	0
 10495     1ED2  07F6               	addwf	str_write_externaleeprom@data+1,f
 10496     1ED3                     l4378:
 10497                           
 10498                           ;ExternalEEPROM.c: 41:         addr++;
 10499     1ED3  3001               	movlw	1
 10500     1ED4  07F7               	addwf	str_write_externaleeprom@addr,f
 10501     1ED5                     l4380:
 10502                           
 10503                           ;ExternalEEPROM.c: 37:     while(*data!=0)
 10504     1ED5  0876               	movf	str_write_externaleeprom@data+1,w
 10505     1ED6  1283               	bcf	3,5	;RP0=0, select bank0
 10506     1ED7  1303               	bcf	3,6	;RP1=0, select bank0
 10507     1ED8  00FF               	movwf	btemp+1
 10508     1ED9  0875               	movf	str_write_externaleeprom@data,w
 10509     1EDA  0084               	movwf	4
 10510     1EDB  160A  158A  2000  160A  158A  	fcall	stringtab
 10511     1EE0  3A00               	xorlw	0
 10512     1EE1  1D03               	skipz
 10513     1EE2  2EE4               	goto	u4981
 10514     1EE3  2EE5               	goto	u4980
 10515     1EE4                     u4981:
 10516     1EE4  2EBD               	goto	l4374
 10517     1EE5                     u4980:
 10518     1EE5                     l521:
 10519     1EE5  0008               	return
 10520     1EE6                     __end_of_str_write_externaleeprom:
 10521                           
 10522                           	psect	text40
 10523     1DED                     __ptext40:	
 10524 ;; *************** function _write_externaleeprom *****************
 10525 ;; Defined at:
 10526 ;;		line 26 in file "ExternalEEPROM.c"
 10527 ;; Parameters:    Size  Location     Type
 10528 ;;  addr            1    wreg     unsigned char 
 10529 ;;  data            1    3[COMMON] unsigned char 
 10530 ;; Auto vars:     Size  Location     Type
 10531 ;;  addr            1    4[COMMON] unsigned char 
 10532 ;; Return value:  Size  Location     Type
 10533 ;;                  1    wreg      void 
 10534 ;; Registers used:
 10535 ;;		wreg, status,2, status,0, pclath, cstack
 10536 ;; Tracked objects:
 10537 ;;		On entry : 0/0
 10538 ;;		On exit  : 0/0
 10539 ;;		Unchanged: 0/0
 10540 ;; Data sizes:     COMMON   BANK0   BANK1   BANK3   BANK2
 10541 ;;      Params:         1       0       0       0       0
 10542 ;;      Locals:         1       0       0       0       0
 10543 ;;      Temps:          0       0       0       0       0
 10544 ;;      Totals:         2       0       0       0       0
 10545 ;;Total ram usage:        2 bytes
 10546 ;; Hardware stack levels used: 1
 10547 ;; Hardware stack levels required when called: 3
 10548 ;; This function calls:
 10549 ;;		_i2c_start
 10550 ;;		_i2c_stop
 10551 ;;		_i2c_write
 10552 ;; This function is called by:
 10553 ;;		_str_write_externaleeprom
 10554 ;; This function uses a non-reentrant model
 10555 ;;
 10556                           
 10557     1DED                     _write_externaleeprom:	
 10558                           ;psect for function _write_externaleeprom
 10559                           
 10560                           
 10561                           ;incstack = 0
 10562                           ; Regs used in _write_externaleeprom: [wreg+status,2+status,0+pclath+cstack]
 10563                           ;write_externaleeprom@addr stored from wreg
 10564     1DED  00F4               	movwf	write_externaleeprom@addr
 10565     1DEE                     l4342:
 10566                           
 10567                           ;ExternalEEPROM.c: 26: void write_externaleeprom(unsigned char addr, char data);External
      +                          EEPROM.c: 27: {;ExternalEEPROM.c: 28:     i2c_start();
 10568     1DEE  160A  158A  250C  160A  158A  	fcall	_i2c_start
 10569                           
 10570                           ;ExternalEEPROM.c: 29:     i2c_write(0b10100000);
 10571     1DF3  30A0               	movlw	160
 10572     1DF4  160A  158A  2515  160A  158A  	fcall	_i2c_write
 10573                           
 10574                           ;ExternalEEPROM.c: 30:     i2c_write(addr);
 10575     1DF9  0874               	movf	write_externaleeprom@addr,w
 10576     1DFA  160A  158A  2515  160A  158A  	fcall	_i2c_write
 10577                           
 10578                           ;ExternalEEPROM.c: 31:     i2c_write(data);
 10579     1DFF  0873               	movf	write_externaleeprom@data,w
 10580     1E00  160A  158A  2515  160A  158A  	fcall	_i2c_write
 10581                           
 10582                           ;ExternalEEPROM.c: 32:     i2c_stop();
 10583     1E05  120A  118A  27F7  160A  158A  	fcall	_i2c_stop
 10584     1E0A                     l515:
 10585     1E0A  0008               	return
 10586     1E0B                     __end_of_write_externaleeprom:
 10587                           
 10588                           	psect	text41
 10589     1D15                     __ptext41:	
 10590 ;; *************** function _i2c_write *****************
 10591 ;; Defined at:
 10592 ;;		line 70 in file "i2c.c"
 10593 ;; Parameters:    Size  Location     Type
 10594 ;;  data            1    wreg     unsigned char 
 10595 ;; Auto vars:     Size  Location     Type
 10596 ;;  data            1    2[COMMON] unsigned char 
 10597 ;; Return value:  Size  Location     Type
 10598 ;;                  2   40[None  ] int 
 10599 ;; Registers used:
 10600 ;;		wreg, status,2, status,0, pclath, cstack
 10601 ;; Tracked objects:
 10602 ;;		On entry : 0/0
 10603 ;;		On exit  : 0/0
 10604 ;;		Unchanged: 0/0
 10605 ;; Data sizes:     COMMON   BANK0   BANK1   BANK3   BANK2
 10606 ;;      Params:         0       0       0       0       0
 10607 ;;      Locals:         1       0       0       0       0
 10608 ;;      Temps:          0       0       0       0       0
 10609 ;;      Totals:         1       0       0       0       0
 10610 ;;Total ram usage:        1 bytes
 10611 ;; Hardware stack levels used: 1
 10612 ;; Hardware stack levels required when called: 2
 10613 ;; This function calls:
 10614 ;;		_i2c_wait_for_idle
 10615 ;; This function is called by:
 10616 ;;		_read_ds1307
 10617 ;;		_write_ds1307
 10618 ;;		_read_externaleeprom
 10619 ;;		_write_externaleeprom
 10620 ;; This function uses a non-reentrant model
 10621 ;;
 10622                           
 10623     1D15                     _i2c_write:	
 10624                           ;psect for function _i2c_write
 10625                           
 10626                           
 10627                           ;incstack = 0
 10628                           ; Regs used in _i2c_write: [wreg+status,2+status,0+pclath+cstack]
 10629                           ;i2c_write@data stored from wreg
 10630     1D15  00F2               	movwf	i2c_write@data
 10631     1D16                     l4292:
 10632                           
 10633                           ;i2c.c: 70: int i2c_write(unsigned char data);i2c.c: 71: {;i2c.c: 72:     i2c_wait_for_i
      +                          dle();
 10634     1D16  160A  158A  254D  160A  158A  	fcall	_i2c_wait_for_idle
 10635     1D1B                     l4294:
 10636                           
 10637                           ;i2c.c: 73:     SSPBUF = data;
 10638     1D1B  0872               	movf	i2c_write@data,w
 10639     1D1C  1283               	bcf	3,5	;RP0=0, select bank0
 10640     1D1D  1303               	bcf	3,6	;RP1=0, select bank0
 10641     1D1E  0093               	movwf	19	;volatile
 10642     1D1F                     l4296:
 10643     1D1F                     l107:	
 10644                           ;i2c.c: 75:     return !ACKSTAT;;	Return value of _i2c_write is never used
 10645                           
 10646     1D1F  0008               	return
 10647     1D20                     __end_of_i2c_write:
 10648                           
 10649                           	psect	text42
 10650     07F7                     __ptext42:	
 10651 ;; *************** function _i2c_stop *****************
 10652 ;; Defined at:
 10653 ;;		line 40 in file "i2c.c"
 10654 ;; Parameters:    Size  Location     Type
 10655 ;;		None
 10656 ;; Auto vars:     Size  Location     Type
 10657 ;;		None
 10658 ;; Return value:  Size  Location     Type
 10659 ;;                  1    wreg      void 
 10660 ;; Registers used:
 10661 ;;		wreg, status,2, status,0, pclath, cstack
 10662 ;; Tracked objects:
 10663 ;;		On entry : 0/0
 10664 ;;		On exit  : 0/0
 10665 ;;		Unchanged: 0/0
 10666 ;; Data sizes:     COMMON   BANK0   BANK1   BANK3   BANK2
 10667 ;;      Params:         0       0       0       0       0
 10668 ;;      Locals:         0       0       0       0       0
 10669 ;;      Temps:          0       0       0       0       0
 10670 ;;      Totals:         0       0       0       0       0
 10671 ;;Total ram usage:        0 bytes
 10672 ;; Hardware stack levels used: 1
 10673 ;; Hardware stack levels required when called: 2
 10674 ;; This function calls:
 10675 ;;		_i2c_wait_for_idle
 10676 ;; This function is called by:
 10677 ;;		_read_ds1307
 10678 ;;		_write_ds1307
 10679 ;;		_i2c_rep_start
 10680 ;;		_read_externaleeprom
 10681 ;;		_write_externaleeprom
 10682 ;; This function uses a non-reentrant model
 10683 ;;
 10684                           
 10685     07F7                     _i2c_stop:	
 10686                           ;psect for function _i2c_stop
 10687                           
 10688     07F7                     l4288:	
 10689                           ;incstack = 0
 10690                           ; Regs used in _i2c_stop: [wreg+status,2+status,0+pclath+cstack]
 10691                           
 10692                           
 10693                           ;i2c.c: 42:     i2c_wait_for_idle();
 10694     07F7  160A  158A  254D  120A  118A  	fcall	_i2c_wait_for_idle
 10695     07FC                     l4290:
 10696                           
 10697                           ;i2c.c: 43:     PEN = 1;
 10698     07FC  1683               	bsf	3,5	;RP0=1, select bank1
 10699     07FD  1303               	bcf	3,6	;RP1=0, select bank1
 10700     07FE  1511               	bsf	17,2	;volatile
 10701     07FF                     l99:
 10702     07FF  0008               	return
 10703     0800                     __end_of_i2c_stop:
 10704                           
 10705                           	psect	text43
 10706     1D0C                     __ptext43:	
 10707 ;; *************** function _i2c_start *****************
 10708 ;; Defined at:
 10709 ;;		line 27 in file "i2c.c"
 10710 ;; Parameters:    Size  Location     Type
 10711 ;;		None
 10712 ;; Auto vars:     Size  Location     Type
 10713 ;;		None
 10714 ;; Return value:  Size  Location     Type
 10715 ;;                  1    wreg      void 
 10716 ;; Registers used:
 10717 ;;		wreg, status,2, status,0, pclath, cstack
 10718 ;; Tracked objects:
 10719 ;;		On entry : 0/0
 10720 ;;		On exit  : 0/0
 10721 ;;		Unchanged: 0/0
 10722 ;; Data sizes:     COMMON   BANK0   BANK1   BANK3   BANK2
 10723 ;;      Params:         0       0       0       0       0
 10724 ;;      Locals:         0       0       0       0       0
 10725 ;;      Temps:          0       0       0       0       0
 10726 ;;      Totals:         0       0       0       0       0
 10727 ;;Total ram usage:        0 bytes
 10728 ;; Hardware stack levels used: 1
 10729 ;; Hardware stack levels required when called: 2
 10730 ;; This function calls:
 10731 ;;		_i2c_wait_for_idle
 10732 ;; This function is called by:
 10733 ;;		_read_ds1307
 10734 ;;		_write_ds1307
 10735 ;;		_i2c_rep_start
 10736 ;;		_read_externaleeprom
 10737 ;;		_write_externaleeprom
 10738 ;; This function uses a non-reentrant model
 10739 ;;
 10740                           
 10741     1D0C                     _i2c_start:	
 10742                           ;psect for function _i2c_start
 10743                           
 10744     1D0C                     l4284:	
 10745                           ;incstack = 0
 10746                           ; Regs used in _i2c_start: [wreg+status,2+status,0+pclath+cstack]
 10747                           
 10748                           
 10749                           ;i2c.c: 29:     i2c_wait_for_idle();
 10750     1D0C  160A  158A  254D  160A  158A  	fcall	_i2c_wait_for_idle
 10751     1D11                     l4286:
 10752                           
 10753                           ;i2c.c: 30:     SEN = 1;
 10754     1D11  1683               	bsf	3,5	;RP0=1, select bank1
 10755     1D12  1303               	bcf	3,6	;RP1=0, select bank1
 10756     1D13  1411               	bsf	17,0	;volatile
 10757     1D14                     l93:
 10758     1D14  0008               	return
 10759     1D15                     __end_of_i2c_start:
 10760                           
 10761                           	psect	text44
 10762     1D4D                     __ptext44:	
 10763 ;; *************** function _i2c_wait_for_idle *****************
 10764 ;; Defined at:
 10765 ;;		line 21 in file "i2c.c"
 10766 ;; Parameters:    Size  Location     Type
 10767 ;;		None
 10768 ;; Auto vars:     Size  Location     Type
 10769 ;;		None
 10770 ;; Return value:  Size  Location     Type
 10771 ;;                  1    wreg      void 
 10772 ;; Registers used:
 10773 ;;		wreg, status,2
 10774 ;; Tracked objects:
 10775 ;;		On entry : 0/0
 10776 ;;		On exit  : 0/0
 10777 ;;		Unchanged: 0/0
 10778 ;; Data sizes:     COMMON   BANK0   BANK1   BANK3   BANK2
 10779 ;;      Params:         0       0       0       0       0
 10780 ;;      Locals:         0       0       0       0       0
 10781 ;;      Temps:          0       0       0       0       0
 10782 ;;      Totals:         0       0       0       0       0
 10783 ;;Total ram usage:        0 bytes
 10784 ;; Hardware stack levels used: 1
 10785 ;; Hardware stack levels required when called: 1
 10786 ;; This function calls:
 10787 ;;		Nothing
 10788 ;; This function is called by:
 10789 ;;		_i2c_start
 10790 ;;		_i2c_stop
 10791 ;;		_i2c_read
 10792 ;;		_i2c_write
 10793 ;; This function uses a non-reentrant model
 10794 ;;
 10795                           
 10796     1D4D                     _i2c_wait_for_idle:	
 10797                           ;psect for function _i2c_wait_for_idle
 10798                           
 10799     1D4D                     l4280:	
 10800                           ;incstack = 0
 10801                           ; Regs used in _i2c_wait_for_idle: [wreg+status,2]
 10802                           
 10803     1D4D                     l87:	
 10804                           ;i2c.c: 24:     while (R_nW || (SSPCON2 & 0x1F));
 10805                           
 10806     1D4D  1683               	bsf	3,5	;RP0=1, select bank1
 10807     1D4E  1303               	bcf	3,6	;RP1=0, select bank1
 10808     1D4F  1914               	btfsc	20,2	;volatile
 10809     1D50  2D52               	goto	u4921
 10810     1D51  2D53               	goto	u4920
 10811     1D52                     u4921:
 10812     1D52  2D4D               	goto	l87
 10813     1D53                     u4920:
 10814     1D53                     l4282:
 10815     1D53  0811               	movf	17,w	;volatile
 10816     1D54  391F               	andlw	31
 10817     1D55  1D03               	btfss	3,2
 10818     1D56  2D58               	goto	u4931
 10819     1D57  2D59               	goto	u4930
 10820     1D58                     u4931:
 10821     1D58  2D4D               	goto	l87
 10822     1D59                     u4930:
 10823     1D59                     l90:
 10824     1D59  0008               	return
 10825     1D5A                     __end_of_i2c_wait_for_idle:
 10826                           
 10827                           	psect	text45
 10828     1D75                     __ptext45:	
 10829 ;; *************** function _clear_screen *****************
 10830 ;; Defined at:
 10831 ;;		line 605 in file "car_black_box.c"
 10832 ;; Parameters:    Size  Location     Type
 10833 ;;		None
 10834 ;; Auto vars:     Size  Location     Type
 10835 ;;		None
 10836 ;; Return value:  Size  Location     Type
 10837 ;;                  1    wreg      void 
 10838 ;; Registers used:
 10839 ;;		wreg, status,2, status,0, pclath, cstack
 10840 ;; Tracked objects:
 10841 ;;		On entry : 0/0
 10842 ;;		On exit  : 0/0
 10843 ;;		Unchanged: 0/0
 10844 ;; Data sizes:     COMMON   BANK0   BANK1   BANK3   BANK2
 10845 ;;      Params:         0       0       0       0       0
 10846 ;;      Locals:         0       0       0       0       0
 10847 ;;      Temps:          2       0       0       0       0
 10848 ;;      Totals:         2       0       0       0       0
 10849 ;;Total ram usage:        2 bytes
 10850 ;; Hardware stack levels used: 1
 10851 ;; Hardware stack levels required when called: 2
 10852 ;; This function calls:
 10853 ;;		_clcd_write
 10854 ;; This function is called by:
 10855 ;;		_main
 10856 ;;		_menu_screen
 10857 ;;		_set_time
 10858 ;;		_change_password
 10859 ;;		_login_screen
 10860 ;; This function uses a non-reentrant model
 10861 ;;
 10862                           
 10863     1D75                     _clear_screen:	
 10864                           ;psect for function _clear_screen
 10865                           
 10866     1D75                     l4476:	
 10867                           ;incstack = 0
 10868                           ; Regs used in _clear_screen: [wreg+status,2+status,0+pclath+cstack]
 10869                           
 10870                           
 10871                           ;car_black_box.c: 607:     clcd_write(0x01, 0);
 10872     1D75  01F2               	clrf	clcd_write@mode
 10873     1D76  3001               	movlw	1
 10874     1D77  160A  118A  21B5  160A  158A  	fcall	_clcd_write
 10875     1D7C                     l4478:
 10876                           
 10877                           ;car_black_box.c: 608:     _delay((unsigned long)((500)*(20000000/4000000.0)));
 10878     1D7C  3004               	movlw	4
 10879     1D7D  00F7               	movwf	??_clear_screen+1
 10880     1D7E  303D               	movlw	61
 10881     1D7F  00F6               	movwf	??_clear_screen
 10882     1D80                     u7967:
 10883     1D80  0BF6               	decfsz	??_clear_screen,f
 10884     1D81  2D80               	goto	u7967
 10885     1D82  0BF7               	decfsz	??_clear_screen+1,f
 10886     1D83  2D80               	goto	u7967
 10887     1D84  2D85               	nop2
 10888     1D85                     l499:
 10889     1D85  0008               	return
 10890     1D86                     __end_of_clear_screen:
 10891                           
 10892                           	psect	text46
 10893     1DAA                     __ptext46:	
 10894 ;; *************** function _clcd_putch *****************
 10895 ;; Defined at:
 10896 ;;		line 61 in file "clcd.c"
 10897 ;; Parameters:    Size  Location     Type
 10898 ;;  data            1    wreg     const unsigned char 
 10899 ;;  addr            1    4[BANK0 ] unsigned char 
 10900 ;; Auto vars:     Size  Location     Type
 10901 ;;  data            1    8[COMMON] const unsigned char 
 10902 ;; Return value:  Size  Location     Type
 10903 ;;                  1    wreg      void 
 10904 ;; Registers used:
 10905 ;;		wreg, status,2, status,0, pclath, cstack
 10906 ;; Tracked objects:
 10907 ;;		On entry : 0/0
 10908 ;;		On exit  : 0/0
 10909 ;;		Unchanged: 0/0
 10910 ;; Data sizes:     COMMON   BANK0   BANK1   BANK3   BANK2
 10911 ;;      Params:         0       1       0       0       0
 10912 ;;      Locals:         1       0       0       0       0
 10913 ;;      Temps:          0       0       0       0       0
 10914 ;;      Totals:         1       1       0       0       0
 10915 ;;Total ram usage:        2 bytes
 10916 ;; Hardware stack levels used: 1
 10917 ;; Hardware stack levels required when called: 2
 10918 ;; This function calls:
 10919 ;;		_clcd_write
 10920 ;; This function is called by:
 10921 ;;		_display_time
 10922 ;;		_display_dashboard
 10923 ;;		_menu_screen
 10924 ;;		_set_time
 10925 ;;		_view_log
 10926 ;;		_change_password
 10927 ;;		_login_screen
 10928 ;; This function uses a non-reentrant model
 10929 ;;
 10930                           
 10931     1DAA                     _clcd_putch:	
 10932                           ;psect for function _clcd_putch
 10933                           
 10934                           
 10935                           ;incstack = 0
 10936                           ; Regs used in _clcd_putch: [wreg+status,2+status,0+pclath+cstack]
 10937                           ;clcd_putch@data stored from wreg
 10938     1DAA  00F8               	movwf	clcd_putch@data
 10939     1DAB                     l4368:
 10940                           
 10941                           ;clcd.c: 61: void clcd_putch(const char data, unsigned char addr);clcd.c: 62: {;clcd.c: 
      +                          63:     clcd_write(addr, 0);
 10942     1DAB  01F2               	clrf	clcd_write@mode
 10943     1DAC  1283               	bcf	3,5	;RP0=0, select bank0
 10944     1DAD  1303               	bcf	3,6	;RP1=0, select bank0
 10945     1DAE  0824               	movf	clcd_putch@addr,w
 10946     1DAF  160A  118A  21B5  160A  158A  	fcall	_clcd_write
 10947                           
 10948                           ;clcd.c: 64:     clcd_write(data, 1);
 10949     1DB4  01F2               	clrf	clcd_write@mode
 10950     1DB5  0AF2               	incf	clcd_write@mode,f
 10951     1DB6  0878               	movf	clcd_putch@data,w
 10952     1DB7  160A  118A  21B5  160A  158A  	fcall	_clcd_write
 10953     1DBC                     l26:
 10954     1DBC  0008               	return
 10955     1DBD                     __end_of_clcd_putch:
 10956                           
 10957                           	psect	text47
 10958     1F3C                     __ptext47:	
 10959 ;; *************** function _clcd_print *****************
 10960 ;; Defined at:
 10961 ;;		line 67 in file "clcd.c"
 10962 ;; Parameters:    Size  Location     Type
 10963 ;;  str             2    6[COMMON] PTR const unsigned char 
 10964 ;;		 -> STR_43(15), STR_42(14), STR_41(15), STR_40(5), 
 10965 ;;		 -> STR_39(10), STR_38(16), STR_37(14), STR_36(18), 
 10966 ;;		 -> STR_35(13), STR_34(17), STR_33(17), STR_32(17), 
 10967 ;;		 -> STR_31(17), STR_30(16), STR_29(16), STR_28(13), 
 10968 ;;		 -> STR_27(13), STR_26(13), STR_25(13), STR_24(13), 
 10969 ;;		 -> STR_23(13), STR_20(15), STR_19(14), STR_18(9), 
 10970 ;;		 -> STR_17(13), STR_16(10), STR_15(9), STR_9(15), 
 10971 ;;		 -> main@event(3), 
 10972 ;;  addr            1    8[COMMON] unsigned char 
 10973 ;; Auto vars:     Size  Location     Type
 10974 ;;		None
 10975 ;; Return value:  Size  Location     Type
 10976 ;;                  1    wreg      void 
 10977 ;; Registers used:
 10978 ;;		wreg, fsr0l, fsr0h, status,2, status,0, btemp+1, pclath, cstack
 10979 ;; Tracked objects:
 10980 ;;		On entry : 0/0
 10981 ;;		On exit  : 0/0
 10982 ;;		Unchanged: 0/0
 10983 ;; Data sizes:     COMMON   BANK0   BANK1   BANK3   BANK2
 10984 ;;      Params:         3       0       0       0       0
 10985 ;;      Locals:         0       0       0       0       0
 10986 ;;      Temps:          0       0       0       0       0
 10987 ;;      Totals:         3       0       0       0       0
 10988 ;;Total ram usage:        3 bytes
 10989 ;; Hardware stack levels used: 1
 10990 ;; Hardware stack levels required when called: 2
 10991 ;; This function calls:
 10992 ;;		_clcd_write
 10993 ;; This function is called by:
 10994 ;;		_main
 10995 ;;		_display_dashboard
 10996 ;;		_menu_screen
 10997 ;;		_clear_log
 10998 ;;		_set_time
 10999 ;;		_view_log
 11000 ;;		_change_password
 11001 ;;		_login_screen
 11002 ;; This function uses a non-reentrant model
 11003 ;;
 11004                           
 11005     1F3C                     _clcd_print:	
 11006                           ;psect for function _clcd_print
 11007                           
 11008     1F3C                     l4446:	
 11009                           ;incstack = 0
 11010                           ; Regs used in _clcd_print: [wreg-fsr0h+status,2+status,0+btemp+1+pclath+cstack]
 11011                           
 11012                           
 11013                           ;clcd.c: 67: void clcd_print(const char *str, unsigned char addr);clcd.c: 68: {;clcd.c: 
      +                          69:     clcd_write(addr, 0);
 11014     1F3C  01F2               	clrf	clcd_write@mode
 11015     1F3D  0878               	movf	clcd_print@addr,w
 11016     1F3E  160A  118A  21B5  160A  158A  	fcall	_clcd_write
 11017                           
 11018                           ;clcd.c: 71:     while (*str != '\0')
 11019     1F43  2F5A               	goto	l4452
 11020     1F44                     l4448:
 11021                           
 11022                           ;clcd.c: 72:     {;clcd.c: 73:         clcd_write(*str, 1);
 11023     1F44  01F2               	clrf	clcd_write@mode
 11024     1F45  0AF2               	incf	clcd_write@mode,f
 11025     1F46  0877               	movf	clcd_print@str+1,w
 11026     1F47  00FF               	movwf	btemp+1
 11027     1F48  0876               	movf	clcd_print@str,w
 11028     1F49  0084               	movwf	4
 11029     1F4A  160A  158A  2000  160A  158A  	fcall	stringtab
 11030     1F4F  160A  118A  21B5  160A  158A  	fcall	_clcd_write
 11031     1F54                     l4450:
 11032                           
 11033                           ;clcd.c: 74:         str++;
 11034     1F54  3001               	movlw	1
 11035     1F55  07F6               	addwf	clcd_print@str,f
 11036     1F56  1803               	skipnc
 11037     1F57  0AF7               	incf	clcd_print@str+1,f
 11038     1F58  3000               	movlw	0
 11039     1F59  07F7               	addwf	clcd_print@str+1,f
 11040     1F5A                     l4452:
 11041                           
 11042                           ;clcd.c: 71:     while (*str != '\0')
 11043     1F5A  0877               	movf	clcd_print@str+1,w
 11044     1F5B  1283               	bcf	3,5	;RP0=0, select bank0
 11045     1F5C  1303               	bcf	3,6	;RP1=0, select bank0
 11046     1F5D  00FF               	movwf	btemp+1
 11047     1F5E  0876               	movf	clcd_print@str,w
 11048     1F5F  0084               	movwf	4
 11049     1F60  160A  158A  2000  160A  158A  	fcall	stringtab
 11050     1F65  3A00               	xorlw	0
 11051     1F66  1D03               	skipz
 11052     1F67  2F69               	goto	u5121
 11053     1F68  2F6A               	goto	u5120
 11054     1F69                     u5121:
 11055     1F69  2F44               	goto	l4448
 11056     1F6A                     u5120:
 11057     1F6A                     l32:
 11058     1F6A  0008               	return
 11059     1F6B                     __end_of_clcd_print:
 11060                           
 11061                           	psect	text48
 11062     11B5                     __ptext48:	
 11063 ;; *************** function _clcd_write *****************
 11064 ;; Defined at:
 11065 ;;		line 9 in file "clcd.c"
 11066 ;; Parameters:    Size  Location     Type
 11067 ;;  byte            1    wreg     unsigned char 
 11068 ;;  mode            1    2[COMMON] unsigned char 
 11069 ;; Auto vars:     Size  Location     Type
 11070 ;;  byte            1    5[COMMON] unsigned char 
 11071 ;; Return value:  Size  Location     Type
 11072 ;;                  1    wreg      void 
 11073 ;; Registers used:
 11074 ;;		wreg, status,2, status,0
 11075 ;; Tracked objects:
 11076 ;;		On entry : 0/0
 11077 ;;		On exit  : 0/0
 11078 ;;		Unchanged: 0/0
 11079 ;; Data sizes:     COMMON   BANK0   BANK1   BANK3   BANK2
 11080 ;;      Params:         1       0       0       0       0
 11081 ;;      Locals:         1       0       0       0       0
 11082 ;;      Temps:          2       0       0       0       0
 11083 ;;      Totals:         4       0       0       0       0
 11084 ;;Total ram usage:        4 bytes
 11085 ;; Hardware stack levels used: 1
 11086 ;; Hardware stack levels required when called: 1
 11087 ;; This function calls:
 11088 ;;		Nothing
 11089 ;; This function is called by:
 11090 ;;		_init_display_controller
 11091 ;;		_clcd_putch
 11092 ;;		_clcd_print
 11093 ;;		_main
 11094 ;;		_change_password
 11095 ;;		_login_screen
 11096 ;;		_clear_screen
 11097 ;; This function uses a non-reentrant model
 11098 ;;
 11099                           
 11100     11B5                     _clcd_write:	
 11101                           ;psect for function _clcd_write
 11102                           
 11103                           
 11104                           ;incstack = 0
 11105                           ; Regs used in _clcd_write: [wreg+status,2+status,0]
 11106                           ;clcd_write@byte stored from wreg
 11107     11B5  00F5               	movwf	clcd_write@byte
 11108     11B6                     l4316:
 11109                           
 11110                           ;clcd.c: 9: void clcd_write(unsigned char byte, unsigned char mode);clcd.c: 10: {;clcd.c
      +                          : 11:     RE2 =(__bit) mode;
 11111     11B6  1872               	btfsc	clcd_write@mode,0
 11112     11B7  29B9               	goto	u4951
 11113     11B8  29BD               	goto	u4950
 11114     11B9                     u4951:
 11115     11B9  1283               	bcf	3,5	;RP0=0, select bank0
 11116     11BA  1303               	bcf	3,6	;RP1=0, select bank0
 11117     11BB  1509               	bsf	9,2	;volatile
 11118     11BC  29C0               	goto	u4964
 11119     11BD                     u4950:
 11120     11BD  1283               	bcf	3,5	;RP0=0, select bank0
 11121     11BE  1303               	bcf	3,6	;RP1=0, select bank0
 11122     11BF  1109               	bcf	9,2	;volatile
 11123     11C0                     u4964:
 11124     11C0                     l4318:
 11125                           
 11126                           ;clcd.c: 13:     PORTD = byte & 0xF0;
 11127     11C0  0875               	movf	clcd_write@byte,w
 11128     11C1  39F0               	andlw	240
 11129     11C2  0088               	movwf	8	;volatile
 11130     11C3                     l4320:
 11131                           
 11132                           ;clcd.c: 14:     RE1 = 1;
 11133     11C3  1489               	bsf	9,1	;volatile
 11134     11C4                     l4322:
 11135                           
 11136                           ;clcd.c: 15:     _delay((unsigned long)((100)*(20000000/4000000.0)));
 11137     11C4  30A6               	movlw	166
 11138     11C5  00F3               	movwf	??_clcd_write
 11139     11C6                     u7977:
 11140     11C6  0BF3               	decfsz	??_clcd_write,f
 11141     11C7  29C6               	goto	u7977
 11142     11C8  0000               	nop
 11143     11C9                     l4324:
 11144                           
 11145                           ;clcd.c: 16:     RE1 = 0;
 11146     11C9  1283               	bcf	3,5	;RP0=0, select bank0
 11147     11CA  1303               	bcf	3,6	;RP1=0, select bank0
 11148     11CB  1089               	bcf	9,1	;volatile
 11149     11CC                     l4326:
 11150                           
 11151                           ;clcd.c: 18:     PORTD = (byte & 0x0F) << (unsigned char) 4;
 11152     11CC  0875               	movf	clcd_write@byte,w
 11153     11CD  390F               	andlw	15
 11154     11CE  00F3               	movwf	??_clcd_write
 11155     11CF  3003               	movlw	3
 11156     11D0                     u4975:
 11157     11D0  1003               	clrc
 11158     11D1  0DF3               	rlf	??_clcd_write,f
 11159     11D2  3EFF               	addlw	-1
 11160     11D3  1D03               	skipz
 11161     11D4  29D0               	goto	u4975
 11162     11D5  1003               	clrc
 11163     11D6  0D73               	rlf	??_clcd_write,w
 11164     11D7  0088               	movwf	8	;volatile
 11165     11D8                     l4328:
 11166                           
 11167                           ;clcd.c: 19:     RE1 = 1;
 11168     11D8  1489               	bsf	9,1	;volatile
 11169     11D9                     l4330:
 11170                           
 11171                           ;clcd.c: 20:     _delay((unsigned long)((100)*(20000000/4000000.0)));
 11172     11D9  30A6               	movlw	166
 11173     11DA  00F3               	movwf	??_clcd_write
 11174     11DB                     u7987:
 11175     11DB  0BF3               	decfsz	??_clcd_write,f
 11176     11DC  29DB               	goto	u7987
 11177     11DD  0000               	nop
 11178     11DE                     l4332:
 11179                           
 11180                           ;clcd.c: 21:     RE1 = 0;
 11181     11DE  1283               	bcf	3,5	;RP0=0, select bank0
 11182     11DF  1303               	bcf	3,6	;RP1=0, select bank0
 11183     11E0  1089               	bcf	9,1	;volatile
 11184     11E1                     l4334:
 11185                           
 11186                           ;clcd.c: 23:     _delay((unsigned long)((4100)*(20000000/4000000.0)));
 11187     11E1  301B               	movlw	27
 11188     11E2  00F4               	movwf	??_clcd_write+1
 11189     11E3  309E               	movlw	158
 11190     11E4  00F3               	movwf	??_clcd_write
 11191     11E5                     u7997:
 11192     11E5  0BF3               	decfsz	??_clcd_write,f
 11193     11E6  29E5               	goto	u7997
 11194     11E7  0BF4               	decfsz	??_clcd_write+1,f
 11195     11E8  29E5               	goto	u7997
 11196     11E9  0000               	nop
 11197     11EA                     l17:
 11198     11EA  0008               	return
 11199     11EB                     __end_of_clcd_write:
 11200                           
 11201                           	psect	text49
 11202     152D                     __ptext49:	
 11203 ;; *************** function ___xxtofl *****************
 11204 ;; Defined at:
 11205 ;;		line 10 in file "C:\Program Files\Microchip\xc8\v2.50\pic\sources\c99\common\xxtofl.c"
 11206 ;; Parameters:    Size  Location     Type
 11207 ;;  sign            1    wreg     unsigned char 
 11208 ;;  val             4    0[BANK0 ] long 
 11209 ;; Auto vars:     Size  Location     Type
 11210 ;;  sign            1    8[BANK0 ] unsigned char 
 11211 ;;  arg             4   10[BANK0 ] unsigned long 
 11212 ;;  exp             1    9[BANK0 ] unsigned char 
 11213 ;; Return value:  Size  Location     Type
 11214 ;;                  4    0[BANK0 ] unsigned char 
 11215 ;; Registers used:
 11216 ;;		wreg, status,2, status,0
 11217 ;; Tracked objects:
 11218 ;;		On entry : 0/0
 11219 ;;		On exit  : 0/0
 11220 ;;		Unchanged: 0/0
 11221 ;; Data sizes:     COMMON   BANK0   BANK1   BANK3   BANK2
 11222 ;;      Params:         0       4       0       0       0
 11223 ;;      Locals:         0       6       0       0       0
 11224 ;;      Temps:          0       4       0       0       0
 11225 ;;      Totals:         0      14       0       0       0
 11226 ;;Total ram usage:       14 bytes
 11227 ;; Hardware stack levels used: 1
 11228 ;; Hardware stack levels required when called: 1
 11229 ;; This function calls:
 11230 ;;		Nothing
 11231 ;; This function is called by:
 11232 ;;		_main
 11233 ;; This function uses a non-reentrant model
 11234 ;;
 11235                           
 11236     152D                     ___xxtofl:	
 11237                           ;psect for function ___xxtofl
 11238                           
 11239                           
 11240                           ;incstack = 0
 11241                           ; Regs used in ___xxtofl: [wreg+status,2+status,0]
 11242                           ;___xxtofl@sign stored from wreg
 11243     152D  1283               	bcf	3,5	;RP0=0, select bank0
 11244     152E  1303               	bcf	3,6	;RP1=0, select bank0
 11245     152F  00A8               	movwf	___xxtofl@sign
 11246     1530                     l5532:
 11247     1530  0828               	movf	___xxtofl@sign,w
 11248     1531  1903               	btfsc	3,2
 11249     1532  2D34               	goto	u6961
 11250     1533  2D35               	goto	u6960
 11251     1534                     u6961:
 11252     1534  2D49               	goto	l5538
 11253     1535                     u6960:
 11254     1535                     l5534:
 11255     1535  1FA3               	btfss	___xxtofl@val+3,7
 11256     1536  2D38               	goto	u6971
 11257     1537  2D39               	goto	u6970
 11258     1538                     u6971:
 11259     1538  2D49               	goto	l5538
 11260     1539                     u6970:
 11261     1539                     l5536:
 11262     1539  0920               	comf	___xxtofl@val,w
 11263     153A  00AA               	movwf	___xxtofl@arg
 11264     153B  0921               	comf	___xxtofl@val+1,w
 11265     153C  00AB               	movwf	___xxtofl@arg+1
 11266     153D  0922               	comf	___xxtofl@val+2,w
 11267     153E  00AC               	movwf	___xxtofl@arg+2
 11268     153F  0923               	comf	___xxtofl@val+3,w
 11269     1540  00AD               	movwf	___xxtofl@arg+3
 11270     1541  0AAA               	incf	___xxtofl@arg,f
 11271     1542  1903               	skipnz
 11272     1543  0AAB               	incf	___xxtofl@arg+1,f
 11273     1544  1903               	skipnz
 11274     1545  0AAC               	incf	___xxtofl@arg+2,f
 11275     1546  1903               	skipnz
 11276     1547  0AAD               	incf	___xxtofl@arg+3,f
 11277     1548  2D51               	goto	l1114
 11278     1549                     l5538:
 11279     1549  0823               	movf	___xxtofl@val+3,w
 11280     154A  00AD               	movwf	___xxtofl@arg+3
 11281     154B  0822               	movf	___xxtofl@val+2,w
 11282     154C  00AC               	movwf	___xxtofl@arg+2
 11283     154D  0821               	movf	___xxtofl@val+1,w
 11284     154E  00AB               	movwf	___xxtofl@arg+1
 11285     154F  0820               	movf	___xxtofl@val,w
 11286     1550  00AA               	movwf	___xxtofl@arg
 11287     1551                     l1114:
 11288     1551  0823               	movf	___xxtofl@val+3,w
 11289     1552  0422               	iorwf	___xxtofl@val+2,w
 11290     1553  0421               	iorwf	___xxtofl@val+1,w
 11291     1554  0420               	iorwf	___xxtofl@val,w
 11292     1555  1D03               	skipz
 11293     1556  2D58               	goto	u6981
 11294     1557  2D59               	goto	u6980
 11295     1558                     u6981:
 11296     1558  2D62               	goto	l1115
 11297     1559                     u6980:
 11298     1559                     l5540:
 11299     1559  3000               	movlw	0
 11300     155A  00A3               	movwf	?___xxtofl+3
 11301     155B  3000               	movlw	0
 11302     155C  00A2               	movwf	?___xxtofl+2
 11303     155D  3000               	movlw	0
 11304     155E  00A1               	movwf	?___xxtofl+1
 11305     155F  3000               	movlw	0
 11306     1560  00A0               	movwf	?___xxtofl
 11307     1561  2DE2               	goto	l1116
 11308     1562                     l1115:
 11309     1562  3096               	movlw	150
 11310     1563  00A9               	movwf	___xxtofl@exp
 11311     1564  2D70               	goto	l5546
 11312     1565                     l5544:
 11313     1565  3001               	movlw	1
 11314     1566  07A9               	addwf	___xxtofl@exp,f
 11315     1567  3001               	movlw	1
 11316     1568                     u6995:
 11317     1568  1003               	clrc
 11318     1569  0CAD               	rrf	___xxtofl@arg+3,f
 11319     156A  0CAC               	rrf	___xxtofl@arg+2,f
 11320     156B  0CAB               	rrf	___xxtofl@arg+1,f
 11321     156C  0CAA               	rrf	___xxtofl@arg,f
 11322     156D  3EFF               	addlw	-1
 11323     156E  1D03               	skipz
 11324     156F  2D68               	goto	u6995
 11325     1570                     l5546:
 11326     1570  30FE               	movlw	254
 11327     1571  052D               	andwf	___xxtofl@arg+3,w
 11328     1572  1D03               	btfss	3,2
 11329     1573  2D75               	goto	u7001
 11330     1574  2D76               	goto	u7000
 11331     1575                     u7001:
 11332     1575  2D65               	goto	l5544
 11333     1576                     u7000:
 11334     1576  2D90               	goto	l1120
 11335     1577                     l5548:
 11336     1577  3001               	movlw	1
 11337     1578  07A9               	addwf	___xxtofl@exp,f
 11338     1579                     l5550:
 11339     1579  3001               	movlw	1
 11340     157A  07AA               	addwf	___xxtofl@arg,f
 11341     157B  3000               	movlw	0
 11342     157C  1803               	skipnc
 11343     157D  3001               	movlw	1
 11344     157E  07AB               	addwf	___xxtofl@arg+1,f
 11345     157F  3000               	movlw	0
 11346     1580  1803               	skipnc
 11347     1581  3001               	movlw	1
 11348     1582  07AC               	addwf	___xxtofl@arg+2,f
 11349     1583  3000               	movlw	0
 11350     1584  1803               	skipnc
 11351     1585  3001               	movlw	1
 11352     1586  07AD               	addwf	___xxtofl@arg+3,f
 11353     1587                     l5552:
 11354     1587  3001               	movlw	1
 11355     1588                     u7015:
 11356     1588  1003               	clrc
 11357     1589  0CAD               	rrf	___xxtofl@arg+3,f
 11358     158A  0CAC               	rrf	___xxtofl@arg+2,f
 11359     158B  0CAB               	rrf	___xxtofl@arg+1,f
 11360     158C  0CAA               	rrf	___xxtofl@arg,f
 11361     158D  3EFF               	addlw	-1
 11362     158E  1D03               	skipz
 11363     158F  2D88               	goto	u7015
 11364     1590                     l1120:
 11365     1590  30FF               	movlw	255
 11366     1591  052D               	andwf	___xxtofl@arg+3,w
 11367     1592  1D03               	btfss	3,2
 11368     1593  2D95               	goto	u7021
 11369     1594  2D96               	goto	u7020
 11370     1595                     u7021:
 11371     1595  2D77               	goto	l5548
 11372     1596                     u7020:
 11373     1596  2DA2               	goto	l5556
 11374     1597                     l5554:
 11375     1597  3001               	movlw	1
 11376     1598  02A9               	subwf	___xxtofl@exp,f
 11377     1599  3001               	movlw	1
 11378     159A  00A4               	movwf	??___xxtofl
 11379     159B                     u7035:
 11380     159B  1003               	clrc
 11381     159C  0DAA               	rlf	___xxtofl@arg,f
 11382     159D  0DAB               	rlf	___xxtofl@arg+1,f
 11383     159E  0DAC               	rlf	___xxtofl@arg+2,f
 11384     159F  0DAD               	rlf	___xxtofl@arg+3,f
 11385     15A0  0BA4               	decfsz	??___xxtofl,f
 11386     15A1  2D9B               	goto	u7035
 11387     15A2                     l5556:
 11388     15A2  1BAC               	btfsc	___xxtofl@arg+2,7
 11389     15A3  2DA5               	goto	u7041
 11390     15A4  2DA6               	goto	u7040
 11391     15A5                     u7041:
 11392     15A5  2DAC               	goto	l1127
 11393     15A6                     u7040:
 11394     15A6                     l5558:
 11395     15A6  3002               	movlw	2
 11396     15A7  0229               	subwf	___xxtofl@exp,w
 11397     15A8  1803               	skipnc
 11398     15A9  2DAB               	goto	u7051
 11399     15AA  2DAC               	goto	u7050
 11400     15AB                     u7051:
 11401     15AB  2D97               	goto	l5554
 11402     15AC                     u7050:
 11403     15AC                     l1127:
 11404     15AC  1829               	btfsc	___xxtofl@exp,0
 11405     15AD  2DAF               	goto	u7061
 11406     15AE  2DB0               	goto	u7060
 11407     15AF                     u7061:
 11408     15AF  2DB8               	goto	l1128
 11409     15B0                     u7060:
 11410     15B0                     l5560:
 11411     15B0  30FF               	movlw	255
 11412     15B1  05AA               	andwf	___xxtofl@arg,f
 11413     15B2  30FF               	movlw	255
 11414     15B3  05AB               	andwf	___xxtofl@arg+1,f
 11415     15B4  307F               	movlw	127
 11416     15B5  05AC               	andwf	___xxtofl@arg+2,f
 11417     15B6  30FF               	movlw	255
 11418     15B7  05AD               	andwf	___xxtofl@arg+3,f
 11419     15B8                     l1128:
 11420     15B8  1003               	clrc
 11421     15B9  0CA9               	rrf	___xxtofl@exp,f
 11422     15BA                     l5562:
 11423     15BA  0829               	movf	___xxtofl@exp,w
 11424     15BB  00A4               	movwf	??___xxtofl
 11425     15BC  01A5               	clrf	??___xxtofl+1
 11426     15BD  01A6               	clrf	??___xxtofl+2
 11427     15BE  01A7               	clrf	??___xxtofl+3
 11428     15BF  3018               	movlw	24
 11429     15C0                     u7075:
 11430     15C0  1003               	clrc
 11431     15C1  0DA4               	rlf	??___xxtofl,f
 11432     15C2  0DA5               	rlf	??___xxtofl+1,f
 11433     15C3  0DA6               	rlf	??___xxtofl+2,f
 11434     15C4  0DA7               	rlf	??___xxtofl+3,f
 11435     15C5                     u7070:
 11436     15C5  3EFF               	addlw	-1
 11437     15C6  1D03               	skipz
 11438     15C7  2DC0               	goto	u7075
 11439     15C8  0824               	movf	??___xxtofl,w
 11440     15C9  04AA               	iorwf	___xxtofl@arg,f
 11441     15CA  0825               	movf	??___xxtofl+1,w
 11442     15CB  04AB               	iorwf	___xxtofl@arg+1,f
 11443     15CC  0826               	movf	??___xxtofl+2,w
 11444     15CD  04AC               	iorwf	___xxtofl@arg+2,f
 11445     15CE  0827               	movf	??___xxtofl+3,w
 11446     15CF  04AD               	iorwf	___xxtofl@arg+3,f
 11447     15D0                     l5564:
 11448     15D0  0828               	movf	___xxtofl@sign,w
 11449     15D1  1903               	btfsc	3,2
 11450     15D2  2DD4               	goto	u7081
 11451     15D3  2DD5               	goto	u7080
 11452     15D4                     u7081:
 11453     15D4  2DDA               	goto	l5570
 11454     15D5                     u7080:
 11455     15D5                     l5566:
 11456     15D5  1FA3               	btfss	___xxtofl@val+3,7
 11457     15D6  2DD8               	goto	u7091
 11458     15D7  2DD9               	goto	u7090
 11459     15D8                     u7091:
 11460     15D8  2DDA               	goto	l5570
 11461     15D9                     u7090:
 11462     15D9                     l5568:
 11463     15D9  17AD               	bsf	___xxtofl@arg+3,7
 11464     15DA                     l5570:
 11465     15DA  082D               	movf	___xxtofl@arg+3,w
 11466     15DB  00A3               	movwf	?___xxtofl+3
 11467     15DC  082C               	movf	___xxtofl@arg+2,w
 11468     15DD  00A2               	movwf	?___xxtofl+2
 11469     15DE  082B               	movf	___xxtofl@arg+1,w
 11470     15DF  00A1               	movwf	?___xxtofl+1
 11471     15E0  082A               	movf	___xxtofl@arg,w
 11472     15E1  00A0               	movwf	?___xxtofl
 11473     15E2                     l1116:
 11474     15E2  0008               	return
 11475     15E3                     __end_of___xxtofl:
 11476                           
 11477                           	psect	text50
 11478     0781                     __ptext50:	
 11479 ;; *************** function ___fltol *****************
 11480 ;; Defined at:
 11481 ;;		line 43 in file "C:\Program Files\Microchip\xc8\v2.50\pic\sources\c99\common\fltol.c"
 11482 ;; Parameters:    Size  Location     Type
 11483 ;;  f1              4   40[BANK0 ] unsigned char 
 11484 ;; Auto vars:     Size  Location     Type
 11485 ;;  exp1            1    7[COMMON] unsigned char 
 11486 ;;  sign1           1    6[COMMON] unsigned char 
 11487 ;; Return value:  Size  Location     Type
 11488 ;;                  4   40[BANK0 ] long 
 11489 ;; Registers used:
 11490 ;;		wreg, status,2, status,0
 11491 ;; Tracked objects:
 11492 ;;		On entry : 0/0
 11493 ;;		On exit  : 0/0
 11494 ;;		Unchanged: 0/0
 11495 ;; Data sizes:     COMMON   BANK0   BANK1   BANK3   BANK2
 11496 ;;      Params:         0       4       0       0       0
 11497 ;;      Locals:         2       0       0       0       0
 11498 ;;      Temps:          0       4       0       0       0
 11499 ;;      Totals:         2       8       0       0       0
 11500 ;;Total ram usage:       10 bytes
 11501 ;; Hardware stack levels used: 1
 11502 ;; Hardware stack levels required when called: 1
 11503 ;; This function calls:
 11504 ;;		Nothing
 11505 ;; This function is called by:
 11506 ;;		_main
 11507 ;; This function uses a non-reentrant model
 11508 ;;
 11509                           
 11510     0781                     ___fltol:	
 11511                           ;psect for function ___fltol
 11512                           
 11513     0781                     l5352:	
 11514                           ;incstack = 0
 11515                           ; Regs used in ___fltol: [wreg+status,2+status,0]
 11516                           
 11517     0781  1003               	clrc
 11518     0782  1283               	bcf	3,5	;RP0=0, select bank0
 11519     0783  1303               	bcf	3,6	;RP1=0, select bank0
 11520     0784  0D4A               	rlf	___fltol@f1+2,w
 11521     0785  0D4B               	rlf	___fltol@f1+3,w
 11522     0786  00F7               	movwf	___fltol@exp1
 11523     0787  0877               	movf	___fltol@exp1,w
 11524     0788  1D03               	btfss	3,2
 11525     0789  2F8B               	goto	u6571
 11526     078A  2F8C               	goto	u6570
 11527     078B                     u6571:
 11528     078B  2F95               	goto	l5358
 11529     078C                     u6570:
 11530     078C                     l5354:
 11531     078C  3000               	movlw	0
 11532     078D  00CB               	movwf	?___fltol+3
 11533     078E  3000               	movlw	0
 11534     078F  00CA               	movwf	?___fltol+2
 11535     0790  3000               	movlw	0
 11536     0791  00C9               	movwf	?___fltol+1
 11537     0792  3000               	movlw	0
 11538     0793  00C8               	movwf	?___fltol
 11539     0794  2FF6               	goto	l867
 11540     0795                     l5358:
 11541     0795  0848               	movf	___fltol@f1,w
 11542     0796  00CC               	movwf	??___fltol
 11543     0797  0849               	movf	___fltol@f1+1,w
 11544     0798  00CD               	movwf	??___fltol+1
 11545     0799  084A               	movf	___fltol@f1+2,w
 11546     079A  00CE               	movwf	??___fltol+2
 11547     079B  084B               	movf	___fltol@f1+3,w
 11548     079C  00CF               	movwf	??___fltol+3
 11549     079D  301F               	movlw	31
 11550     079E                     u6585:
 11551     079E  1003               	clrc
 11552     079F  0CCF               	rrf	??___fltol+3,f
 11553     07A0  0CCE               	rrf	??___fltol+2,f
 11554     07A1  0CCD               	rrf	??___fltol+1,f
 11555     07A2  0CCC               	rrf	??___fltol,f
 11556     07A3                     u6580:
 11557     07A3  3EFF               	addlw	-1
 11558     07A4  1D03               	skipz
 11559     07A5  2F9E               	goto	u6585
 11560     07A6  084C               	movf	??___fltol,w
 11561     07A7  00F6               	movwf	___fltol@sign1
 11562     07A8                     l5360:
 11563     07A8  17CA               	bsf	___fltol@f1+2,7
 11564     07A9                     l5362:
 11565     07A9  30FF               	movlw	255
 11566     07AA  05C8               	andwf	___fltol@f1,f
 11567     07AB  30FF               	movlw	255
 11568     07AC  05C9               	andwf	___fltol@f1+1,f
 11569     07AD  30FF               	movlw	255
 11570     07AE  05CA               	andwf	___fltol@f1+2,f
 11571     07AF  3000               	movlw	0
 11572     07B0  05CB               	andwf	___fltol@f1+3,f
 11573     07B1                     l5364:
 11574     07B1  3096               	movlw	150
 11575     07B2  02F7               	subwf	___fltol@exp1,f
 11576     07B3                     l5366:
 11577     07B3  1FF7               	btfss	___fltol@exp1,7
 11578     07B4  2FB6               	goto	u6591
 11579     07B5  2FB7               	goto	u6590
 11580     07B6                     u6591:
 11581     07B6  2FCF               	goto	l5376
 11582     07B7                     u6590:
 11583     07B7                     l5368:
 11584     07B7  0877               	movf	___fltol@exp1,w
 11585     07B8  3A80               	xorlw	128
 11586     07B9  3E97               	addlw	151
 11587     07BA  1803               	skipnc
 11588     07BB  2FBD               	goto	u6601
 11589     07BC  2FBE               	goto	u6600
 11590     07BD                     u6601:
 11591     07BD  2FBF               	goto	l5374
 11592     07BE                     u6600:
 11593     07BE  2F8C               	goto	l5354
 11594     07BF                     l5374:
 11595     07BF  3001               	movlw	1
 11596     07C0                     u6615:
 11597     07C0  1003               	clrc
 11598     07C1  0CCB               	rrf	___fltol@f1+3,f
 11599     07C2  0CCA               	rrf	___fltol@f1+2,f
 11600     07C3  0CC9               	rrf	___fltol@f1+1,f
 11601     07C4  0CC8               	rrf	___fltol@f1,f
 11602     07C5  3EFF               	addlw	-1
 11603     07C6  1D03               	skipz
 11604     07C7  2FC0               	goto	u6615
 11605     07C8  3001               	movlw	1
 11606     07C9  07F7               	addwf	___fltol@exp1,f
 11607     07CA  1D03               	btfss	3,2
 11608     07CB  2FCD               	goto	u6621
 11609     07CC  2FCE               	goto	u6620
 11610     07CD                     u6621:
 11611     07CD  2FBF               	goto	l5374
 11612     07CE                     u6620:
 11613     07CE  2FE6               	goto	l5384
 11614     07CF                     l5376:
 11615     07CF  3020               	movlw	32
 11616     07D0  0277               	subwf	___fltol@exp1,w
 11617     07D1  1C03               	skipc
 11618     07D2  2FD4               	goto	u6631
 11619     07D3  2FD5               	goto	u6630
 11620     07D4                     u6631:
 11621     07D4  2FE1               	goto	l874
 11622     07D5                     u6630:
 11623     07D5  2F8C               	goto	l5354
 11624     07D6                     l5382:
 11625     07D6  3001               	movlw	1
 11626     07D7  00CC               	movwf	??___fltol
 11627     07D8                     u6645:
 11628     07D8  1003               	clrc
 11629     07D9  0DC8               	rlf	___fltol@f1,f
 11630     07DA  0DC9               	rlf	___fltol@f1+1,f
 11631     07DB  0DCA               	rlf	___fltol@f1+2,f
 11632     07DC  0DCB               	rlf	___fltol@f1+3,f
 11633     07DD  0BCC               	decfsz	??___fltol,f
 11634     07DE  2FD8               	goto	u6645
 11635     07DF  3001               	movlw	1
 11636     07E0  02F7               	subwf	___fltol@exp1,f
 11637     07E1                     l874:
 11638     07E1  0877               	movf	___fltol@exp1,w
 11639     07E2  1D03               	btfss	3,2
 11640     07E3  2FE5               	goto	u6651
 11641     07E4  2FE6               	goto	u6650
 11642     07E5                     u6651:
 11643     07E5  2FD6               	goto	l5382
 11644     07E6                     u6650:
 11645     07E6                     l5384:
 11646     07E6  0876               	movf	___fltol@sign1,w
 11647     07E7  1903               	btfsc	3,2
 11648     07E8  2FEA               	goto	u6661
 11649     07E9  2FEB               	goto	u6660
 11650     07EA                     u6661:
 11651     07EA  2FF6               	goto	l877
 11652     07EB                     u6660:
 11653     07EB                     l5386:
 11654     07EB  09C8               	comf	___fltol@f1,f
 11655     07EC  09C9               	comf	___fltol@f1+1,f
 11656     07ED  09CA               	comf	___fltol@f1+2,f
 11657     07EE  09CB               	comf	___fltol@f1+3,f
 11658     07EF  0AC8               	incf	___fltol@f1,f
 11659     07F0  1903               	skipnz
 11660     07F1  0AC9               	incf	___fltol@f1+1,f
 11661     07F2  1903               	skipnz
 11662     07F3  0ACA               	incf	___fltol@f1+2,f
 11663     07F4  1903               	skipnz
 11664     07F5  0ACB               	incf	___fltol@f1+3,f
 11665     07F6                     l877:
 11666     07F6                     l867:
 11667     07F6  0008               	return
 11668     07F7                     __end_of___fltol:
 11669                           
 11670                           	psect	text51
 11671     0A45                     __ptext51:	
 11672 ;; *************** function ___fldiv *****************
 11673 ;; Defined at:
 11674 ;;		line 8 in file "C:\Program Files\Microchip\xc8\v2.50\pic\sources\c99\common\sprcdiv.c"
 11675 ;; Parameters:    Size  Location     Type
 11676 ;;  a               4   14[BANK0 ] long 
 11677 ;;  b               4   18[BANK0 ] long 
 11678 ;; Auto vars:     Size  Location     Type
 11679 ;;  grs             4   34[BANK0 ] unsigned long 
 11680 ;;  rem             4   27[BANK0 ] unsigned long 
 11681 ;;  new_exp         2   32[BANK0 ] short 
 11682 ;;  aexp            1   39[BANK0 ] unsigned char 
 11683 ;;  bexp            1   38[BANK0 ] unsigned char 
 11684 ;;  sign            1   31[BANK0 ] unsigned char 
 11685 ;; Return value:  Size  Location     Type
 11686 ;;                  4   14[BANK0 ] unsigned char 
 11687 ;; Registers used:
 11688 ;;		wreg, status,2, status,0, btemp+1
 11689 ;; Tracked objects:
 11690 ;;		On entry : 0/0
 11691 ;;		On exit  : 0/0
 11692 ;;		Unchanged: 0/0
 11693 ;; Data sizes:     COMMON   BANK0   BANK1   BANK3   BANK2
 11694 ;;      Params:         0       8       0       0       0
 11695 ;;      Locals:         0      13       0       0       0
 11696 ;;      Temps:          0       5       0       0       0
 11697 ;;      Totals:         0      26       0       0       0
 11698 ;;Total ram usage:       26 bytes
 11699 ;; Hardware stack levels used: 1
 11700 ;; Hardware stack levels required when called: 1
 11701 ;; This function calls:
 11702 ;;		Nothing
 11703 ;; This function is called by:
 11704 ;;		_main
 11705 ;; This function uses a non-reentrant model
 11706 ;;
 11707                           
 11708     0A45                     ___fldiv:	
 11709                           ;psect for function ___fldiv
 11710                           
 11711     0A45                     l5388:	
 11712                           ;incstack = 0
 11713                           ; Regs used in ___fldiv: [wreg+status,2+status,0+btemp+1]
 11714                           
 11715     0A45  1283               	bcf	3,5	;RP0=0, select bank0
 11716     0A46  1303               	bcf	3,6	;RP1=0, select bank0
 11717     0A47  0835               	movf	___fldiv@b+3,w
 11718     0A48  00BF               	movwf	___fldiv@sign
 11719     0A49                     l5390:
 11720     0A49  3080               	movlw	128
 11721     0A4A  05BF               	andwf	___fldiv@sign,f
 11722     0A4B                     l5392:
 11723     0A4B  0835               	movf	___fldiv@b+3,w
 11724     0A4C  00B6               	movwf	??___fldiv
 11725     0A4D  0736               	addwf	??___fldiv,w
 11726     0A4E  00C6               	movwf	___fldiv@bexp
 11727     0A4F                     l5394:
 11728     0A4F  1FB4               	btfss	___fldiv@b+2,7
 11729     0A50  2A52               	goto	u6671
 11730     0A51  2A53               	goto	u6670
 11731     0A52                     u6671:
 11732     0A52  2A54               	goto	l5398
 11733     0A53                     u6670:
 11734     0A53                     l5396:
 11735     0A53  1446               	bsf	___fldiv@bexp,0
 11736     0A54                     l5398:
 11737     0A54  0846               	movf	___fldiv@bexp,w
 11738     0A55  1903               	btfsc	3,2
 11739     0A56  2A58               	goto	u6681
 11740     0A57  2A59               	goto	u6680
 11741     0A58                     u6681:
 11742     0A58  2A69               	goto	l5408
 11743     0A59                     u6680:
 11744     0A59                     l5400:
 11745     0A59  0A46               	incf	___fldiv@bexp,w
 11746     0A5A  1D03               	btfss	3,2
 11747     0A5B  2A5D               	goto	u6691
 11748     0A5C  2A5E               	goto	u6690
 11749     0A5D                     u6691:
 11750     0A5D  2A66               	goto	l5404
 11751     0A5E                     u6690:
 11752     0A5E                     l5402:
 11753     0A5E  3000               	movlw	0
 11754     0A5F  00B5               	movwf	___fldiv@b+3
 11755     0A60  3000               	movlw	0
 11756     0A61  00B4               	movwf	___fldiv@b+2
 11757     0A62  3000               	movlw	0
 11758     0A63  00B3               	movwf	___fldiv@b+1
 11759     0A64  3000               	movlw	0
 11760     0A65  00B2               	movwf	___fldiv@b
 11761     0A66                     l5404:
 11762     0A66  17B4               	bsf	___fldiv@b+2,7
 11763     0A67                     l5406:
 11764     0A67  01B5               	clrf	___fldiv@b+3
 11765     0A68  2A71               	goto	l5410
 11766     0A69                     l5408:
 11767     0A69  3000               	movlw	0
 11768     0A6A  00B5               	movwf	___fldiv@b+3
 11769     0A6B  3000               	movlw	0
 11770     0A6C  00B4               	movwf	___fldiv@b+2
 11771     0A6D  3000               	movlw	0
 11772     0A6E  00B3               	movwf	___fldiv@b+1
 11773     0A6F  3000               	movlw	0
 11774     0A70  00B2               	movwf	___fldiv@b
 11775     0A71                     l5410:
 11776     0A71  0831               	movf	___fldiv@a+3,w
 11777     0A72  3980               	andlw	128
 11778     0A73  06BF               	xorwf	___fldiv@sign,f
 11779     0A74                     l5412:
 11780     0A74  0831               	movf	___fldiv@a+3,w
 11781     0A75  00B6               	movwf	??___fldiv
 11782     0A76  0736               	addwf	??___fldiv,w
 11783     0A77  00C7               	movwf	___fldiv@aexp
 11784     0A78                     l5414:
 11785     0A78  1FB0               	btfss	___fldiv@a+2,7
 11786     0A79  2A7B               	goto	u6701
 11787     0A7A  2A7C               	goto	u6700
 11788     0A7B                     u6701:
 11789     0A7B  2A7D               	goto	l5418
 11790     0A7C                     u6700:
 11791     0A7C                     l5416:
 11792     0A7C  1447               	bsf	___fldiv@aexp,0
 11793     0A7D                     l5418:
 11794     0A7D  0847               	movf	___fldiv@aexp,w
 11795     0A7E  1903               	btfsc	3,2
 11796     0A7F  2A81               	goto	u6711
 11797     0A80  2A82               	goto	u6710
 11798     0A81                     u6711:
 11799     0A81  2A92               	goto	l5428
 11800     0A82                     u6710:
 11801     0A82                     l5420:
 11802     0A82  0A47               	incf	___fldiv@aexp,w
 11803     0A83  1D03               	btfss	3,2
 11804     0A84  2A86               	goto	u6721
 11805     0A85  2A87               	goto	u6720
 11806     0A86                     u6721:
 11807     0A86  2A8F               	goto	l5424
 11808     0A87                     u6720:
 11809     0A87                     l5422:
 11810     0A87  3000               	movlw	0
 11811     0A88  00B1               	movwf	___fldiv@a+3
 11812     0A89  3000               	movlw	0
 11813     0A8A  00B0               	movwf	___fldiv@a+2
 11814     0A8B  3000               	movlw	0
 11815     0A8C  00AF               	movwf	___fldiv@a+1
 11816     0A8D  3000               	movlw	0
 11817     0A8E  00AE               	movwf	___fldiv@a
 11818     0A8F                     l5424:
 11819     0A8F  17B0               	bsf	___fldiv@a+2,7
 11820     0A90                     l5426:
 11821     0A90  01B1               	clrf	___fldiv@a+3
 11822     0A91  2A9A               	goto	l1030
 11823     0A92                     l5428:
 11824     0A92  3000               	movlw	0
 11825     0A93  00B1               	movwf	___fldiv@a+3
 11826     0A94  3000               	movlw	0
 11827     0A95  00B0               	movwf	___fldiv@a+2
 11828     0A96  3000               	movlw	0
 11829     0A97  00AF               	movwf	___fldiv@a+1
 11830     0A98  3000               	movlw	0
 11831     0A99  00AE               	movwf	___fldiv@a
 11832     0A9A                     l1030:
 11833     0A9A  0831               	movf	___fldiv@a+3,w
 11834     0A9B  0430               	iorwf	___fldiv@a+2,w
 11835     0A9C  042F               	iorwf	___fldiv@a+1,w
 11836     0A9D  042E               	iorwf	___fldiv@a,w
 11837     0A9E  1D03               	skipz
 11838     0A9F  2AA1               	goto	u6731
 11839     0AA0  2AA2               	goto	u6730
 11840     0AA1                     u6731:
 11841     0AA1  2AB9               	goto	l5438
 11842     0AA2                     u6730:
 11843     0AA2                     l5430:
 11844     0AA2  3000               	movlw	0
 11845     0AA3  00B5               	movwf	___fldiv@b+3
 11846     0AA4  3000               	movlw	0
 11847     0AA5  00B4               	movwf	___fldiv@b+2
 11848     0AA6  3000               	movlw	0
 11849     0AA7  00B3               	movwf	___fldiv@b+1
 11850     0AA8  3000               	movlw	0
 11851     0AA9  00B2               	movwf	___fldiv@b
 11852     0AAA  3080               	movlw	128
 11853     0AAB  04B4               	iorwf	___fldiv@b+2,f
 11854     0AAC  307F               	movlw	127
 11855     0AAD  04B5               	iorwf	___fldiv@b+3,f
 11856     0AAE                     l5432:
 11857     0AAE  083F               	movf	___fldiv@sign,w
 11858     0AAF  04B5               	iorwf	___fldiv@b+3,f
 11859     0AB0                     l5434:
 11860     0AB0  0835               	movf	___fldiv@b+3,w
 11861     0AB1  00B1               	movwf	?___fldiv+3
 11862     0AB2  0834               	movf	___fldiv@b+2,w
 11863     0AB3  00B0               	movwf	?___fldiv+2
 11864     0AB4  0833               	movf	___fldiv@b+1,w
 11865     0AB5  00AF               	movwf	?___fldiv+1
 11866     0AB6  0832               	movf	___fldiv@b,w
 11867     0AB7  00AE               	movwf	?___fldiv
 11868     0AB8  2C0E               	goto	l1032
 11869     0AB9                     l5438:
 11870     0AB9  0846               	movf	___fldiv@bexp,w
 11871     0ABA  1D03               	btfss	3,2
 11872     0ABB  2ABD               	goto	u6741
 11873     0ABC  2ABE               	goto	u6740
 11874     0ABD                     u6741:
 11875     0ABD  2AC7               	goto	l5444
 11876     0ABE                     u6740:
 11877     0ABE                     l5440:
 11878     0ABE  3000               	movlw	0
 11879     0ABF  00B1               	movwf	?___fldiv+3
 11880     0AC0  3000               	movlw	0
 11881     0AC1  00B0               	movwf	?___fldiv+2
 11882     0AC2  3000               	movlw	0
 11883     0AC3  00AF               	movwf	?___fldiv+1
 11884     0AC4  3000               	movlw	0
 11885     0AC5  00AE               	movwf	?___fldiv
 11886     0AC6  2C0E               	goto	l1032
 11887     0AC7                     l5444:
 11888     0AC7  0846               	movf	___fldiv@bexp,w
 11889     0AC8  00B6               	movwf	??___fldiv
 11890     0AC9  01B7               	clrf	??___fldiv+1
 11891     0ACA  0837               	movf	??___fldiv+1,w
 11892     0ACB  00B9               	movwf	??___fldiv+3
 11893     0ACC  0847               	movf	___fldiv@aexp,w
 11894     0ACD  0236               	subwf	??___fldiv,w
 11895     0ACE  00B8               	movwf	??___fldiv+2
 11896     0ACF  1C03               	skipc
 11897     0AD0  03B9               	decf	??___fldiv+3,f
 11898     0AD1  0838               	movf	??___fldiv+2,w
 11899     0AD2  3E7F               	addlw	127
 11900     0AD3  00C0               	movwf	___fldiv@new_exp
 11901     0AD4  0839               	movf	??___fldiv+3,w
 11902     0AD5  1803               	skipnc
 11903     0AD6  3E01               	addlw	1
 11904     0AD7  3E00               	addlw	0
 11905     0AD8  00C1               	movwf	___fldiv@new_exp+1
 11906     0AD9                     l5446:
 11907     0AD9  0835               	movf	___fldiv@b+3,w
 11908     0ADA  00BE               	movwf	___fldiv@rem+3
 11909     0ADB  0834               	movf	___fldiv@b+2,w
 11910     0ADC  00BD               	movwf	___fldiv@rem+2
 11911     0ADD  0833               	movf	___fldiv@b+1,w
 11912     0ADE  00BC               	movwf	___fldiv@rem+1
 11913     0ADF  0832               	movf	___fldiv@b,w
 11914     0AE0  00BB               	movwf	___fldiv@rem
 11915     0AE1                     l5448:
 11916     0AE1  3000               	movlw	0
 11917     0AE2  00B5               	movwf	___fldiv@b+3
 11918     0AE3  3000               	movlw	0
 11919     0AE4  00B4               	movwf	___fldiv@b+2
 11920     0AE5  3000               	movlw	0
 11921     0AE6  00B3               	movwf	___fldiv@b+1
 11922     0AE7  3000               	movlw	0
 11923     0AE8  00B2               	movwf	___fldiv@b
 11924     0AE9                     l5450:
 11925     0AE9  3000               	movlw	0
 11926     0AEA  00C5               	movwf	___fldiv@grs+3
 11927     0AEB  3000               	movlw	0
 11928     0AEC  00C4               	movwf	___fldiv@grs+2
 11929     0AED  3000               	movlw	0
 11930     0AEE  00C3               	movwf	___fldiv@grs+1
 11931     0AEF  3000               	movlw	0
 11932     0AF0  00C2               	movwf	___fldiv@grs
 11933     0AF1                     l5452:
 11934     0AF1  01C7               	clrf	___fldiv@aexp
 11935     0AF2  2B3B               	goto	l5472
 11936     0AF3                     l5454:
 11937     0AF3  0847               	movf	___fldiv@aexp,w
 11938     0AF4  1903               	btfsc	3,2
 11939     0AF5  2AF7               	goto	u6751
 11940     0AF6  2AF8               	goto	u6750
 11941     0AF7                     u6751:
 11942     0AF7  2B18               	goto	l5464
 11943     0AF8                     u6750:
 11944     0AF8                     l5456:
 11945     0AF8  3001               	movlw	1
 11946     0AF9  00B6               	movwf	??___fldiv
 11947     0AFA                     u6765:
 11948     0AFA  1003               	clrc
 11949     0AFB  0DBB               	rlf	___fldiv@rem,f
 11950     0AFC  0DBC               	rlf	___fldiv@rem+1,f
 11951     0AFD  0DBD               	rlf	___fldiv@rem+2,f
 11952     0AFE  0DBE               	rlf	___fldiv@rem+3,f
 11953     0AFF  0BB6               	decfsz	??___fldiv,f
 11954     0B00  2AFA               	goto	u6765
 11955     0B01  3001               	movlw	1
 11956     0B02  00B6               	movwf	??___fldiv
 11957     0B03                     u6775:
 11958     0B03  1003               	clrc
 11959     0B04  0DB2               	rlf	___fldiv@b,f
 11960     0B05  0DB3               	rlf	___fldiv@b+1,f
 11961     0B06  0DB4               	rlf	___fldiv@b+2,f
 11962     0B07  0DB5               	rlf	___fldiv@b+3,f
 11963     0B08  0BB6               	decfsz	??___fldiv,f
 11964     0B09  2B03               	goto	u6775
 11965     0B0A                     l5458:
 11966     0B0A  1FC5               	btfss	___fldiv@grs+3,7
 11967     0B0B  2B0D               	goto	u6781
 11968     0B0C  2B0E               	goto	u6780
 11969     0B0D                     u6781:
 11970     0B0D  2B0F               	goto	l5462
 11971     0B0E                     u6780:
 11972     0B0E                     l5460:
 11973     0B0E  1432               	bsf	___fldiv@b,0
 11974     0B0F                     l5462:
 11975     0B0F  3001               	movlw	1
 11976     0B10  00B6               	movwf	??___fldiv
 11977     0B11                     u6795:
 11978     0B11  1003               	clrc
 11979     0B12  0DC2               	rlf	___fldiv@grs,f
 11980     0B13  0DC3               	rlf	___fldiv@grs+1,f
 11981     0B14  0DC4               	rlf	___fldiv@grs+2,f
 11982     0B15  0DC5               	rlf	___fldiv@grs+3,f
 11983     0B16  0BB6               	decfsz	??___fldiv,f
 11984     0B17  2B11               	goto	u6795
 11985     0B18                     l5464:
 11986     0B18  0831               	movf	___fldiv@a+3,w
 11987     0B19  023E               	subwf	___fldiv@rem+3,w
 11988     0B1A  1D03               	skipz
 11989     0B1B  2B26               	goto	u6805
 11990     0B1C  0830               	movf	___fldiv@a+2,w
 11991     0B1D  023D               	subwf	___fldiv@rem+2,w
 11992     0B1E  1D03               	skipz
 11993     0B1F  2B26               	goto	u6805
 11994     0B20  082F               	movf	___fldiv@a+1,w
 11995     0B21  023C               	subwf	___fldiv@rem+1,w
 11996     0B22  1D03               	skipz
 11997     0B23  2B26               	goto	u6805
 11998     0B24  082E               	movf	___fldiv@a,w
 11999     0B25  023B               	subwf	___fldiv@rem,w
 12000     0B26                     u6805:
 12001     0B26  1C03               	skipc
 12002     0B27  2B29               	goto	u6801
 12003     0B28  2B2A               	goto	u6800
 12004     0B29                     u6801:
 12005     0B29  2B39               	goto	l5470
 12006     0B2A                     u6800:
 12007     0B2A                     l5466:
 12008     0B2A  1745               	bsf	___fldiv@grs+3,6
 12009     0B2B                     l5468:
 12010     0B2B  082E               	movf	___fldiv@a,w
 12011     0B2C  02BB               	subwf	___fldiv@rem,f
 12012     0B2D  082F               	movf	___fldiv@a+1,w
 12013     0B2E  1C03               	skipc
 12014     0B2F  0F2F               	incfsz	___fldiv@a+1,w
 12015     0B30  02BC               	subwf	___fldiv@rem+1,f
 12016     0B31  0830               	movf	___fldiv@a+2,w
 12017     0B32  1C03               	skipc
 12018     0B33  0F30               	incfsz	___fldiv@a+2,w
 12019     0B34  02BD               	subwf	___fldiv@rem+2,f
 12020     0B35  0831               	movf	___fldiv@a+3,w
 12021     0B36  1C03               	skipc
 12022     0B37  0F31               	incfsz	___fldiv@a+3,w
 12023     0B38  02BE               	subwf	___fldiv@rem+3,f
 12024     0B39                     l5470:
 12025     0B39  3001               	movlw	1
 12026     0B3A  07C7               	addwf	___fldiv@aexp,f
 12027     0B3B                     l5472:
 12028     0B3B  301A               	movlw	26
 12029     0B3C  0247               	subwf	___fldiv@aexp,w
 12030     0B3D  1C03               	skipc
 12031     0B3E  2B40               	goto	u6811
 12032     0B3F  2B41               	goto	u6810
 12033     0B40                     u6811:
 12034     0B40  2AF3               	goto	l5454
 12035     0B41                     u6810:
 12036     0B41                     l5474:
 12037     0B41  083E               	movf	___fldiv@rem+3,w
 12038     0B42  043D               	iorwf	___fldiv@rem+2,w
 12039     0B43  043C               	iorwf	___fldiv@rem+1,w
 12040     0B44  043B               	iorwf	___fldiv@rem,w
 12041     0B45  1903               	skipnz
 12042     0B46  2B48               	goto	u6821
 12043     0B47  2B49               	goto	u6820
 12044     0B48                     u6821:
 12045     0B48  2B68               	goto	l5488
 12046     0B49                     u6820:
 12047     0B49                     l5476:
 12048     0B49  1442               	bsf	___fldiv@grs,0
 12049     0B4A  2B68               	goto	l5488
 12050     0B4B                     l5478:
 12051     0B4B  3001               	movlw	1
 12052     0B4C  00B6               	movwf	??___fldiv
 12053     0B4D                     u6835:
 12054     0B4D  1003               	clrc
 12055     0B4E  0DB2               	rlf	___fldiv@b,f
 12056     0B4F  0DB3               	rlf	___fldiv@b+1,f
 12057     0B50  0DB4               	rlf	___fldiv@b+2,f
 12058     0B51  0DB5               	rlf	___fldiv@b+3,f
 12059     0B52  0BB6               	decfsz	??___fldiv,f
 12060     0B53  2B4D               	goto	u6835
 12061     0B54                     l5480:
 12062     0B54  1FC5               	btfss	___fldiv@grs+3,7
 12063     0B55  2B57               	goto	u6841
 12064     0B56  2B58               	goto	u6840
 12065     0B57                     u6841:
 12066     0B57  2B59               	goto	l5484
 12067     0B58                     u6840:
 12068     0B58                     l5482:
 12069     0B58  1432               	bsf	___fldiv@b,0
 12070     0B59                     l5484:
 12071     0B59  3001               	movlw	1
 12072     0B5A  00B6               	movwf	??___fldiv
 12073     0B5B                     u6855:
 12074     0B5B  1003               	clrc
 12075     0B5C  0DC2               	rlf	___fldiv@grs,f
 12076     0B5D  0DC3               	rlf	___fldiv@grs+1,f
 12077     0B5E  0DC4               	rlf	___fldiv@grs+2,f
 12078     0B5F  0DC5               	rlf	___fldiv@grs+3,f
 12079     0B60  0BB6               	decfsz	??___fldiv,f
 12080     0B61  2B5B               	goto	u6855
 12081     0B62                     l5486:
 12082     0B62  30FF               	movlw	255
 12083     0B63  07C0               	addwf	___fldiv@new_exp,f
 12084     0B64  1803               	skipnc
 12085     0B65  0AC1               	incf	___fldiv@new_exp+1,f
 12086     0B66  30FF               	movlw	255
 12087     0B67  07C1               	addwf	___fldiv@new_exp+1,f
 12088     0B68                     l5488:
 12089     0B68  1FB4               	btfss	___fldiv@b+2,7
 12090     0B69  2B6B               	goto	u6861
 12091     0B6A  2B6C               	goto	u6860
 12092     0B6B                     u6861:
 12093     0B6B  2B4B               	goto	l5478
 12094     0B6C                     u6860:
 12095     0B6C                     l5490:
 12096     0B6C  01C7               	clrf	___fldiv@aexp
 12097     0B6D                     l5492:
 12098     0B6D  1FC5               	btfss	___fldiv@grs+3,7
 12099     0B6E  2B70               	goto	u6871
 12100     0B6F  2B71               	goto	u6870
 12101     0B70                     u6871:
 12102     0B70  2B8D               	goto	l5500
 12103     0B71                     u6870:
 12104     0B71                     l5494:
 12105     0B71  30FF               	movlw	255
 12106     0B72  0542               	andwf	___fldiv@grs,w
 12107     0B73  00B6               	movwf	??___fldiv
 12108     0B74  30FF               	movlw	255
 12109     0B75  0543               	andwf	___fldiv@grs+1,w
 12110     0B76  00B7               	movwf	??___fldiv+1
 12111     0B77  30FF               	movlw	255
 12112     0B78  0544               	andwf	___fldiv@grs+2,w
 12113     0B79  00B8               	movwf	??___fldiv+2
 12114     0B7A  307F               	movlw	127
 12115     0B7B  0545               	andwf	___fldiv@grs+3,w
 12116     0B7C  00B9               	movwf	??___fldiv+3
 12117     0B7D  0839               	movf	??___fldiv+3,w
 12118     0B7E  0438               	iorwf	??___fldiv+2,w
 12119     0B7F  0437               	iorwf	??___fldiv+1,w
 12120     0B80  0436               	iorwf	??___fldiv,w
 12121     0B81  1903               	skipnz
 12122     0B82  2B84               	goto	u6881
 12123     0B83  2B85               	goto	u6880
 12124     0B84                     u6881:
 12125     0B84  2B88               	goto	l1046
 12126     0B85                     u6880:
 12127     0B85                     l5496:
 12128     0B85  3001               	movlw	1
 12129     0B86  00C7               	movwf	___fldiv@aexp
 12130     0B87  2B8D               	goto	l5500
 12131     0B88                     l1046:
 12132     0B88  1C32               	btfss	___fldiv@b,0
 12133     0B89  2B8B               	goto	u6891
 12134     0B8A  2B8C               	goto	u6890
 12135     0B8B                     u6891:
 12136     0B8B  2B8D               	goto	l5500
 12137     0B8C                     u6890:
 12138     0B8C  2B85               	goto	l5496
 12139     0B8D                     l5500:
 12140     0B8D  0847               	movf	___fldiv@aexp,w
 12141     0B8E  1903               	btfsc	3,2
 12142     0B8F  2B91               	goto	u6901
 12143     0B90  2B92               	goto	u6900
 12144     0B91                     u6901:
 12145     0B91  2BC3               	goto	l5510
 12146     0B92                     u6900:
 12147     0B92                     l5502:
 12148     0B92  3001               	movlw	1
 12149     0B93  07B2               	addwf	___fldiv@b,f
 12150     0B94  3000               	movlw	0
 12151     0B95  1803               	skipnc
 12152     0B96  3001               	movlw	1
 12153     0B97  07B3               	addwf	___fldiv@b+1,f
 12154     0B98  3000               	movlw	0
 12155     0B99  1803               	skipnc
 12156     0B9A  3001               	movlw	1
 12157     0B9B  07B4               	addwf	___fldiv@b+2,f
 12158     0B9C  3000               	movlw	0
 12159     0B9D  1803               	skipnc
 12160     0B9E  3001               	movlw	1
 12161     0B9F  07B5               	addwf	___fldiv@b+3,f
 12162     0BA0                     l5504:
 12163     0BA0  1C35               	btfss	___fldiv@b+3,0
 12164     0BA1  2BA3               	goto	u6911
 12165     0BA2  2BA4               	goto	u6910
 12166     0BA3                     u6911:
 12167     0BA3  2BC3               	goto	l5510
 12168     0BA4                     u6910:
 12169     0BA4                     l5506:
 12170     0BA4  0832               	movf	___fldiv@b,w
 12171     0BA5  00B6               	movwf	??___fldiv
 12172     0BA6  0833               	movf	___fldiv@b+1,w
 12173     0BA7  00B7               	movwf	??___fldiv+1
 12174     0BA8  0834               	movf	___fldiv@b+2,w
 12175     0BA9  00B8               	movwf	??___fldiv+2
 12176     0BAA  0835               	movf	___fldiv@b+3,w
 12177     0BAB  00B9               	movwf	??___fldiv+3
 12178     0BAC  3001               	movlw	1
 12179     0BAD  00BA               	movwf	??___fldiv+4
 12180     0BAE                     u6925:
 12181     0BAE  0D39               	rlf	??___fldiv+3,w
 12182     0BAF  0CB9               	rrf	??___fldiv+3,f
 12183     0BB0  0CB8               	rrf	??___fldiv+2,f
 12184     0BB1  0CB7               	rrf	??___fldiv+1,f
 12185     0BB2  0CB6               	rrf	??___fldiv,f
 12186     0BB3                     u6920:
 12187     0BB3  0BBA               	decfsz	??___fldiv+4,f
 12188     0BB4  2BAE               	goto	u6925
 12189     0BB5  0839               	movf	??___fldiv+3,w
 12190     0BB6  00B5               	movwf	___fldiv@b+3
 12191     0BB7  0838               	movf	??___fldiv+2,w
 12192     0BB8  00B4               	movwf	___fldiv@b+2
 12193     0BB9  0837               	movf	??___fldiv+1,w
 12194     0BBA  00B3               	movwf	___fldiv@b+1
 12195     0BBB  0836               	movf	??___fldiv,w
 12196     0BBC  00B2               	movwf	___fldiv@b
 12197     0BBD                     l5508:
 12198     0BBD  3001               	movlw	1
 12199     0BBE  07C0               	addwf	___fldiv@new_exp,f
 12200     0BBF  1803               	skipnc
 12201     0BC0  0AC1               	incf	___fldiv@new_exp+1,f
 12202     0BC1  3000               	movlw	0
 12203     0BC2  07C1               	addwf	___fldiv@new_exp+1,f
 12204     0BC3                     l5510:
 12205     0BC3  0841               	movf	___fldiv@new_exp+1,w
 12206     0BC4  3A80               	xorlw	128
 12207     0BC5  00FF               	movwf	btemp+1
 12208     0BC6  3080               	movlw	128
 12209     0BC7  027F               	subwf	btemp+1,w
 12210     0BC8  1D03               	skipz
 12211     0BC9  2BCC               	goto	u6935
 12212     0BCA  30FF               	movlw	255
 12213     0BCB  0240               	subwf	___fldiv@new_exp,w
 12214     0BCC                     u6935:
 12215     0BCC  1C03               	skipc
 12216     0BCD  2BCF               	goto	u6931
 12217     0BCE  2BD0               	goto	u6930
 12218     0BCF                     u6931:
 12219     0BCF  2BDE               	goto	l5514
 12220     0BD0                     u6930:
 12221     0BD0                     l5512:
 12222     0BD0  30FF               	movlw	255
 12223     0BD1  1283               	bcf	3,5	;RP0=0, select bank0
 12224     0BD2  1303               	bcf	3,6	;RP1=0, select bank0
 12225     0BD3  00C0               	movwf	___fldiv@new_exp
 12226     0BD4  3000               	movlw	0
 12227     0BD5  00C1               	movwf	___fldiv@new_exp+1
 12228     0BD6  3000               	movlw	0
 12229     0BD7  00B5               	movwf	___fldiv@b+3
 12230     0BD8  3000               	movlw	0
 12231     0BD9  00B4               	movwf	___fldiv@b+2
 12232     0BDA  3000               	movlw	0
 12233     0BDB  00B3               	movwf	___fldiv@b+1
 12234     0BDC  3000               	movlw	0
 12235     0BDD  00B2               	movwf	___fldiv@b
 12236     0BDE                     l5514:
 12237     0BDE  1283               	bcf	3,5	;RP0=0, select bank0
 12238     0BDF  1303               	bcf	3,6	;RP1=0, select bank0
 12239     0BE0  0841               	movf	___fldiv@new_exp+1,w
 12240     0BE1  3A80               	xorlw	128
 12241     0BE2  00FF               	movwf	btemp+1
 12242     0BE3  3080               	movlw	128
 12243     0BE4  027F               	subwf	btemp+1,w
 12244     0BE5  1D03               	skipz
 12245     0BE6  2BE9               	goto	u6945
 12246     0BE7  3001               	movlw	1
 12247     0BE8  0240               	subwf	___fldiv@new_exp,w
 12248     0BE9                     u6945:
 12249     0BE9  1803               	skipnc
 12250     0BEA  2BEC               	goto	u6941
 12251     0BEB  2BED               	goto	u6940
 12252     0BEC                     u6941:
 12253     0BEC  2BFA               	goto	l1052
 12254     0BED                     u6940:
 12255     0BED                     l5516:
 12256     0BED  1283               	bcf	3,5	;RP0=0, select bank0
 12257     0BEE  1303               	bcf	3,6	;RP1=0, select bank0
 12258     0BEF  01C0               	clrf	___fldiv@new_exp
 12259     0BF0  01C1               	clrf	___fldiv@new_exp+1
 12260     0BF1                     l5518:
 12261     0BF1  3000               	movlw	0
 12262     0BF2  00B5               	movwf	___fldiv@b+3
 12263     0BF3  3000               	movlw	0
 12264     0BF4  00B4               	movwf	___fldiv@b+2
 12265     0BF5  3000               	movlw	0
 12266     0BF6  00B3               	movwf	___fldiv@b+1
 12267     0BF7  3000               	movlw	0
 12268     0BF8  00B2               	movwf	___fldiv@b
 12269     0BF9                     l5520:
 12270     0BF9  01BF               	clrf	___fldiv@sign
 12271     0BFA                     l1052:
 12272     0BFA  1283               	bcf	3,5	;RP0=0, select bank0
 12273     0BFB  1303               	bcf	3,6	;RP1=0, select bank0
 12274     0BFC  0840               	movf	___fldiv@new_exp,w
 12275     0BFD  00C6               	movwf	___fldiv@bexp
 12276     0BFE                     l5522:
 12277     0BFE  1C46               	btfss	___fldiv@bexp,0
 12278     0BFF  2C01               	goto	u6951
 12279     0C00  2C02               	goto	u6950
 12280     0C01                     u6951:
 12281     0C01  2C04               	goto	l5526
 12282     0C02                     u6950:
 12283     0C02                     l5524:
 12284     0C02  17B4               	bsf	___fldiv@b+2,7
 12285     0C03  2C06               	goto	l1054
 12286     0C04                     l5526:
 12287     0C04  307F               	movlw	127
 12288     0C05  05B4               	andwf	___fldiv@b+2,f
 12289     0C06                     l1054:
 12290     0C06  0846               	movf	___fldiv@bexp,w
 12291     0C07  00B6               	movwf	??___fldiv
 12292     0C08  1003               	clrc
 12293     0C09  0C36               	rrf	??___fldiv,w
 12294     0C0A  00B5               	movwf	___fldiv@b+3
 12295     0C0B  083F               	movf	___fldiv@sign,w
 12296     0C0C  04B5               	iorwf	___fldiv@b+3,f
 12297     0C0D  2AB0               	goto	l5434
 12298     0C0E                     l1032:
 12299     0C0E  0008               	return
 12300     0C0F                     __end_of___fldiv:
 12301                           
 12302                           	psect	text52
 12303     1180                     __ptext52:	
 12304 ;; *************** function _isr *****************
 12305 ;; Defined at:
 12306 ;;		line 10 in file "isr.c"
 12307 ;; Parameters:    Size  Location     Type
 12308 ;;		None
 12309 ;; Auto vars:     Size  Location     Type
 12310 ;;		None
 12311 ;; Return value:  Size  Location     Type
 12312 ;;                  1    wreg      void 
 12313 ;; Registers used:
 12314 ;;		wreg, status,2, status,0
 12315 ;; Tracked objects:
 12316 ;;		On entry : 0/0
 12317 ;;		On exit  : 0/0
 12318 ;;		Unchanged: 0/0
 12319 ;; Data sizes:     COMMON   BANK0   BANK1   BANK3   BANK2
 12320 ;;      Params:         0       0       0       0       0
 12321 ;;      Locals:         0       0       0       0       0
 12322 ;;      Temps:          2       0       0       0       0
 12323 ;;      Totals:         2       0       0       0       0
 12324 ;;Total ram usage:        2 bytes
 12325 ;; Hardware stack levels used: 1
 12326 ;; This function calls:
 12327 ;;		Nothing
 12328 ;; This function is called by:
 12329 ;;		Interrupt level 1
 12330 ;; This function uses a non-reentrant model
 12331 ;;
 12332                           
 12333     1180                     _isr:	
 12334                           ;psect for function _isr
 12335                           
 12336     1180                     i1l4264:
 12337                           
 12338                           ;isr.c: 12:     static unsigned int count = 0;;isr.c: 14:     if (TMR2IF == 1)
 12339     1180  1283               	bcf	3,5	;RP0=0, select bank0
 12340     1181  1303               	bcf	3,6	;RP1=0, select bank0
 12341     1182  1C8C               	btfss	12,1	;volatile
 12342     1183  2985               	goto	u488_21
 12343     1184  2986               	goto	u488_20
 12344     1185                     u488_21:
 12345     1185  29AE               	goto	i1l539
 12346     1186                     u488_20:
 12347     1186                     i1l4266:
 12348                           
 12349                           ;isr.c: 15:     {;isr.c: 16:         if (++count == 1250)
 12350     1186  3001               	movlw	1
 12351     1187  1683               	bsf	3,5	;RP0=1, select bank1
 12352     1188  1303               	bcf	3,6	;RP1=0, select bank1
 12353     1189  07A3               	addwf	isr@count^(0+128),f
 12354     118A  1803               	skipnc
 12355     118B  0AA4               	incf	(isr@count+1)^(0+128),f
 12356     118C  3000               	movlw	0
 12357     118D  07A4               	addwf	(isr@count+1)^(0+128),f
 12358     118E  30E2               	movlw	226
 12359     118F  0623               	xorwf	isr@count^(0+128),w
 12360     1190  3004               	movlw	4
 12361     1191  1903               	skipnz
 12362     1192  0624               	xorwf	(isr@count+1)^(0+128),w
 12363     1193  1D03               	btfss	3,2
 12364     1194  2996               	goto	u489_21
 12365     1195  2997               	goto	u489_20
 12366     1196                     u489_21:
 12367     1196  29AC               	goto	i1l4278
 12368     1197                     u489_20:
 12369     1197                     i1l4268:
 12370                           
 12371                           ;isr.c: 17:         {;isr.c: 18:             count = 0;
 12372     1197  01A3               	clrf	isr@count^(0+128)
 12373     1198  01A4               	clrf	(isr@count+1)^(0+128)
 12374     1199                     i1l4270:
 12375                           
 12376                           ;isr.c: 19:             if(sec > 0)
 12377     1199  1283               	bcf	3,5	;RP0=0, select bank0
 12378     119A  1303               	bcf	3,6	;RP1=0, select bank0
 12379     119B  0856               	movf	_sec,w
 12380     119C  1903               	btfsc	3,2
 12381     119D  299F               	goto	u490_21
 12382     119E  29A0               	goto	u490_20
 12383     119F                     u490_21:
 12384     119F  29A3               	goto	i1l4274
 12385     11A0                     u490_20:
 12386     11A0                     i1l4272:
 12387                           
 12388                           ;isr.c: 20:                 sec--;
 12389     11A0  3001               	movlw	1
 12390     11A1  02D6               	subwf	_sec,f
 12391     11A2  29AC               	goto	i1l4278
 12392     11A3                     i1l4274:
 12393     11A3  1683               	bsf	3,5	;RP0=1, select bank1
 12394     11A4  1303               	bcf	3,6	;RP1=0, select bank1
 12395     11A5  083A               	movf	_return_time^(0+128),w
 12396     11A6  1903               	btfsc	3,2
 12397     11A7  29A9               	goto	u491_21
 12398     11A8  29AA               	goto	u491_20
 12399     11A9                     u491_21:
 12400     11A9  29AC               	goto	i1l4278
 12401     11AA                     u491_20:
 12402     11AA                     i1l4276:
 12403                           
 12404                           ;isr.c: 22:                 return_time--;
 12405     11AA  3001               	movlw	1
 12406     11AB  02BA               	subwf	_return_time^(0+128),f
 12407     11AC                     i1l4278:
 12408                           
 12409                           ;isr.c: 25:         TMR2IF = 0;
 12410     11AC  1283               	bcf	3,5	;RP0=0, select bank0
 12411     11AD  108C               	bcf	12,1	;volatile
 12412     11AE                     i1l539:
 12413     11AE  0871               	movf	??_isr+1,w
 12414     11AF  008A               	movwf	10
 12415     11B0  0E70               	swapf	??_isr,w
 12416     11B1  0083               	movwf	3
 12417     11B2  0EFE               	swapf	btemp,f
 12418     11B3  0E7E               	swapf	btemp,w
 12419     11B4  0009               	retfie
 12420     11B5                     __end_of_isr:
 12421     0002                     ___latbits      equ	2
 12422     007E                     btemp           set	126	;btemp
 12423     007E                     wtemp0          set	126
 12424                           
 12425                           	psect	intentry
 12426     0004                     __pintentry:	
 12427                           ;incstack = 0
 12428                           ; Regs used in _isr: [wreg+status,2+status,0]
 12429                           
 12430     0004                     interrupt_function:
 12431     007E                     saved_w         set	btemp
 12432     0004  00FE               	movwf	btemp
 12433     0005  0E03               	swapf	3,w
 12434     0006  00F0               	movwf	??_isr
 12435     0007  080A               	movf	10,w
 12436     0008  00F1               	movwf	??_isr+1
 12437     0009  160A  118A  2980   	ljmp	_isr
 12438                           
 12439                           	psect	config
 12440                           
 12441                           ;Config register CONFIG @ 0x2007
 12442                           ;	Oscillator Selection bits
 12443                           ;	FOSC = 0x3, unprogrammed default
 12444                           ;	Watchdog Timer Enable bit
 12445                           ;	WDTE = OFF, WDT disabled
 12446                           ;	Power-up Timer Enable bit
 12447                           ;	PWRTE = 0x1, unprogrammed default
 12448                           ;	Brown-out Reset Enable bit
 12449                           ;	BOREN = 0x1, unprogrammed default
 12450                           ;	Low-Voltage (Single-Supply) In-Circuit Serial Programming Enable bit
 12451                           ;	LVP = 0x1, unprogrammed default
 12452                           ;	Data EEPROM Memory Code Protection bit
 12453                           ;	CPD = 0x1, unprogrammed default
 12454                           ;	Flash Program Memory Write Enable bits
 12455                           ;	WRT = 0x3, unprogrammed default
 12456                           ;	In-Circuit Debugger Mode bit
 12457                           ;	DEBUG = 0x1, unprogrammed default
 12458                           ;	Flash Program Memory Code Protection bit
 12459                           ;	CP = 0x1, unprogrammed default
 12460     2007                     	org	8199
 12461     2007  3FFB               	dw	16379

Data Sizes:
    Strings     360
    Constant    0
    Data        28
    BSS         64
    Persistent  0
    Stack       0

Auto Spaces:
    Space          Size  Autos    Used
    COMMON           14      9      12
    BANK0            80     52      58
    BANK1            80      0      71
    BANK3            96     24      36
    BANK2            96      0       0

Pointer List with Targets:

    clcd_print@str	PTR const unsigned char  size(2) Largest target is 18
		 -> main@event(BANK3[3]), STR_15(CODE[9]), STR_16(CODE[10]), STR_17(CODE[13]), 
		 -> STR_18(CODE[9]), STR_19(CODE[14]), STR_20(CODE[15]), STR_23(CODE[13]), 
		 -> STR_24(CODE[13]), STR_25(CODE[13]), STR_26(CODE[13]), STR_27(CODE[13]), 
		 -> STR_28(CODE[13]), STR_29(CODE[16]), STR_30(CODE[16]), STR_31(CODE[17]), 
		 -> STR_32(CODE[17]), STR_33(CODE[17]), STR_34(CODE[17]), STR_35(CODE[13]), 
		 -> STR_36(CODE[18]), STR_37(CODE[14]), STR_38(CODE[16]), STR_39(CODE[10]), 
		 -> STR_40(CODE[5]), STR_41(CODE[15]), STR_42(CODE[14]), STR_43(CODE[15]), 
		 -> STR_9(CODE[15]), 

    display_dashboard@event	PTR unsigned char  size(1) Largest target is 3
		 -> main@event(BANK3[3]), 

    log_event@event	PTR unsigned char  size(1) Largest target is 3
		 -> main@event(BANK3[3]), 

    main@F1256	PTR unsigned char [6] size(2) Largest target is 3
		 -> STR_1(CODE[3]), STR_2(CODE[3]), STR_3(CODE[3]), STR_4(CODE[3]), 
		 -> STR_5(CODE[3]), STR_6(CODE[3]), 

    main@gear	PTR unsigned char [6] size(2) Largest target is 3
		 -> STR_1(CODE[3]), STR_2(CODE[3]), STR_3(CODE[3]), STR_4(CODE[3]), 
		 -> STR_5(CODE[3]), STR_6(CODE[3]), 

    menu	PTR unsigned char [5] size(2) Largest target is 14
		 -> STR_15(CODE[9]), STR_16(CODE[10]), STR_17(CODE[13]), STR_18(CODE[9]), 
		 -> STR_19(CODE[14]), 

    sp__strcpy	PTR unsigned char  size(1) Largest target is 3
		 -> main@event(BANK3[3]), 

    sp__strncpy	PTR unsigned char  size(1) Largest target is 11
		 -> log(BANK1[11]), 

    str_write_externaleeprom@data	PTR unsigned char  size(2) Largest target is 11
		 -> change_password@new_passwd(BANK1[4]), log(BANK1[11]), STR_7(CODE[5]), 

    strcpy@d	PTR unsigned char  size(1) Largest target is 3
		 -> main@event(BANK3[3]), 

    strcpy@dest	PTR unsigned char  size(1) Largest target is 3
		 -> main@event(BANK3[3]), 

    strcpy@src	PTR const unsigned char  size(2) Largest target is 3
		 -> STR_1(CODE[3]), STR_10(CODE[3]), STR_11(CODE[3]), STR_12(CODE[3]), 
		 -> STR_13(CODE[3]), STR_14(CODE[3]), STR_2(CODE[3]), STR_3(CODE[3]), 
		 -> STR_4(CODE[3]), STR_5(CODE[3]), STR_6(CODE[3]), STR_8(CODE[3]), 

    strncmp@l	PTR const unsigned char  size(1) Largest target is 4
		 -> change_password@re_passwd(BANK1[4]), login_screen@user_passwd(BANK1[4]), 

    strncmp@r	PTR const unsigned char  size(1) Largest target is 4
		 -> change_password@new_passwd(BANK1[4]), login_screen@spasswd(BANK0[4]), 

    strncpy@cp	PTR unsigned char  size(1) Largest target is 11
		 -> log(BANK1[11]), 

    strncpy@d	PTR unsigned char  size(1) Largest target is 11
		 -> log(BANK1[11]), 

    strncpy@s	PTR const unsigned char  size(2) Largest target is 7
		 -> main@event(BANK3[3]), time(BANK1[7]), 

    uart_puts@s	PTR const unsigned char  size(2) Largest target is 9
		 -> STR_21(CODE[9]), STR_22(CODE[9]), 


Critical Paths under _main in COMMON

    _main->_clcd_print
    _view_log->_clcd_print
    _view_log->_clcd_putch
    _set_time->_clcd_print
    _set_time->_clcd_putch
    _menu_screen->_clcd_print
    _menu_screen->_clcd_putch
    _login_screen->_clcd_print
    _login_screen->_clcd_putch
    _log_event->_log_event_eeprom
    _log_event->_strncpy
    _log_event_eeprom->_str_write_externaleeprom
    _init_uart->___lldiv
    _init_i2c->___lldiv
    _init_ds1307->_read_ds1307
    _write_ds1307->_i2c_write
    _init_clcd->_init_display_controller
    _init_display_controller->_clcd_write
    _download_log->___wmul
    _uart_puts->_uart_putchar
    _read_externaleeprom->_i2c_read
    _display_dashboard->_clcd_print
    _display_dashboard->_clcd_putch
    _display_time->_clcd_putch
    _get_time->_read_ds1307
    _read_ds1307->_i2c_read
    _clear_log->_clcd_print
    _change_password->_clcd_print
    _change_password->_clcd_putch
    _str_write_externaleeprom->_write_externaleeprom
    _write_externaleeprom->_i2c_write
    _clear_screen->_clcd_write
    _clcd_putch->___awmod
    _clcd_print->_clcd_write
    ___xxtofl->_read_adc
    ___fltol->_read_adc
    ___fldiv->_read_adc

Critical Paths under _isr in COMMON

    None.

Critical Paths under _main in BANK0

    _main->___fltol
    _view_log->_clcd_putch
    _set_time->_clcd_putch
    _menu_screen->_clcd_putch
    _login_screen->_clcd_putch
    _log_event->___awdiv
    _init_config->_init_i2c
    _init_config->_init_uart
    _init_uart->___lldiv
    _init_i2c->___lldiv
    _display_dashboard->_clcd_putch
    _display_time->_clcd_putch
    _change_password->_clcd_putch
    _clcd_putch->___awdiv
    ___fltol->___fldiv
    ___fldiv->___xxtofl

Critical Paths under _isr in BANK0

    None.

Critical Paths under _main in BANK1

    None.

Critical Paths under _isr in BANK1

    None.

Critical Paths under _main in BANK3

    None.

Critical Paths under _isr in BANK3

    None.

Critical Paths under _main in BANK2

    None.

Critical Paths under _isr in BANK2

    None.

Call Graph Tables:

 ---------------------------------------------------------------------------------
 (Depth) Function   	        Calls       Base Space   Used Autos Params    Refs
 ---------------------------------------------------------------------------------
 (0) _main                                                28    28      0   25019
                                             48 BANK0      4     4      0
                                              0 BANK3     24    24      0
                            ___fldiv
                            ___fltol
                           ___xxtofl
                    _change_password
                         _clcd_print
                         _clcd_write
                          _clear_log
                       _clear_screen
                  _display_dashboard
                       _download_log
                        _init_config
                          _log_event
                       _login_screen
                        _menu_screen
                           _read_adc
                _read_digital_keypad
                           _set_time
           _str_write_externaleeprom
                             _strcpy
                           _view_log
 ---------------------------------------------------------------------------------
 (1) _view_log                                            15    15      0    2062
                                              5 BANK0     15    15      0
                             ___bmul
                             ___wmul
                         _clcd_print
                         _clcd_putch
                _read_externaleeprom
 ---------------------------------------------------------------------------------
 (2) _strcpy                                               6     3      3     175
                                              2 COMMON     6     3      3
 ---------------------------------------------------------------------------------
 (1) _set_time                                             4     4      0    1486
                                              5 BANK0      4     4      0
                         _clcd_print
                         _clcd_putch
                       _clear_screen
                       _write_ds1307
 ---------------------------------------------------------------------------------
 (1) _read_digital_keypad                                  2     2      0      47
                                              2 COMMON     2     2      0
 ---------------------------------------------------------------------------------
 (1) _read_adc                                             4     2      2      34
                                              2 COMMON     4     2      2
 ---------------------------------------------------------------------------------
 (1) _menu_screen                                          3     3      0    1349
                                              5 BANK0      3     3      0
                         _clcd_print
                         _clcd_putch
                       _clear_screen
 ---------------------------------------------------------------------------------
 (1) _login_screen                                        10     9      1    3109
                                              5 BANK0     10     9      1
                            ___awdiv
                            ___awmod
                         _clcd_print
                         _clcd_putch
                         _clcd_write
                       _clear_screen
                _read_externaleeprom
                            _strncmp
 ---------------------------------------------------------------------------------
 (1) _log_event                                            4     2      2    2149
                                              4 BANK0      4     2      2
                            ___awdiv
                            ___awmod
                           _get_time
                   _log_event_eeprom
                            _strncpy
 ---------------------------------------------------------------------------------
 (2) _strncpy                                              8     3      5     314
                                              2 COMMON     7     2      5
                                              0 BANK0      1     1      0
 ---------------------------------------------------------------------------------
 (2) _log_event_eeprom                                     1     1      0     478
                                              8 COMMON     1     1      0
                             ___bmul
           _str_write_externaleeprom
 ---------------------------------------------------------------------------------
 (1) _init_config                                          0     0      0    1166
                           _init_adc
                          _init_clcd
                _init_digital_keypad
                        _init_ds1307
                           _init_i2c
                        _init_timer2
                          _init_uart
 ---------------------------------------------------------------------------------
 (2) _init_uart                                            8     4      4     287
                                              8 BANK0      8     4      4
                            ___lldiv
 ---------------------------------------------------------------------------------
 (2) _init_timer2                                          0     0      0       0
 ---------------------------------------------------------------------------------
 (2) _init_i2c                                             8     4      4     287
                                              8 BANK0      8     4      4
                            ___lldiv
 ---------------------------------------------------------------------------------
 (3) ___lldiv                                             14     6      8     253
                                              2 COMMON     6     6      0
                                              0 BANK0      8     0      8
 ---------------------------------------------------------------------------------
 (2) _init_ds1307                                          1     1      0     383
                                              6 COMMON     1     1      0
                        _read_ds1307
                       _write_ds1307
 ---------------------------------------------------------------------------------
 (2) _write_ds1307                                         2     1      1     137
                                              3 COMMON     2     1      1
                          _i2c_start
                           _i2c_stop
                          _i2c_write
 ---------------------------------------------------------------------------------
 (2) _init_digital_keypad                                  0     0      0       0
 ---------------------------------------------------------------------------------
 (2) _init_clcd                                            0     0      0     209
            _init_display_controller
 ---------------------------------------------------------------------------------
 (3) _init_display_controller                              2     2      0     209
                                              6 COMMON     2     2      0
                         _clcd_write
 ---------------------------------------------------------------------------------
 (2) _init_adc                                             0     0      0       0
 ---------------------------------------------------------------------------------
 (1) _download_log                                        16    16      0    1181
                                              0 BANK0     16    16      0
                             ___bmul
                             ___wmul
                _read_externaleeprom
                       _uart_putchar
                          _uart_puts
 ---------------------------------------------------------------------------------
 (2) _uart_puts                                            2     0      2     118
                                              3 COMMON     2     0      2
                       _uart_putchar
 ---------------------------------------------------------------------------------
 (3) _uart_putchar                                         1     1      0      47
                                              2 COMMON     1     1      0
 ---------------------------------------------------------------------------------
 (2) _read_externaleeprom                                  2     2      0     209
                                              4 COMMON     2     2      0
                           _i2c_read
                      _i2c_rep_start
                          _i2c_start
                           _i2c_stop
                          _i2c_write
 ---------------------------------------------------------------------------------
 (2) ___wmul                                               6     2      4     148
                                              2 COMMON     6     2      4
 ---------------------------------------------------------------------------------
 (2) ___bmul                                               3     2      1     186
                                              2 COMMON     3     2      1
 ---------------------------------------------------------------------------------
 (1) _display_dashboard                                    4     2      2    2653
                                              5 BANK0      4     2      2
                            ___awdiv
                            ___awmod
                         _clcd_print
                         _clcd_putch
                       _display_time
 ---------------------------------------------------------------------------------
 (2) _display_time                                         0     0      0     688
                         _clcd_putch
                           _get_time
 ---------------------------------------------------------------------------------
 (2) _get_time                                             1     1      0     209
                                              6 COMMON     1     1      0
                        _read_ds1307
 ---------------------------------------------------------------------------------
 (3) _read_ds1307                                          2     2      0     209
                                              4 COMMON     2     2      0
                           _i2c_read
                      _i2c_rep_start
                          _i2c_start
                           _i2c_stop
                          _i2c_write
 ---------------------------------------------------------------------------------
 (3) _i2c_rep_start                                        0     0      0       0
                          _i2c_start
                           _i2c_stop
 ---------------------------------------------------------------------------------
 (3) _i2c_read                                             2     2      0      81
                                              2 COMMON     2     2      0
                  _i2c_wait_for_idle
 ---------------------------------------------------------------------------------
 (2) ___awmod                                              6     2      4     451
                                              2 COMMON     6     2      4
 ---------------------------------------------------------------------------------
 (2) ___awdiv                                              8     4      4     463
                                              2 COMMON     4     0      4
                                              0 BANK0      4     4      0
 ---------------------------------------------------------------------------------
 (1) _clear_log                                            0     0      0     473
                         _clcd_print
 ---------------------------------------------------------------------------------
 (1) _change_password                                      5     4      1    2128
                                              5 BANK0      5     4      1
                         _clcd_print
                         _clcd_putch
                         _clcd_write
                       _clear_screen
           _str_write_externaleeprom
                            _strncmp
 ---------------------------------------------------------------------------------
 (2) _strncmp                                              6     2      4     275
                                              2 COMMON     6     2      4
 ---------------------------------------------------------------------------------
 (1) _str_write_externaleeprom                             3     1      2     255
                                              5 COMMON     3     1      2
               _write_externaleeprom
 ---------------------------------------------------------------------------------
 (2) _write_externaleeprom                                 2     1      1     128
                                              3 COMMON     2     1      1
                          _i2c_start
                           _i2c_stop
                          _i2c_write
 ---------------------------------------------------------------------------------
 (3) _i2c_write                                            1     1      0      47
                                              2 COMMON     1     1      0
                  _i2c_wait_for_idle
 ---------------------------------------------------------------------------------
 (3) _i2c_stop                                             0     0      0       0
                  _i2c_wait_for_idle
 ---------------------------------------------------------------------------------
 (3) _i2c_start                                            0     0      0       0
                  _i2c_wait_for_idle
 ---------------------------------------------------------------------------------
 (4) _i2c_wait_for_idle                                    0     0      0       0
 ---------------------------------------------------------------------------------
 (2) _clear_screen                                         2     2      0     209
                                              6 COMMON     2     2      0
                         _clcd_write
 ---------------------------------------------------------------------------------
 (2) _clcd_putch                                           2     1      1     479
                                              8 COMMON     1     1      0
                                              4 BANK0      1     0      1
                            ___awdiv (ARG)
                            ___awmod (ARG)
                         _clcd_write
 ---------------------------------------------------------------------------------
 (2) _clcd_print                                           3     0      3     473
                                              6 COMMON     3     0      3
                         _clcd_write
 ---------------------------------------------------------------------------------
 (3) _clcd_write                                           4     3      1     209
                                              2 COMMON     4     3      1
 ---------------------------------------------------------------------------------
 (1) ___xxtofl                                            14    10      4     511
                                              0 BANK0     14    10      4
                           _read_adc (ARG)
 ---------------------------------------------------------------------------------
 (1) ___fltol                                             10     6      4     340
                                              6 COMMON     2     2      0
                                             40 BANK0      8     4      4
                            ___fldiv (ARG)
                           ___xxtofl (ARG)
                           _read_adc (ARG)
 ---------------------------------------------------------------------------------
 (1) ___fldiv                                             26    18      8    1692
                                             14 BANK0     26    18      8
                           ___xxtofl (ARG)
                           _read_adc (ARG)
 ---------------------------------------------------------------------------------
 Estimated maximum stack depth 4
 ---------------------------------------------------------------------------------
 (Depth) Function   	        Calls       Base Space   Used Autos Params    Refs
 ---------------------------------------------------------------------------------
 (8) _isr                                                  2     2      0       0
                                              0 COMMON     2     2      0
 ---------------------------------------------------------------------------------
 Estimated maximum stack depth 8
 ---------------------------------------------------------------------------------

 Call Graph Graphs:

 _main (ROOT)
   ___fldiv
     ___xxtofl (ARG)
       _read_adc (ARG)
     _read_adc (ARG)
   ___fltol
     ___fldiv (ARG)
     ___xxtofl (ARG)
     _read_adc (ARG)
   ___xxtofl
   _change_password
     _clcd_print
       _clcd_write
     _clcd_putch
       ___awdiv (ARG)
       ___awmod (ARG)
       _clcd_write (ARG)
     _clcd_write
     _clear_screen
       _clcd_write
     _str_write_externaleeprom
       _write_externaleeprom
         _i2c_start
           _i2c_wait_for_idle
         _i2c_stop
           _i2c_wait_for_idle
         _i2c_write
           _i2c_wait_for_idle
     _strncmp
   _clcd_print
   _clcd_write
   _clear_log
     _clcd_print
   _clear_screen
   _display_dashboard
     ___awdiv
     ___awmod
     _clcd_print
     _clcd_putch
     _display_time
       _clcd_putch
       _get_time
         _read_ds1307
           _i2c_read
             _i2c_wait_for_idle
           _i2c_rep_start
             _i2c_start
             _i2c_stop
           _i2c_start
           _i2c_stop
           _i2c_write
   _download_log
     ___bmul
     ___wmul
     _read_externaleeprom
       _i2c_read
       _i2c_rep_start
       _i2c_start
       _i2c_stop
       _i2c_write
     _uart_putchar
     _uart_puts
       _uart_putchar
   _init_config
     _init_adc
     _init_clcd
       _init_display_controller
         _clcd_write
     _init_digital_keypad
     _init_ds1307
       _read_ds1307
       _write_ds1307
         _i2c_start
         _i2c_stop
         _i2c_write
     _init_i2c
       ___lldiv
     _init_timer2
     _init_uart
       ___lldiv
   _log_event
     ___awdiv
     ___awmod
     _get_time
     _log_event_eeprom
       ___bmul
       _str_write_externaleeprom
     _strncpy
   _login_screen
     ___awdiv
     ___awmod
     _clcd_print
     _clcd_putch
     _clcd_write
     _clear_screen
     _read_externaleeprom
     _strncmp
   _menu_screen
     _clcd_print
     _clcd_putch
     _clear_screen
   _read_adc
   _read_digital_keypad
   _set_time
     _clcd_print
     _clcd_putch
     _clear_screen
     _write_ds1307
   _str_write_externaleeprom
   _strcpy
   _view_log
     ___bmul
     ___wmul
     _clcd_print
     _clcd_putch
     _read_externaleeprom

 _isr (ROOT)

Address spaces:
Name               Size   Autos  Total    Usage
BANK3               96     24      36     37.5%
BITBANK3            96      0       0      0.0%
BANK2               96      0       0      0.0%
BITBANK2            96      0       0      0.0%
BANK1               80      0      71     88.8%
BITBANK1            80      0       0      0.0%
BANK0               80     52      58     72.5%
BITBANK0            80      0       0      0.0%
COMMON              14      9      12     85.7%
BITCOMMON           14      0       0      0.0%
DATA                 0      0     177      0.0%
STACK                0      0       0      0.0%


Microchip Technology PIC Macro Assembler V2.50 build 20240725155939 
Symbol Table                                                                                   Mon Nov 04 08:46:33 2024

                    ___fldiv@aexp 0047                      ___fldiv@bexp 0046                                 pc 0002  
                    ___fldiv@sign 003F              _write_externaleeprom 1DED                    ___bmul@product 0073  
                  clcd_print@addr 0078                                l20 14C7                                l23 1D40  
                              l32 1F6A                                l17 11EA                                l26 1DBC  
                              l52 1F10                                l55 1E28                                l49 1D97  
                              l90 1D59                                l84 1FFF                                l93 1D14  
                              l87 1D4D                                l96 1D2A                                _GO 00FA  
                              l99 07FF                      ___awdiv@sign 0021                                fsr 0004  
             ___wmul@multiplicand 0074                               l102 1E44                               l103 1E47  
                             l104 1E49                               l107 1D1F                               l212 0456  
                             l320 12FD                               l225 03B9                               l242 1CFC  
                             l170 1224                               l218 0391                               l323 1464  
                             l326 1351                               l270 1D9B                               l406 0F98  
                             l512 1F3B                               l248 1F99                               l192 0337  
                             l521 1EE5                               l361 17FF                               l273 1DA9  
                             l346 16E4                               l515 1E0A                               l267 1D03  
                             l364 1DEC                               l436 0780                               l390 0FFF  
                             l464 0648                               l552 1D66                               l480 0A44  
                             l393 0C8D                               l580 1D34                               l492 09CF  
                             l581 1D35                               l709 0889                               l469 1EBA  
                             l496 1402                               l673 1E56                               l569 1FCB  
                             l826 152C                               l499 1D85                               l675 1E6E  
                             l579 1D30                               l587 1E94                               l839 13A8  
                             l874 07E1                               l867 07F6                               l699 1DCF  
                             l877 07F6                               _GIE 005F                               _RE1 0049  
                             _RE2 004A                               _PR2 0092                               _PEN 048A  
                             _SEN 0488                     ?_display_time 0070                               _log 00BB  
                             _sec 0056                               _isr 1180                    clcd_putch@addr 0024  
                             _pos 0058                               fsr0 0004                    clcd_putch@data 0078  
                             indf 0000                      ___awmod@sign 0077  __end_of_str_write_externaleeprom 1EE6  
                    ___fltol@exp1 0077                              l1030 0A9A                              l1032 0C0E  
                            l1120 1590                              l1114 1551                              l1115 1562  
                            l1052 0BFA                              l1116 15E2                              l1054 0C06  
                            l1046 0B88                              l1127 15AC                              l1135 0823  
                            l1128 15B8                              l1154 1265                              l1139 12B0  
           ??_read_digital_keypad 0072                              l5000 0C38                              l5010 0C65  
                            l5002 0C3B                              l4300 1D20                              l5100 0DC6  
                            l5020 0C79                              l5012 0C6A                              l5004 0C40  
                            l4310 1E40                              l4302 1E2A                              l5110 0DDB  
                            l5102 0DC8                              l5030 0C96                              l5022 0C7F  
                            l5006 0C4B                              l4320 11C3                              l4312 1E48  
                            l4304 1E2F                              l4400 1DBE                              l5200 0F81  
                            l5120 0E2E                              l5112 0DDC                              l5104 0DCE  
                            l5040 0CBA                              l5032 0C9A                              l5024 0C84  
                            l5008 0C56                              l5016 0C6C                              l6000 02AC  
                            l4330 11D9                              l4322 11C4                              l4306 1E37  
                            l4410 1DCE                              l4402 1DBF                              l5202 0F83  
                            l5210 0F96                              l5130 0E66                              l5122 0E3C  
                            l5106 0DD4                              l5114 0DDE                              l5042 0CC5  
                            l5034 0CA7                              l5050 0CDB                              l5026 0C8C  
                            l5018 0C72                              l6010 02E3                              l6002 02B2  
                            l4332 11DE                              l4324 11C9                              l4316 11B6  
                            l5300 057F                              l4308 1E3B                              l4404 1DC3  
                            l4420 0844                              l5220 0FF6                              l5204 0F89  
                            l5140 0E8D                              l5132 0E70                              l5124 0E48  
                            l5116 0DE3                              l5108 0DD9                              l5060 0CF4  
                            l5052 0CE1                              l5044 0CD4                              l5036 0CAA  
                            l5028 0C8F                              l6020 02FE                              l6012 02E6  
                            l6004 02C1                              l4334 11E1                              l4326 11CC  
                            l4318 11C0                              l4342 1DEE                              l4510 1290  
                            l4502 1277                              l5310 05AB                              l5302 0587  
                            l5230 046D                              l4406 1DC5                              l4350 1484  
                            l4430 0872                              l4422 0848                              l4414 0824  
                            l5222 0FFE                              l5214 0FB2                              l5206 0F8F  
                            l5150 0EA3                              l5142 0E93                              l5134 0E7A  
                            l5126 0E54                              l5118 0E27                              l5070 0D51  
                            l5054 0CE8                              l5046 0CD9                              l5038 0CAF  
                            l5062 0CF6                              l6030 0332                              l6022 0304  
                            l6006 02C6                              l6014 02EA                              l6102 0437  
                            l5400 0A59                              l4328 11D8                              l4280 1D4D  
                            l4512 1296                              l4504 127B                              l5320 05E2  
                            l5304 0596                              l5312 05B6                              l5240 0478  
                            l5232 046E                              l4600 1528                              l4336 1EE7  
                            l4408 1DC7                              l4360 14A6                              l4352 1489  
                            l4344 1465                              l4440 1D39                              l4432 087B  
                            l4424 0851                              l4416 0836                              l4520 1E95  
                            l5216 0FBA                              l5208 0F94                              l5144 0E99  
                            l5152 0EA5                              l5136 0E81                              l5160 0EB8  
                            l5128 0E58                              l5080 0D89                              l5072 0D5F  
                            l5064 0D01                              l5056 0CED                              l6040 0350  
                            l6024 0313                              l6016 02F2                              l6008 02CD  
                            l5410 0A71                              l5402 0A5E                              l4450 1F54  
                            l4282 1D53                              l4290 07FC                              l4514 12A2  
                            l4506 1281                              l5330 0617                              l5322 05E9  
                            l5314 05BF                              l5306 059F                              l5250 04A9  
                            l5242 0487                              l5234 046F                              l5226 0461  
                            l4610 135C                              l4338 1F0F                              l4362 14AB  
                            l4354 1490                              l4346 146D                              l4442 1D3A  
                            l4370 1E0C                              l4426 0863                              l4418 0839  
                            l4434 0881                              l4522 1E9D                              l5218 0FDC  
                            l5170 0F0C                              l5162 0EB9                              l5154 0EAB  
                            l5146 0E9B                              l5138 0E87                              l5090 0DB0  
                            l5082 0D93                              l5074 0D6B                              l5066 0D06  
                            l5058 0CF2                              l6050 036B                              l6042 0357  
                            l6034 0338                              l6026 0318                              l6018 02F8  
                            l5500 0B8D                              l5420 0A82                              l5412 0A74  
                            l5404 0A66                              l4452 1F5A                              l4284 1D0C  
                            l4292 1D16                              l4380 1ED5                              l4372 1EBC  
                            l4508 1289                              l5340 062C                              l5324 05F3  
                            l5316 05C3                              l5308 05A5                              l5260 04D9  
                            l5252 04B8                              l5244 048F                              l5236 0470  
                            l5228 0467                              l4620 1370                              l4612 135E  
                            l4604 1352                              l4364 14BB                              l4356 1493  
                            l4348 1474                              l4444 1D3B                              l4428 0871  
                            l4460 1FCC                              l4524 1EA4                              l5180 0F44  
                            l5172 0F1A                              l5156 0EB1                              l5148 0EA1  
                            l5164 0EBB                              l5092 0DB6                              l5084 0D9D  
                            l5076 0D77                              l5068 0D4A                              l4700 0805  
                            l6060 03A1                              l6052 0376                              l6044 035E  
                            l6036 0348                              l6028 031B                              l5502 0B92  
                            l5510 0BC3                              l5430 0AA2                              l5422 0A87  
                            l5414 0A78                              l5406 0A67                              l4446 1F3C  
                            l4286 1D11                              l4294 1D1B                              l4374 1EBD  
                            l5342 0637                              l5326 05FE                              l5318 05D6  
                            l5270 0501                              l5262 04E6                              l5254 04C0  
                            l5246 0495                              l5238 0471                              l4630 138D  
                            l4622 1377                              l4614 1362                              l4606 1353  
                            l4390 12E8                              l4382 12B1                              l4702 12FE  
                            l4550 1E50                              l4366 14C2                              l4358 149A  
                            l4438 1D36                              l4454 1D86                              l4462 1FCF  
                            l4470 1D5A                              l4526 1EA6                              l4518 1E95  
                            l4710 0893                              l5190 0F6B                              l5182 0F4E  
                            l5174 0F26                              l5166 0EC1                              l5158 0EB6  
                            l5094 0DBC                              l5086 0DA4                              l5078 0D7B  
                            l6070 03D5                              l6062 03A6                              l6046 0362  
                            l6038 034D                              l5520 0BF9                              l5512 0BD0  
                            l5504 0BA0                              l5440 0ABE                              l5432 0AAE  
                            l5424 0A8F                              l5416 0A7C                              l5408 0A69  
                            l5360 07A8                              l5352 0781                              l4448 1F44  
                            l4368 1DAB                              l4288 07F7                              l4296 1D1F  
                            l4376 1ECD                              l5328 0609                              l5336 0619  
                            l5280 0523                              l5272 0508                              l5264 04EA  
                            l5256 04C6                              l5248 04A1                              l4560 14C8  
                            l4632 1394                              l4624 1379                              l4616 1367  
                            l4608 1357                              l4392 12EC                              l4384 12CC  
                            l4480 1403                              l4704 1309                              l4552 1E5D  
                            l4456 1D8D                              l4464 1FFC                              l4472 1F9A  
                            l4528 1EB0                              l4800 09E7                              l4720 08AF  
                            l4712 089C                              l5192 0F71                              l5184 0F58  
                            l5176 0F32                              l5168 0F05                              l5096 0DBE  
                            l5088 0DAA                              l6080 03F9                              l6064 03AD  
                            l6056 037E                              l6048 0367                              l5522 0BFE  
                            l5514 0BDE                              l5506 0BA4                              l5450 0AE9  
                            l5434 0AB0                              l5426 0A90                              l5418 0A7D  
                            l5362 07A9                              l5354 078C                              l4378 1ED3  
                            l5338 0625                              l5290 054F                              l5282 0529  
                            l5266 04EF                              l5274 0510                              l5258 04D1  
                            l4570 14DA                              l4562 14CB                              l4626 137D  
                            l4618 136D                              l4634 139A                              l4394 12F8  
                            l4386 12D8                              l4706 130E                              l4554 1E64  
                            l4546 1E4A                              l4490 1F12                              l4482 1E6F  
                            l4466 1CFD                              l4458 1D8F                              l4474 1F9E  
                            l4650 1222                              l4642 11EB                              l4810 0A28  
                            l4802 09F2                              l4730 08C5                              l4714 08A0  
                            l5194 0F77                              l5186 0F5F                              l5178 0F36  
                            l5098 0DC4                              l6090 0427                              l6082 0410  
                            l6074 03D9                              l6066 03B3                              l6058 0394  
                            l5524 0C02                              l5516 0BED                              l5508 0BBD  
                            l5460 0B0E                              l5452 0AF1                              l5444 0AC7  
                            l5428 0A92                              l5364 07B1                              l5540 1559  
                            l5532 1530                              l4476 1D75                              l5348 0647  
                            l5292 055E                              l5284 052E                              l5276 0519  
                            l5268 04FA                              l4580 14EC                              l4572 14DF  
                            l4564 14CF                              l4636 139F                              l4628 1387  
                            l4396 12FC                              l4388 12DC                              l4556 1E6A  
                            l4548 1E4C                              l4492 1F3A                              l4484 1E70  
                            l4468 1CF7                              l4652 1223                              l4644 1204  
                            l4812 0A2F                              l4804 09FD                              l4740 08E1  
                            l4732 08C7                              l4724 08B1                              l4716 08A4  
                            l4708 088D                              l4820 15E6                              l5196 0F79  
                            l5188 0F65                              l4900 0679                              l6092 042C  
                            l6084 0414                              l6076 03E6                              l6068 03BE  
                            l5526 0C04                              l5518 0BF1                              l5470 0B39  
                            l5462 0B0F                              l5454 0AF3                              l5446 0AD9  
                            l5438 0AB9                              l5390 0A49                              l5382 07D6  
                            l5374 07BF                              l5366 07B3                              l5358 0795  
                            l5550 1579                              l5534 1535                              l4478 1D7C  
                            l5294 0567                              l5286 053C                              l5278 051F  
                            l4590 1510                              l4582 14F3                              l4574 14E1  
                            l4566 14D4                              l4638 13A4                              l4398 1D2C  
                            l4486 1E7E                              l4646 1209                              l4814 0A36  
                            l4806 0A18                              l4750 08FA                              l4742 08E7  
                            l4734 08D0                              l4726 08B9                              l4718 08A8  
                            l4830 1609                              l4822 15EC                              l4670 1F6C  
                            l5198 0F7F                              l4902 067F                              l4910 0691  
                            l6094 042F                              l6078 03F2                              l5480 0B54  
                            l5456 0AF8                              l5464 0B18                              l5472 0B3B  
                            l5448 0AE1                              l5392 0A4B                              l5384 07E6  
                            l5368 07B7                              l5376 07CF                              l5560 15B0  
                            l5552 1587                              l5544 1565                              l5536 1539  
                            l4496 1266                              l5296 056D                              l5288 0547  
                            l4592 1511                              l4584 14F5                              l4576 14E3  
                            l4568 14D6                              l4488 1E84                              l4648 1213  
                            l4816 0A3D                              l4808 0A1D                              l4760 090A  
                            l4744 08E9                              l4728 08BF                              l4736 08D5  
                            l4840 1628                              l4832 1610                              l4824 15F2  
                            l4664 1D98                              l4680 1F81                              l4672 1F71  
                            l4920 06CC                              l4912 069B                              l4904 0683  
                            l6088 0417                              l5490 0B6C                              l5482 0B58  
                            l5474 0B41                              l5466 0B2A                              l5458 0B0A  
                            l5394 0A4F                              l5386 07EB                              l5570 15DA  
                            l5562 15BA                              l5554 1597                              l5546 1570  
                            l5538 1549                              l4498 1274                              l5298 0573  
                            l4594 1518                              l4586 14F9                              l4578 14E9  
                            l4818 0A40                              l4770 0941                              l4762 0910  
                            l4738 08DB                              l4850 163A                              l4842 162B  
                            l4834 1618                              l4826 15FF                              l4666 1D9F  
                            l4682 1F88                              l4690 1F8A                              l4930 0712  
                            l4922 06D0                              l4906 0689                              l5492 0B6D  
                            l5484 0B59                              l5476 0B49                              l5468 0B2B  
                            l5396 0A53                              l5388 0A45                              l5564 15D0  
                            l5556 15A2                              l5548 1577                              l4588 150A  
                            l4596 151E                              l4780 095B                              l4772 0950  
                            l4764 0923                              l4756 08FB                              l4748 08F3  
                            l4860 165D                              l4852 1647                              l4836 161F  
                            l4828 1603                              l4692 1F94                              l4940 0744  
                            l4932 071C                              l4924 06F2                              l4916 06A7  
                            l4908 068D                              l5900 0190                              l5494 0B71  
                            l5486 0B62                              l5478 0B4B                              l5398 0A54  
                            l5566 15D5                              l5558 15A6                              l4598 1523  
                            l5830 1230                              l4790 098F                              l4782 0967  
                            l4766 092F                              l4758 0906                              l4862 1662  
                            l4854 164B                              l4838 1624                              l4846 162D  
                            l4694 1F98                              l4678 1F76                              l4950 0776  
                            l4942 074E                              l4934 0726                              l4926 06FD  
                            l4918 06B4                              l5910 01AE                              l5902 0195  
                            l5496 0B85                              l5488 0B68                              l5568 15D9  
                            l4952 1DD0                              l4960 16EC                              l5840 1257  
                            l4792 0994                              l4784 096E                              l4768 0936  
                            l4880 16AA                              l4864 1667                              l4856 1651  
                            l4872 1670                              l4848 1634                              l4944 0758  
                            l4936 0730                              l4928 0708                              l5920 01CA  
                            l5912 01B5                              l5904 0197                              _ADFM 04FF  
                            l4954 1DD6                              l4970 1710                              l4962 16F4  
                            l5834 124A                              l5826 1225                              l5850 13FD  
                            l5842 13A9                              l4794 09C8                              l4786 0979  
                            l4778 0952                              l4882 16B2                              l4874 1677  
                            l4866 166B                              l4858 1656                              l4698 0803  
                            l4946 0762                              l4938 073A                              l5930 01EA  
                            l5922 01D0                              l5914 01BC                              l5906 019C  
                            l4956 1DE1                              l4980 174B                              l4972 1719  
                            l4964 16FD                              l5836 1251                              l5828 122A  
                            l5844 13AE                              l4788 0984                              l4796 09D4  
                            l4884 16C7                              l4876 167F                              l4868 166E  
                            l4948 076C                              l4892 064C                              l5940 0210  
                            l5932 01ED                              l5924 01DF                              l5916 01C0  
                            l5908 01A7                              l5860 007D                              l5852 004A  
                            ?_isr 0070                              l4982 1770                              l4974 171E  
                            l4966 1700                              l4958 16E5                              l5838 1255  
                            l5846 13BD                              l4798 09E0                              l4886 16DC  
                            l4878 1694                              l4990 0C1C                              l4894 0652  
                            l5950 0223                              l5942 0214                              l5934 01F8  
                            l5926 01E1                              l5918 01C4                              l5870 00EA  
                            l5862 0087                              l5854 004F                              l4984 17ED  
                            l4976 172D                              l4968 1709                              l5848 13FC  
                            l4888 16E3                              l4992 0C1E                              l4896 0660  
                            l5952 0228                              l5944 0217                              l5936 0207  
                            l5928 01E6                              l5880 0123                              l5872 00EE  
                            l5864 0091                              l5856 0061                              l4978 1747  
                            l4986 17F1                              l4994 0C1F                              l4898 0676  
                            l5962 023B                              l5954 022C                              l5938 020B  
                            l5890 015D                              l5882 0129                              l5874 00FC  
                            l5866 00D8                              l5858 0078                              l4996 0C27  
                            l4988 0C12                              l5980 025F                              l5964 0240  
                            l5956 022F                              l5892 015F                              l5884 014D  
                            l5876 0102                              l5868 00E1                              l4998 0C2B  
                            l5982 026A                              l5974 0253                              l5966 0244  
                            l5990 0281                              l5894 0174                              l5886 0152  
                            l5878 011D                              l5984 0279                              l5976 0258  
                            l5968 0247                              l5992 0292                              l5888 0158  
                            l5896 0184                              l5994 029A                              l5986 027C  
                            l5978 025C                              l5898 018A                              l5996 02A0  
                            _ADON 00F8                              l5998 02A6                              STR_1 1162  
                            STR_2 115C                              STR_3 1147                              STR_4 114A  
                            STR_5 114D                              STR_6 1150                              STR_7 113F  
                            STR_8 1144                              STR_9 1095                              _CREN 00C4  
                            u5020 1D34                              u5005 12DF                              u5021 1D33  
                            u5030 1DC3                              u5110 0881                              u5015 12EF  
                            u5031 1DC2                              u5111 0880                              u5120 1F6A  
                            u5200 12A2                              u5040 1DCE                              u6000 0C8C  
                            u5121 1F69                              u5201 12A1                              u5041 1DCD  
                            u5105 0873                              u6001 0C8B                              u5050 0836  
                            u5130 1FDD                              u5210 1EA4                              u6010 0C96  
                            u5051 0835                              u5211 1EA3                              u6011 0C95  
                            u5300 14DA                              u5140 1FAC                              u6100 0DAA  
                            u6020 0CA7                              u5301 14D9                              u6101 0DA9  
                            u6021 0CA6                              u5310 14E9                              u5150 1E94  
                            u5070 0848                              u6110 0DB0                              u6030 0CE1  
                            u5311 14E8                              u5151 1E93                              u5071 0847  
                            u5135 1FD8                              u6111 0DAF                              u6031 0CE0  
                            u7000 1576                              u5160 1274                              u5400 1362  
                            u6200 0E87                              u6120 0DBC                              u6040 0CE8  
                            u7001 1575                              u5161 1273                              u5401 1361  
                            u5065 083B                              u5145 1FA7                              u6201 0E86  
                            u6121 0DBB                              u6041 0CE7                              u5170 1289  
                            u5330 14F9                              u5410 136D                              u5250 1E50  
                            u5090 0863                              u6210 0E8D                              u6130 0DC4  
                            u6050 0CED                              u5171 1288                              u5331 14F8  
                            u5411 136C                              u5251 1E4F                              u5091 0862  
                            u6211 0E8C                              u6131 0DC3                              u6051 0CEC  
                            _PEIE 005E                              u7020 1596                              u5180 1290  
                            u5500 1F81                              u6300 0F65                              u6220 0E99  
                            u6140 0DCE                              u6060 0CF2                              u7021 1595  
                            u5181 128F                              u5325 14ED                              u5085 084A  
                            u5501 1F80                              u6301 0F64                              u6221 0E98  
                            u6141 0DCD                              u6061 0CF1                              u5190 1296  
                            u5350 150A                              u5430 137D                              u5510 1F88  
                            u6310 0F6B                              u6230 0EA1                              u6150 0DD4  
                            u6070 0D06                              u7015 1588                              u5191 1295  
                            u5351 1509                              u5431 137C                              u5095 085F  
                            u5511 1F87                              u6311 0F6A                              u6231 0EA0  
                            u6151 0DD3                              u6071 0D05                              u7040 15A6  
                            u6400 0467                              u5440 1387                              u5280 1E6A  
                            u5600 08FA                              u5520 1F94                              u6320 0F77  
                            u6240 0EAB                              u6160 0DD9                              u6080 0D51  
                            u7041 15A5                              u6401 0466                              u5345 14FA  
                            u5441 1386                              u5425 1371                              u5281 1E69  
                            u5265 1E57                              u5601 08F9                              u5521 1F93  
                            u6321 0F76                              u6241 0EAA                              u6161 0DD8  
                            u6081 0D50                              u7050 15AC                              u6410 0478  
                            u5370 151E                              u5290 14CF                              u5610 0910  
                            u6330 0F7F                              u6250 0EB1                              u6170 0DE3  
                            u6090 0DA4                              u5530 0823                              u7051 15AB  
                            u7035 159B                              u6411 0477                              u5371 151D  
                            u5355 1506                              u5291 14CE                              u5275 1E5E  
                            u5611 090F                              u6331 0F7E                              u6251 0EB0  
                            u6171 0DE2                              u6091 0DA3                              u5531 0822  
                            u7060 15B0                              u6500 055E                              u6420 0487  
                            u5380 1523                              u5460 139A                              u5620 0923  
                            u5540 0893                              u5700 161F                              u6340 0F89  
                            u6260 0EB6                              u6180 0E2E                              _RCEN 048B  
                            _RCIF 0065                              u7061 15AF                              u6501 055D  
                            u6421 0486                              u5381 1522                              u5365 1512  
                            u5461 1399                              u5445 1383                              u5621 0922  
                            u5541 0892                              u5701 161E                              u6341 0F88  
                            u6261 0EB5                              u6181 0E2D                              u7070 15C5  
                            u6510 0567                              u6430 04A9                              u5470 139F  
                            u5390 1357                              u5630 095B                              u5550 08AF  
                            u5710 1634                              u6350 0F8F                              u6270 0EC1  
                            u6190 0E81                              u6511 0566                              u6431 04A8  
                            u5471 139E                              u5455 138E                              u5391 1356  
                            u5631 095A                              u5551 08AE                              u5711 1633  
                            u6351 0F8E                              u6271 0EC0                              u6191 0E80  
                            u6600 07BE                              u7080 15D5                              u4920 1D53  
                            u6520 0587                              u6440 04B8                              u5640 09CF  
                            u5560 08B9                              u5720 1647                              u5480 1D9F  
                            u6360 0F94                              u6280 0F0C                              u5800 0660  
                            u7400 00FC                              u6601 07BD                              u7081 15D4  
                            u4921 1D52                              u6521 0586                              u6505 055A  
                            u6441 04B7                              u6425 0483                              u5641 09CE  
                            u5561 08B8                              u5721 1646                              u5481 1D9E  
                            u6361 0F93                              u6281 0F0B                              u5801 065F  
                            u7401 00FB                              u7090 15D9                              u4930 1D59  
                            u6530 0596                              u6450 04D9                              u5570 08BF  
                            u5730 1651                              u5650 15EC                              u5490 1F71  
                            u6290 0F5F                              u5810 0676                              u7410 0102  
                            u7091 15D8                              u7075 15C0                              u4931 1D58  
                            u6531 0595                              u6451 04D8                              u5571 08BE  
                            u5731 1650                              u5651 15EB                              u5491 1F70  
                            u6291 0F5E                              u5811 0675                              u7411 0101  
                            u6700 0A7C                              u6620 07CE                              u6540 059F  
                            u6460 04E6                              u4940 1E40                              u5900 1710  
                            u5580 08DB                              u5740 1656                              u5660 15FF  
                            u5820 067F                              u7500 01D0                              u7420 0123  
                            u6701 0A7B                              u6621 07CD                              u6541 059E  
                            u6461 04E5                              u6445 04B4                              u4941 1E3F  
                            u5901 170F                              u5581 08DA                              u5741 1655  
                            u5661 15FE                              u5821 067E                              u5805 065C  
                            u7501 01CF                              u7421 0122                              u6710 0A82  
                            u6630 07D5                              u4950 11BD                              u6550 05BF  
                            u6470 0519                              u5910 1770                              u5590 08E1  
                            u5750 165D                              u5670 1609                              u5830 0683  
                            u7510 01DF                              u7430 0129                              u6711 0A81  
                            u6631 07D4                              u6615 07C0                              u4951 11B9  
                            u6551 05BE                              u6535 0592                              u6471 0518  
                            u5911 176F                              u5591 08E0                              u5751 165C  
                            u5671 1608                              u6375 0FA7                              u5831 0682  
                            u5815 0672                              u7511 01DE                              u7431 0128  
                            u6800 0B2A                              u6720 0A87                              u6560 05D6  
                            u6480 051F                              u5920 17FF                              u7360 1249  
                            u5760 1662                              u5680 1610                              u5840 068D  
                            u7600 02F8                              u7520 029A                              u7440 0158  
                            u6801 0B29                              u6721 0A86                              u6561 05D5  
                            u6481 051E                              u6465 04E2                              u5921 17FE  
                            u7361 1248                              u5761 1661                              u5681 160F  
                            u6385 0FC9                              u5841 068C                              u7601 02F7  
                            u7521 0299                              u7441 0157                              u6810 0B41  
                            u6730 0AA2                              u6650 07E6                              u6570 078C  
                            u6490 054F                              u7370 1250                              u5770 1677  
                            u5690 1618                              u5930 0C1C                              u5850 069B  
                            u7610 02FE                              u7530 02A0                              u7450 015D  
                            u6811 0B40                              u6731 0AA1                              u6651 07E5  
                            u6571 078B                              u6491 054E                              u5915 176C  
                            u7371 124F                              u5771 1676                              u5691 1617  
                            u6395 0FEB                              u5931 0C1B                              u5851 069A  
                            u7611 02FD                              u7531 029F                              u7451 015C  
                            u6900 0B92                              u6820 0B49                              u6740 0ABE  
                            u6660 07EB                              u6580 07A3                              u4964 11C0  
                            u4980 1EE5                              u7380 1265                              u5780 16E3  
                            u5940 0C27                              u5860 06F2                              u7620 0304  
                            u7540 02A6                              u7460 018A                              u6901 0B91  
                            u6821 0B48                              u6805 0B26                              u6741 0ABD  
                            u6661 07EA                              u6645 07D8                              u4981 1EE4  
                            u5925 17FB                              u7381 1264                              u5781 16E2  
                            u5941 0C26                              u5861 06F1                              u7621 0303  
                            u7541 02A5                              u7461 0189                              u6910 0BA4  
                            u6750 0AF8                              u6670 0A53                              u6590 07B7  
                            u5870 16EC                              u5950 0C38                              u5790 0652  
                            u7630 0313                              u7550 02AC                              u7470 0190  
                            u7390 0069                              u6911 0BA3                              u6751 0AF7  
                            u6671 0A52                              u6591 07B6                              u4975 11D0  
                            u5871 16EB                              u5951 0C37                              u5791 0651  
                            u7631 0312                              u7551 02AB                              u7471 018F  
                            u6920 0BB3                              u6840 0B58                              u6680 0A59  
                            u5880 16F4                              u5960 0C72                              u7640 03A1  
                            u7560 02B2                              u7480 0195                              u6841 0B57  
                            u6681 0A58                              u6585 079E                              u5881 16F3  
                            u5961 0C71                              u5865 06EE                              u7641 03A0  
                            u7561 02B1                              u7481 0194                              u6930 0BD0  
                            u6690 0A5E                              u5890 1709                              u5970 0C79  
                            u7570 02C1                              u7490 01CA                              u6931 0BCF  
                            u6835 0B4D                              u6691 0A5D                              u4995 12CF  
                            u5891 1708                              u7707 0CCD                              u5971 0C78  
                            u7571 02C0                              u7491 01C9                              u6940 0BED  
                            u6860 0B6C                              u6780 0B0E                              u5980 0C7F  
                            u7580 02CD                              u6941 0BEC                              u6925 0BAE  
                            u6861 0B6B                              u6781 0B0D                              u6765 0AFA  
                            u7717 0D59                              u5981 0C7E                              u7581 02CC  
                            u6950 0C02                              u6870 0B71                              u5990 0C84  
                            u7590 02F2                              u6951 0C01                              u6935 0BCC  
                            u6871 0B70                              u6855 0B5B                              u6775 0B03  
                            u7807 09E4                              u7727 0D83                              u5991 0C83  
                            u7591 02F1                              u6880 0B85                              u6960 1535  
                            u6945 0BE9                              u6881 0B84                              u6961 1534  
                            u7817 0A12                              u7737 0E36                              u7657 01B9  
                            u6890 0B8C                              u6970 1539                              u6891 0B8B  
                            u6795 0B11                              u6971 1538                              u7907 050C  
                            u7827 0A3A                              u7747 0E60                              u7667 035B  
                            u6980 1559                              u6981 1558                              u7917 0539  
                            u7837 1469                              u7757 0F14                              u7677 037A  
                            u7927 05E6                              u7847 1478                              u7767 0F3E  
                            u7687 03F6                              u7937 0611                              u7857 1486  
                            u7777 0933                              u7697 0C5E                              u6995 1568  
                            u7947 0629                              u7867 149C                              u7787 0949  
                            u7957 063F                              u7877 14A8                              u7797 096B  
                            u7967 1D80                              u7887 14B6                              u7977 11C6  
                            u7897 14C4                              u7987 11DB                              u7997 11E5  
                            _SPEN 00C7                              _TXIF 0064                              _R_nW 04A2  
                            _main 004A                              _menu 00D9                    log_event@event 0024  
                            _time 00C6                              btemp 007E                    log_event@speed 0025  
                _log_event_eeprom 1E95                              start 000C                   ___fldiv@new_exp 0040  
                  menu_screen@key 0027                 ___bmul@multiplier 0074                    clcd_write@byte 0075  
                  clcd_write@mode 0072                     _i2c_rep_start 1D20             ?_write_externaleeprom 0073  
                           ??_isr 0070                      ?_init_ds1307 0070                     ___fltol@sign1 0076  
                           ?_main 0070                      ?_read_ds1307 0070                             _ACKEN 048C  
                           _ACKDT 048D                    ??_display_time 0079                   __end_of___fldiv 0C0F  
                 __end_of___awdiv 152D                             STR_10 1159                             STR_11 1153  
                           STR_20 1014                             STR_12 1156                             STR_13 1165  
                           STR_21 1116                             STR_14 115F                             STR_22 111F  
                           STR_30 1076                             STR_23 10DB                             STR_31 1012  
                           STR_15 1131                             STR_40 113A                             STR_24 10F5  
                           STR_32 1034                             STR_16 110C                             STR_25 10CE  
                           STR_41 1086                             STR_33 1045                             STR_17 10E8  
                           STR_26 10F5                             STR_42 10C0                             STR_34 1023  
                           STR_18 1128                             STR_27 10CE                             STR_43 1095  
                           STR_35 10F5                             STR_19 10A4                             STR_28 10F5  
                           STR_36 1000                   __end_of___awmod 13A9                             STR_37 10B2  
                           STR_29 1056                             STR_38 1066                             STR_39 1102  
                 __end_of___fltol 07F7                   __end_of___lldiv 088A                       i2c_read@ack 0072  
                 ___awdiv@divisor 0072                      ?_init_config 0070                             i1l539 11AE  
                 ___awdiv@counter 0020                             _RCREG 001A                             _SPBRG 0099  
                           _PORTB 0006                             _PORTD 0008                             _SSPM3 00A3  
                           _TRISB 0086                             _TRISD 0088                             _SSPEN 00A5  
                           _TXREG 0019                      ?_init_timer2 0070                             _nDONE 00FA  
            __end_of_clear_screen 1D86                   _change_password 045E                      ?_menu_screen 0070  
                           pclath 000A                             status 0003                             wtemp0 007E  
                 __end_of_strncmp 12B1                   __end_of_strncpy 1266                  init_ds1307@dummy 0076  
                 __initialization 000F                    ?_i2c_rep_start 0070                      __end_of_main 045E  
                   main@delay_243 019D                  __end_of_i2c_read 1E4A                  __end_of_i2c_stop 0800  
                   ?_download_log 0070                            ??_main 0050                            _ADRESH 001E  
                          _ADRESL 009E                  ___awdiv@dividend 0074                      i2c_read@data 0073  
       change_password@new_passwd 00D5                            i1l4270 1199                            i1l4272 11A0  
                          i1l4264 1180                            i1l4274 11A3                            i1l4266 1186  
                          i1l4276 11AA                            i1l4268 1197                            i1l4278 11AC  
                    _write_ds1307 1E0B                            u490_20 11A0                            u490_21 119F  
                          u491_20 11AA                            u491_21 11A9                            u488_20 1186  
                          u488_21 1185                            u489_20 1197                            u489_21 1196  
                          _TMR2IE 0461                            _TMR2IF 0061                            _TMR2ON 0092  
                          _SSPADD 0093                            _TRISE1 0449                            _TRISE2 044A  
                          _SSPBUF 0013                  __end_of___xxtofl 15E3           login_screen@user_passwd 00CD  
     __end_of_init_digital_keypad 1CFD                     login_screen@i 0054                     login_screen@j 002E  
                 set_time@display 00B0            ??_write_externaleeprom 0074                  __end_of_get_time 12FE  
                          ___bmul 1DBD           _init_display_controller 1465                            ___wmul 1E4A  
                       ??___fldiv 0036                         ??___awdiv 0076                         ??___awmod 0076  
                       ??___fltol 004C                         ??___lldiv 0072         ?_str_write_externaleeprom 0075  
       change_password@reset_flag 0025                  __end_of_init_i2c 2000                  __end_of_init_adc 1D04  
                __end_of_read_adc 1DAA                    ??_download_log 0020                  ___awdiv@quotient 0022  
                 ___awmod@divisor 0072                   set_time@sw_flag 00AF                     view_log@index 0079  
                 ___awmod@counter 0076                            main@gr 01A5                            _strcpy 0803  
         __end_of_change_password 0649                  __end_of_set_time 1000                            saved_w 007E  
                __end_of_view_log 0781                         ??_strncmp 0076                         ??_strncpy 0077  
                menu_screen@flag1 00B7                  menu_screen@flag2 00B6                  menu_screen@delay 00B8  
                    ___xxtofl@arg 002A                      ___xxtofl@exp 0029                      ___xxtofl@val 0020  
         __end_of__initialization 0046              __end_of_display_time 1465                        ___fltol@f1 0048  
                 ??_i2c_rep_start 0072               ___bmul@multiplicand 0072                     ?_login_screen 0025  
                  __pcstackCOMMON 0070                      __pidataBANK0 0801                      __pidataBANK1 1D67  
                    __pidataBANK3 1D41                 __end_of_i2c_start 1D15                 __end_of_i2c_write 1D20  
        __end_of_log_event_eeprom 1EBB                 _i2c_wait_for_idle 1D4D                ?_i2c_wait_for_idle 0070  
                      __pbssBANK0 0054                        __pbssBANK1 00A0                         ?_i2c_read 0070  
                       ?_i2c_stop 0070                    ??_login_screen 0026         ??_init_display_controller 0076  
                      _clcd_print 1F3C               ??_i2c_wait_for_idle 0072                        _clcd_putch 1DAA  
                _long_press_delay 00B9                        _clcd_write 11B5                        __pmaintext 004A  
                 read_ds1307@addr 0074                   read_ds1307@data 0075                      _clear_screen 1D75  
                         ?___bmul 0072                           ?___wmul 0072                        __pintentry 0004  
                         _ACKSTAT 048E      str_write_externaleeprom@addr 0077      str_write_externaleeprom@data 0075  
                         ?_strcpy 0072                           _T2CKPS0 0090                           _T2CKPS1 0091  
     __end_of_read_digital_keypad 1F9A                         ?___xxtofl 0020                  ?_change_password 0025  
       __end_of_i2c_wait_for_idle 1D5A                      init_i2c@baud 0028                           _SSPCON2 0091  
                       ?_get_time 0070                        __stringtab 1800                        ??_i2c_read 0072  
                      ??_i2c_stop 0072                         ?_init_i2c 0028              __end_of_download_log 1800  
                       ?_init_adc 0070                         ?_read_adc 0072                 __end_of_clear_log 1DED  
        write_externaleeprom@addr 0074          write_externaleeprom@data 0073                         ?_set_time 0070  
         read_externaleeprom@addr 0074           read_externaleeprom@data 0075                change_password@key 0029  
                         ___fldiv 0A45                           ___awdiv 14C8                           ___awmod 1352  
                       ?_view_log 0070                           ___fltol 0781                           ___lldiv 0824  
                set_time@min_flag 00B3                  set_time@sec_flag 00B4                  main@control_flag 01A7  
                         __ptext1 0649                           __ptext2 0803                           __ptext3 0C0F  
                         __ptext4 1F6B                           __ptext5 1D98                           __ptext6 15E3  
                         __ptext7 088A                           __ptext8 13A9                           __ptext9 1225  
 __end_of_init_display_controller 14C8                 __end_of_init_clcd 1D41              log_event_eeprom@addr 0078  
                set_time@time_pos 007B                        ??___xxtofl 0024                 __end_of_init_uart 1FCC  
                ___awmod@dividend 0074                    main@reset_flag 019F                 __end_of_log_event 1403  
          display_dashboard@event 0025            display_dashboard@speed 0026                           main@key 01A4  
                         clrloop0 1D05                        ??_get_time 0076                           _strncmp 1266  
                         _strncpy 1225              end_of_initialization 0046                       set_time@key 0028  
                      ??_init_i2c 002C                        ??_init_adc 0072                        ??_read_adc 0074  
                     ?_clcd_print 0076                       ?_clcd_putch 0024                   ___lldiv@divisor 0020  
                   ?_uart_putchar 0070                 __end_of_uart_puts 1E95                       ?_clcd_write 0072  
                 ___lldiv@counter 0077                        ??_set_time 0025                        ??_view_log 0025  
                    __pstringtext 1000                           strcpy@d 0077                      _display_time 1403  
             _read_externaleeprom 1F11                     i2c_write@data 0072              __end_of_login_screen 0A45  
                   ___xxtofl@sign 0028                       ___fldiv@grs 0042                       ___fldiv@rem 003B  
                   clcd_print@str 0076                    ??_uart_putchar 0072              ?_read_externaleeprom 0070  
          login_screen@reset_flag 0025                    __end_of___bmul 1DD0                    __end_of___wmul 1E6F  
                     view_log@key 0032                    __end_of_strcpy 0824                 ?_log_event_eeprom 0070  
             start_initialization 000F                         _i2c_start 1D0C                       __end_of_isr 11B5  
                       _i2c_write 1D15                ??_log_event_eeprom 0078             ??_read_externaleeprom 0074  
       download_log@download_data 0024          _str_write_externaleeprom 1EBB                    set_time@delay1 00AE  
                change_password@p 00A7                  change_password@q 00A5             __end_of_i2c_rep_start 1D2B  
                        ??___bmul 0073                          ??___wmul 0076                        init_fetch0 116D  
                   ??_init_ds1307 0076                       __pdataBANK0 0058                       __pdataBANK1 00D9  
                     __pdataBANK3 01A8                     ??_read_ds1307 0074                      _download_log 16E5  
                        ??_strcpy 0075                     ??_init_config 0078                         ___fldiv@a 002E  
                       ___fldiv@b 0032                     ??_init_timer2 0072                       __pbssCOMMON 0079  
                       ___latbits 0002                     __pcstackBANK0 0020                     __pcstackBANK3 0190  
                      ?_i2c_start 0070                        ?_i2c_write 0070                     ??_menu_screen 0025  
                       _clear_log 1DD0                          ?___fldiv 002E                          ?___awdiv 0072  
                        ?___awmod 0072                          ?___fltol 0048                 _display_dashboard 12FE  
                        ?___lldiv 0020                         _clock_reg 00A0                ?_display_dashboard 0025  
                       __pstrings 1800               __end_of_init_ds1307 1D98              __end_of_uart_putchar 1D36  
             read_adc@adc_reg_val 0074               ??_display_dashboard 0027               __end_of_read_ds1307 1F11  
                       _init_clcd 1D36               __end_of_init_config 1225                         _init_uart 1F9A  
                        ?_strncmp 0072                          ?_strncpy 0072                         _log_event 13A9  
                   ?_write_ds1307 0073               __end_of_init_timer2 1D67          ?_init_display_controller 0070  
               interrupt_function 0004                    ___wmul@product 0076                         clear_ram0 1D04  
                    ??_clcd_print 0079                      ??_clcd_putch 0078               __end_of_menu_screen 16E5  
                    ??_clcd_write 0073                      _login_screen 088A                        ?_clear_log 0070  
       __end_of_display_dashboard 1352                         main@F1254 00E3                         main@F1256 01A8  
                       _uart_puts 1E6F                  view_log@log_data 0027                        uart_puts@s 0073  
                   download_log@z 002F                       __stringbase 1812                 ___wmul@multiplier 0072  
                       main@delay 0190                         main@event 01A1                         main@speed 01A6  
                     ??_i2c_start 0072                __end_of_clcd_print 1F6B                       ??_i2c_write 0072  
              __end_of_clcd_putch 1DBD                __end_of_clcd_write 11EB                        ?_init_clcd 0070  
                      ?_init_uart 0028                    ??_write_ds1307 0074                        ?_log_event 0024  
             _init_digital_keypad 1CF7                          _i2c_read 1E29                          _i2c_stop 07F7  
        change_password@re_passwd 00D1                     set_time@flag5 00AD                     set_time@flag6 00AC  
                   set_time@delay 00B1                   login_screen@key 002D               change_password@once 00A9  
                      ?_uart_puts 0073              ?_init_digital_keypad 0070                       _init_ds1307 1D86  
              __end_of__stringtab 1812                       _read_ds1307 1EE6               login_screen@spasswd 0029  
                     _init_config 11EB                          ___xxtofl 152D                 set_time@hour_flag 00B2  
                     _init_timer2 1D5A                          __ptext10 1E95                          __ptext11 11EB  
                        __ptext20 1465                          __ptext12 1F9A                          __ptext21 1CFD  
                        __ptext13 1D5A                          __ptext30 12B1                          __ptext22 16E5  
                        __ptext14 1FCC                          __ptext31 1EE6                          __ptext23 1E6F  
                        __ptext15 0824                          __ptext40 1DED                          __ptext32 1D20  
                        __ptext24 1D2B                          __ptext16 1D86                          __ptext41 1D15  
                        __ptext33 1E29                          __ptext25 1F11                          __ptext17 1E0B  
                        __ptext50 0781                          __ptext42 07F7                          __ptext34 1352  
                        __ptext26 1E4A                          __ptext18 1CF7                          __ptext51 0A45  
                        __ptext43 1D0C                          __ptext35 14C8                          __ptext27 1DBD  
                        __ptext19 1D36                          __ptext52 1180                          __ptext44 1D4D  
                        __ptext36 1DD0                          __ptext28 12FE                          __ptext45 1D75  
                        __ptext37 045E                          __ptext29 1403                          __ptext46 1DAA  
                        __ptext38 1266                          __ptext47 1F3C                          __ptext39 1EBB  
                        __ptext48 11B5                          __ptext49 152D      __end_of_write_externaleeprom 1E0B  
                        _get_time 12B1        ??_str_write_externaleeprom 0077                       _menu_screen 15E3  
                      strcpy@dest 0072                          _init_i2c 1FCC                          _init_adc 1CFD  
                        _read_adc 1D98           read_digital_keypad@mode 0073           read_digital_keypad@once 00E6  
                        _menu_pos 0057                       ??_clear_log 0079                 ??_change_password 0026  
                   ?_clear_screen 0070                          _set_time 0C0F                          _view_log 0649  
           ??_init_digital_keypad 0072                          main@gear 0191                          main@key2 01A0  
                       view_log@k 0033                          isr@count 00A3                          init_ram0 1171  
                     ??_init_clcd 0078                       ??_init_uart 002C       __end_of_read_externaleeprom 1F3C  
                     ??_log_event 0026                          intlevel1 0000                  uart_putchar@data 0072  
         login_screen@attempt_rem 00AB                     init_uart@baud 0028                  ___lldiv@dividend 0024  
                       strcpy@src 0073                         stringcode 180A                    ??_clear_screen 0076  
                    _uart_putchar 1D2B                         strncpy@cp 0020                       ??_uart_puts 0075  
            __end_of_write_ds1307 1E29               _read_digital_keypad 1F6B                  ___lldiv@quotient 0073  
                        strncmp@l 0072                          strncmp@n 0074                          strncmp@r 0073  
                        stringtab 1800                          strncpy@d 0072                          strncpy@n 0075  
                        strncpy@s 0073                       _return_time 00BA              ?_read_digital_keypad 0070  
                write_ds1307@addr 0074                  write_ds1307@data 0073                download_log@index1 0055  
                download_log@once 00B5  
